

Microchip MPLAB XC8 Assembler V2.32 build 20210201212658 
                                                                                               Thu Oct 07 11:44:33 2021

Microchip MPLAB XC8 C Compiler v2.32 (Free license) build 20210201212658 Og1 
     1                           	processor	18F4550
     2                           	fnconf	rparam,??,?,0
     3                           	pagewidth 120
     4                           	opt	flic
     5                           	psect	idataBANK1,global,class=CODE,delta=1,noexec
     6                           	psect	idataBANK2,global,class=CODE,delta=1,noexec
     7                           	psect	smallconst,global,reloc=2,class=SMALLCONST,delta=1,noexec
     8                           	psect	cinit,global,reloc=2,class=CODE,delta=1
     9                           	psect	bssBANK0,global,class=BANK0,space=1,delta=1,lowdata,noexec
    10                           	psect	bssBANK1,global,class=BANK1,space=1,delta=1,lowdata,noexec
    11                           	psect	dataBANK1,global,class=BANK1,space=1,delta=1,lowdata,noexec
    12                           	psect	bssBANK2,global,class=BANK2,space=1,delta=1,lowdata,noexec
    13                           	psect	dataBANK2,global,class=BANK2,space=1,delta=1,lowdata,noexec
    14                           	psect	bssBANK3,global,class=BANK3,space=1,delta=1,lowdata,noexec
    15                           	psect	cstackBANK2,global,class=BANK2,space=1,delta=1,lowdata,noexec
    16                           	psect	cstackBANK1,global,class=BANK1,space=1,delta=1,lowdata,noexec
    17                           	psect	cstackBANK0,global,class=BANK0,space=1,delta=1,lowdata,noexec
    18                           	psect	cstackCOMRAM,global,class=COMRAM,space=1,delta=1,lowdata,noexec
    19                           	psect	text0,global,reloc=2,class=CODE,delta=1
    20                           	psect	text1,global,reloc=2,class=CODE,delta=1
    21                           	psect	text2,global,reloc=2,class=CODE,delta=1
    22                           	psect	text3,global,reloc=2,class=CODE,delta=1
    23                           	psect	text4,global,reloc=2,class=CODE,delta=1
    24                           	psect	text5,global,reloc=2,class=CODE,delta=1,group=3
    25                           	psect	text6,global,reloc=2,class=CODE,delta=1,group=3
    26                           	psect	text7,global,reloc=2,class=CODE,delta=1
    27                           	psect	text8,global,reloc=2,class=CODE,delta=1
    28                           	psect	text9,global,reloc=2,class=CODE,delta=1
    29                           	psect	text10,global,reloc=2,class=CODE,delta=1
    30                           	psect	text11,global,reloc=2,class=CODE,delta=1
    31                           	psect	text12,global,reloc=2,class=CODE,delta=1
    32                           	psect	text13,global,reloc=2,class=CODE,delta=1
    33                           	psect	text14,global,reloc=2,class=CODE,delta=1
    34                           	psect	text15,global,reloc=2,class=CODE,delta=1
    35                           	psect	text16,global,reloc=2,class=CODE,delta=1
    36                           	psect	text17,global,reloc=2,class=CODE,delta=1
    37                           	psect	text18,global,reloc=2,class=CODE,delta=1
    38                           	psect	text19,global,reloc=2,class=CODE,delta=1
    39                           	psect	text20,global,reloc=2,class=CODE,delta=1
    40                           	psect	text21,global,reloc=2,class=CODE,delta=1
    41                           	psect	text22,global,reloc=2,class=CODE,delta=1
    42                           	psect	text23,global,reloc=2,class=CODE,delta=1,group=2
    43                           	psect	text24,global,reloc=2,class=CODE,delta=1
    44                           	psect	text25,global,reloc=2,class=CODE,delta=1
    45                           	psect	text26,global,reloc=2,class=CODE,delta=1
    46                           	psect	text27,global,reloc=2,class=CODE,delta=1
    47                           	psect	text28,global,reloc=2,class=CODE,delta=1,group=2
    48                           	psect	text29,global,reloc=2,class=CODE,delta=1,group=2
    49                           	psect	text30,global,reloc=2,class=CODE,delta=1
    50                           	psect	text31,global,reloc=2,class=CODE,delta=1
    51                           	psect	text32,global,reloc=2,class=CODE,delta=1
    52                           	psect	text33,global,reloc=2,class=CODE,delta=1
    53                           	psect	text34,global,reloc=2,class=CODE,delta=1,group=3
    54                           	psect	text35,global,reloc=2,class=CODE,delta=1,group=1
    55                           	psect	text36,global,reloc=2,class=CODE,delta=1,group=1
    56                           	psect	text37,global,reloc=2,class=CODE,delta=1,group=1
    57                           	psect	text38,global,reloc=2,class=CODE,delta=1,group=3
    58                           	psect	text39,global,reloc=2,class=CODE,delta=1,group=3
    59                           	psect	text40,global,reloc=2,class=CODE,delta=1,group=3
    60                           	psect	text41,global,reloc=2,class=CODE,delta=1,group=3
    61                           	psect	text42,global,reloc=2,class=CODE,delta=1,group=1
    62                           	psect	text43,global,reloc=2,class=CODE,delta=1,group=1
    63                           	psect	text44,global,reloc=2,class=CODE,delta=1,group=1
    64                           	psect	text45,global,reloc=2,class=CODE,delta=1,group=3
    65                           	psect	text46,global,reloc=2,class=CODE,delta=1,group=3
    66                           	psect	text47,global,reloc=2,class=CODE,delta=1,group=3
    67                           	psect	text48,global,reloc=2,class=CODE,delta=1,group=3
    68                           	psect	text49,global,reloc=2,class=CODE,delta=1,group=3
    69                           	psect	text50,global,reloc=2,class=CODE,delta=1,group=2
    70                           	psect	text51,global,reloc=2,class=CODE,delta=1,group=2
    71                           	psect	text52,global,reloc=2,class=CODE,delta=1
    72                           	psect	text53,global,reloc=2,class=CODE,delta=1
    73                           	psect	text54,global,reloc=2,class=CODE,delta=1
    74                           	psect	text55,global,reloc=2,class=CODE,delta=1
    75                           	psect	text56,global,reloc=2,class=CODE,delta=1
    76                           	psect	text57,global,reloc=2,class=CODE,delta=1
    77                           	psect	text58,global,reloc=2,class=CODE,delta=1
    78                           	psect	text59,global,reloc=2,class=CODE,delta=1
    79                           	psect	text60,global,reloc=2,class=CODE,delta=1
    80                           	psect	text61,global,reloc=2,class=CODE,delta=1
    81                           	psect	text62,global,reloc=2,class=CODE,delta=1
    82                           	psect	text63,global,reloc=2,class=CODE,delta=1
    83                           	psect	text64,global,reloc=2,class=CODE,delta=1
    84                           	psect	text65,global,reloc=2,class=CODE,delta=1
    85                           	psect	text66,global,reloc=2,class=CODE,delta=1
    86                           	psect	text67,global,reloc=2,class=CODE,delta=1,group=2
    87                           	psect	text68,global,reloc=2,class=CODE,delta=1,group=2
    88                           	psect	text69,global,reloc=2,class=CODE,delta=1,group=2
    89                           	psect	text70,global,reloc=2,class=CODE,delta=1,group=2
    90                           	psect	intsave_regs,global,class=BIGRAM,space=1,delta=1,noexec
    91                           	psect	rparam,global,class=COMRAM,space=1,delta=1,noexec
    92                           	psect	idloc,global,abs,ovrld,class=IDLOC,space=5,delta=1,noexec
    93                           	psect	config,global,abs,ovrld,class=CONFIG,space=4,delta=1,noexec
    94  0000                     
    95                           ; Version 2.20
    96                           ; Generated 12/02/2020 GMT
    97                           ; 
    98                           ; Copyright © 2020, Microchip Technology Inc. and its subsidiaries ("Microchip")
    99                           ; All rights reserved.
   100                           ; 
   101                           ; This software is developed by Microchip Technology Inc. and its subsidiaries ("Microch
      +                          ip").
   102                           ; 
   103                           ; Redistribution and use in source and binary forms, with or without modification, are
   104                           ; permitted provided that the following conditions are met:
   105                           ; 
   106                           ;     1. Redistributions of source code must retain the above copyright notice, this lis
      +                          t of
   107                           ;        conditions and the following disclaimer.
   108                           ; 
   109                           ;     2. Redistributions in binary form must reproduce the above copyright notice, this 
      +                          list
   110                           ;        of conditions and the following disclaimer in the documentation and/or other
   111                           ;        materials provided with the distribution.
   112                           ; 
   113                           ;     3. Microchip's name may not be used to endorse or promote products derived from th
      +                          is
   114                           ;        software without specific prior written permission.
   115                           ; 
   116                           ; THIS SOFTWARE IS PROVIDED BY MICROCHIP "AS IS" AND ANY EXPRESS OR IMPLIED WARRANTIES,
   117                           ; INCLUDING, BUT NOT LIMITED TO, THE IMPLIED WARRANTIES OF MERCHANTABILITY AND FITNESS F
      +                          OR
   118                           ; PURPOSE ARE DISCLAIMED.  IN NO EVENT SHALL MICROCHIP BE LIABLE FOR ANY DIRECT, INDIREC
      +                          T,
   119                           ; INCIDENTAL, SPECIAL, EXEMPLARY, OR CONSEQUENTIAL DAMAGES (INCLUDING BUT NOT LIMITED TO
   120                           ; PROCUREMENT OF SUBSTITUTE GOODS OR SERVICES; LOSS OF USE, DATA OR PROFITS; OR BUSINESS
   121                           ; INTERRUPTION) HOWSOEVER CAUSED AND ON ANY THEORY OF LIABILITY, WHETHER IN CONTRACT, ST
      +                          RICT
   122                           ; LIABILITY, OR TORT (INCLUDING NEGLIGENCE OR OTHERWISE) ARISING IN ANY WAY OUT OF THE U
      +                          SE OF
   123                           ; THIS SOFTWARE, EVEN IF ADVISED OF THE POSSIBILITY OF SUCH DAMAGE.
   124                           ; 
   125                           ; 
   126                           ; Code-generator required, PIC18F4550 Definitions
   127                           ; 
   128                           ; SFR Addresses
   129  0000                     
   130                           	psect	idataBANK1
   131  0038B6                     __pidataBANK1:
   132                           	callstack 0
   133                           
   134                           ;initializer for stoa@F1141
   135  0038B6  28                 	db	40
   136  0038B7  6E                 	db	110
   137  0038B8  75                 	db	117
   138  0038B9  6C                 	db	108
   139  0038BA  6C                 	db	108
   140  0038BB  29                 	db	41
   141  0038BC  00                 	db	0
   142                           
   143                           ;initializer for Reloj_Calendario@Time
   144  0038BD  54                 	db	84
   145  0038BE  49                 	db	73
   146  0038BF  4D                 	db	77
   147  0038C0  45                 	db	69
   148  0038C1  3A                 	db	58
   149  0038C2  20                 	db	32
   150  0038C3  30                 	db	48
   151  0038C4  30                 	db	48
   152  0038C5  3A                 	db	58
   153  0038C6  30                 	db	48
   154  0038C7  30                 	db	48
   155  0038C8  3A                 	db	58
   156  0038C9  30                 	db	48
   157  0038CA  30                 	db	48
   158  0038CB  00                 	db	0
   159                           
   160                           	psect	idataBANK2
   161  0036D2                     __pidataBANK2:
   162                           	callstack 0
   163                           
   164                           ;initializer for iniciar_emoticones@F3819
   165  0036D2  00                 	db	0
   166  0036D3  0A                 	db	10
   167  0036D4  0A                 	db	10
   168  0036D5  00                 	db	0
   169  0036D6  1F                 	db	31
   170  0036D7  0E                 	db	14
   171  0036D8  04                 	db	4
   172  0036D9  00                 	db	0
   173                           
   174                           ;initializer for iniciar_emoticones@F3817
   175  0036DA  0A                 	db	10
   176  0036DB  0A                 	db	10
   177  0036DC  0A                 	db	10
   178  0036DD  1F                 	db	31
   179  0036DE  11                 	db	17
   180  0036DF  0E                 	db	14
   181  0036E0  04                 	db	4
   182  0036E1  04                 	db	4
   183                           
   184                           ;initializer for iniciar_emoticones@F3815
   185  0036E2  00                 	db	0
   186  0036E3  00                 	db	0
   187  0036E4  04                 	db	4
   188  0036E5  02                 	db	2
   189  0036E6  1F                 	db	31
   190  0036E7  02                 	db	2
   191  0036E8  04                 	db	4
   192  0036E9  00                 	db	0
   193                           
   194                           ;initializer for iniciar_emoticones@F3813
   195  0036EA  04                 	db	4
   196  0036EB  15                 	db	21
   197  0036EC  0E                 	db	14
   198  0036ED  1F                 	db	31
   199  0036EE  0E                 	db	14
   200  0036EF  15                 	db	21
   201  0036F0  04                 	db	4
   202  0036F1  00                 	db	0
   203                           
   204                           ;initializer for Reloj_Calendario@Date
   205  0036F2  44                 	db	68
   206  0036F3  41                 	db	65
   207  0036F4  54                 	db	84
   208  0036F5  45                 	db	69
   209  0036F6  3A                 	db	58
   210  0036F7  20                 	db	32
   211  0036F8  30                 	db	48
   212  0036F9  30                 	db	48
   213  0036FA  2F                 	db	47
   214  0036FB  30                 	db	48
   215  0036FC  30                 	db	48
   216  0036FD  2F                 	db	47
   217  0036FE  32                 	db	50
   218  0036FF  30                 	db	48
   219  003700  30                 	db	48
   220  003701  30                 	db	48
   221  003702  00                 	db	0
   222  0000                     _SSPCON2bits	set	4037
   223  0000                     _SSPADD	set	4040
   224  0000                     _SSPCON2	set	4037
   225  0000                     _SSPCON1	set	4038
   226  0000                     _SSPSTAT	set	4039
   227  0000                     _SSPBUF	set	4041
   228  0000                     _SSPSTATbits	set	4039
   229  0000                     _RCREG	set	4014
   230  0000                     _RCSTAbits	set	4011
   231  0000                     _TXREG	set	4013
   232  0000                     _RCSTA	set	4011
   233  0000                     _TXSTA	set	4012
   234  0000                     _SPBRG	set	4015
   235  0000                     _TRISAbits	set	3986
   236  0000                     _PORTCbits	set	3970
   237  0000                     _TRISCbits	set	3988
   238  0000                     _LATCbits	set	3979
   239  0000                     _LATD	set	3980
   240  0000                     _TRISD	set	3989
   241  0000                     _ADRESL	set	4035
   242  0000                     _ADRESH	set	4036
   243  0000                     _ADCON2bits	set	4032
   244  0000                     _ADCON0bits	set	4034
   245  0000                     _ADCON1bits	set	4033
   246  0000                     _TRISBbits	set	3987
   247  0000                     _OSCCON	set	4051
   248  0000                     _OSCCONbits	set	4051
   249  0000                     _PORTAbits	set	3968
   250  0000                     _ADCON1	set	4033
   251  0000                     _ACKEN	set	32300
   252  0000                     _ACKDT	set	32301
   253  0000                     _PEN	set	32298
   254  0000                     _RSEN	set	32297
   255  0000                     _ACKSTAT	set	32302
   256  0000                     _SSPIF	set	31987
   257  0000                     _SSPIE	set	31979
   258  0000                     _TRISB1	set	31897
   259  0000                     _TRISB0	set	31896
   260  0000                     _RCEN	set	32299
   261  0000                     _CREN	set	32092
   262  0000                     _RCIF	set	31989
   263  0000                     _TXIF	set	31988
   264  0000                     _TRISC7	set	31911
   265  0000                     _TRISC6	set	31910
   266  0000                     _LATB3	set	31827
   267  0000                     _LATB4	set	31828
   268  0000                     _LATB5	set	31829
   269  0000                     _TRISB4	set	31900
   270  0000                     _TRISB3	set	31899
   271  0000                     _TRISB5	set	31901
   272  0000                     _TRISB6	set	31902
   273  0000                     _LATD1	set	31841
   274  0000                     _LATD0	set	31840
   275  0000                     _RBPU	set	32655
   276                           
   277                           	psect	smallconst
   278  000800                     __psmallconst:
   279                           	callstack 0
   280  000800  00                 	db	0
   281  000801                     STR_10:
   282  000801  25                 	db	37
   283  000802  73                 	db	115	;'s'
   284  000803  20                 	db	32
   285  000804  41                 	db	65	;'A'
   286  000805  6C                 	db	108	;'l'
   287  000806  65                 	db	101	;'e'
   288  000807  72                 	db	114	;'r'
   289  000808  74                 	db	116	;'t'
   290  000809  61                 	db	97	;'a'
   291  00080A  20                 	db	32
   292  00080B  64                 	db	100	;'d'
   293  00080C  65                 	db	101	;'e'
   294  00080D  20                 	db	32
   295  00080E  4C                 	db	76	;'L'
   296  00080F  75                 	db	117	;'u'
   297  000810  6D                 	db	109	;'m'
   298  000811  69                 	db	105	;'i'
   299  000812  6E                 	db	110	;'n'
   300  000813  6F                 	db	111	;'o'
   301  000814  73                 	db	115	;'s'
   302  000815  69                 	db	105	;'i'
   303  000816  64                 	db	100	;'d'
   304  000817  61                 	db	97	;'a'
   305  000818  64                 	db	100	;'d'
   306  000819  3A                 	db	58	;':'
   307  00081A  20                 	db	32
   308  00081B  25                 	db	37
   309  00081C  73                 	db	115	;'s'
   310  00081D  20                 	db	32
   311  00081E  50                 	db	80	;'P'
   312  00081F  6F                 	db	111	;'o'
   313  000820  72                 	db	114	;'r'
   314  000821  63                 	db	99	;'c'
   315  000822  69                 	db	105	;'i'
   316  000823  65                 	db	101	;'e'
   317  000824  6E                 	db	110	;'n'
   318  000825  74                 	db	116	;'t'
   319  000826  6F                 	db	111	;'o'
   320  000827  20                 	db	32
   321  000828  0D                 	db	13
   322  000829  0A                 	db	10
   323  00082A  00                 	db	0
   324  00082B                     STR_8:
   325  00082B  25                 	db	37
   326  00082C  73                 	db	115	;'s'
   327  00082D  20                 	db	32
   328  00082E  41                 	db	65	;'A'
   329  00082F  6C                 	db	108	;'l'
   330  000830  65                 	db	101	;'e'
   331  000831  72                 	db	114	;'r'
   332  000832  74                 	db	116	;'t'
   333  000833  61                 	db	97	;'a'
   334  000834  20                 	db	32
   335  000835  64                 	db	100	;'d'
   336  000836  65                 	db	101	;'e'
   337  000837  20                 	db	32
   338  000838  54                 	db	84	;'T'
   339  000839  65                 	db	101	;'e'
   340  00083A  6D                 	db	109	;'m'
   341  00083B  70                 	db	112	;'p'
   342  00083C  65                 	db	101	;'e'
   343  00083D  72                 	db	114	;'r'
   344  00083E  61                 	db	97	;'a'
   345  00083F  74                 	db	116	;'t'
   346  000840  75                 	db	117	;'u'
   347  000841  72                 	db	114	;'r'
   348  000842  61                 	db	97	;'a'
   349  000843  3A                 	db	58	;':'
   350  000844  20                 	db	32
   351  000845  25                 	db	37
   352  000846  73                 	db	115	;'s'
   353  000847  20                 	db	32
   354  000848  47                 	db	71	;'G'
   355  000849  20                 	db	32
   356  00084A  0D                 	db	13
   357  00084B  0A                 	db	10
   358  00084C  00                 	db	0
   359  00084D                     STR_9:
   360  00084D  25                 	db	37
   361  00084E  73                 	db	115	;'s'
   362  00084F  20                 	db	32
   363  000850  41                 	db	65	;'A'
   364  000851  6C                 	db	108	;'l'
   365  000852  65                 	db	101	;'e'
   366  000853  72                 	db	114	;'r'
   367  000854  74                 	db	116	;'t'
   368  000855  61                 	db	97	;'a'
   369  000856  20                 	db	32
   370  000857  64                 	db	100	;'d'
   371  000858  65                 	db	101	;'e'
   372  000859  20                 	db	32
   373  00085A  44                 	db	68	;'D'
   374  00085B  69                 	db	105	;'i'
   375  00085C  73                 	db	115	;'s'
   376  00085D  74                 	db	116	;'t'
   377  00085E  61                 	db	97	;'a'
   378  00085F  6E                 	db	110	;'n'
   379  000860  63                 	db	99	;'c'
   380  000861  69                 	db	105	;'i'
   381  000862  61                 	db	97	;'a'
   382  000863  3A                 	db	58	;':'
   383  000864  20                 	db	32
   384  000865  25                 	db	37
   385  000866  73                 	db	115	;'s'
   386  000867  20                 	db	32
   387  000868  43                 	db	67	;'C'
   388  000869  6D                 	db	109	;'m'
   389  00086A  20                 	db	32
   390  00086B  0D                 	db	13
   391  00086C  0A                 	db	10
   392  00086D  00                 	db	0
   393  00086E                     STR_12:
   394  00086E  54                 	db	84	;'T'
   395  00086F  69                 	db	105	;'i'
   396  000870  6D                 	db	109	;'m'
   397  000871  65                 	db	101	;'e'
   398  000872  3A                 	db	58	;':'
   399  000873  20                 	db	32
   400  000874  25                 	db	37
   401  000875  78                 	db	120	;'x'
   402  000876  3A                 	db	58	;':'
   403  000877  25                 	db	37
   404  000878  78                 	db	120	;'x'
   405  000879  3A                 	db	58	;':'
   406  00087A  25                 	db	37
   407  00087B  78                 	db	120	;'x'
   408  00087C  20                 	db	32
   409  00087D  41                 	db	65	;'A'
   410  00087E  4D                 	db	77	;'M'
   411  00087F  00                 	db	0
   412  000880                     STR_11:
   413  000880  54                 	db	84	;'T'
   414  000881  69                 	db	105	;'i'
   415  000882  6D                 	db	109	;'m'
   416  000883  65                 	db	101	;'e'
   417  000884  3A                 	db	58	;':'
   418  000885  20                 	db	32
   419  000886  25                 	db	37
   420  000887  78                 	db	120	;'x'
   421  000888  3A                 	db	58	;':'
   422  000889  25                 	db	37
   423  00088A  78                 	db	120	;'x'
   424  00088B  3A                 	db	58	;':'
   425  00088C  25                 	db	37
   426  00088D  78                 	db	120	;'x'
   427  00088E  20                 	db	32
   428  00088F  50                 	db	80	;'P'
   429  000890  4D                 	db	77	;'M'
   430  000891  00                 	db	0
   431  000892                     STR_14:
   432  000892  44                 	db	68	;'D'
   433  000893  61                 	db	97	;'a'
   434  000894  74                 	db	116	;'t'
   435  000895  65                 	db	101	;'e'
   436  000896  3A                 	db	58	;':'
   437  000897  20                 	db	32
   438  000898  25                 	db	37
   439  000899  78                 	db	120	;'x'
   440  00089A  2F                 	db	47
   441  00089B  25                 	db	37
   442  00089C  78                 	db	120	;'x'
   443  00089D  2F                 	db	47
   444  00089E  25                 	db	37
   445  00089F  78                 	db	120	;'x'
   446  0008A0  20                 	db	32
   447  0008A1  00                 	db	0
   448  0008A2                     STR_13:
   449  0008A2  54                 	db	84	;'T'
   450  0008A3  69                 	db	105	;'i'
   451  0008A4  6D                 	db	109	;'m'
   452  0008A5  65                 	db	101	;'e'
   453  0008A6  3A                 	db	58	;':'
   454  0008A7  20                 	db	32
   455  0008A8  25                 	db	37
   456  0008A9  78                 	db	120	;'x'
   457  0008AA  3A                 	db	58	;':'
   458  0008AB  25                 	db	37
   459  0008AC  78                 	db	120	;'x'
   460  0008AD  3A                 	db	58	;':'
   461  0008AE  25                 	db	37
   462  0008AF  78                 	db	120	;'x'
   463  0008B0  20                 	db	32
   464  0008B1  00                 	db	0
   465  0008B2                     STR_1:
   466  0008B2  44                 	db	68	;'D'
   467  0008B3  3A                 	db	58	;':'
   468  0008B4  54                 	db	84	;'T'
   469  0008B5  3A                 	db	58	;':'
   470  0008B6  4C                 	db	76	;'L'
   471  0008B7  3A                 	db	58	;':'
   472  0008B8  00                 	db	0
   473  0008B9                     STR_2:
   474  0008B9  25                 	db	37
   475  0008BA  64                 	db	100	;'d'
   476  0008BB  63                 	db	99	;'c'
   477  0008BC  6D                 	db	109	;'m'
   478  0008BD  00                 	db	0
   479  0008BE                     STR_3:
   480  0008BE  25                 	db	37
   481  0008BF  64                 	db	100	;'d'
   482  0008C0  47                 	db	71	;'G'
   483  0008C1  00                 	db	0
   484  0008C2                     STR_4:
   485  0008C2  25                 	db	37
   486  0008C3  64                 	db	100	;'d'
   487  0008C4  50                 	db	80	;'P'
   488  0008C5  00                 	db	0
   489  0008C6                     STR_15:
   490  0008C6  20                 	db	32
   491  0008C7  20                 	db	32
   492  0008C8  00                 	db	0
   493  0008C9                     STR_5:
   494  0008C9  25                 	db	37
   495  0008CA  64                 	db	100	;'d'
   496  0008CB  00                 	db	0
   497  0008CC  00                 	db	0	; dummy byte at the end
   498  0000                     
   499                           ; #config settings
   500                           
   501                           	psect	cinit
   502  002F96                     __pcinit:
   503                           	callstack 0
   504  002F96                     start_initialization:
   505                           	callstack 0
   506  002F96                     __initialization:
   507                           	callstack 0
   508                           
   509                           ; Initialize objects allocated to BANK2 (49 bytes)
   510                           ; load TBLPTR registers with __pidataBANK2
   511  002F96  0ED2               	movlw	low __pidataBANK2
   512  002F98  6EF6               	movwf	tblptrl,c
   513  002F9A  0E36               	movlw	high __pidataBANK2
   514  002F9C  6EF7               	movwf	tblptrh,c
   515  002F9E  0E00               	movlw	low (__pidataBANK2 shr (0+16))
   516  002FA0  6EF8               	movwf	tblptru,c
   517  002FA2  EE02  F0B4         	lfsr	0,__pdataBANK2
   518  002FA6  EE10 F031          	lfsr	1,49
   519  002FAA                     copy_data0:
   520  002FAA  0009               	tblrd		*+
   521  002FAC  CFF5 FFEE          	movff	tablat,postinc0
   522  002FB0  50E5               	movf	postdec1,w,c
   523  002FB2  50E1               	movf	fsr1l,w,c
   524  002FB4  E1FA               	bnz	copy_data0
   525                           
   526                           ; Initialize objects allocated to BANK1 (22 bytes)
   527                           ; load TBLPTR registers with __pidataBANK1
   528  002FB6  0EB6               	movlw	low __pidataBANK1
   529  002FB8  6EF6               	movwf	tblptrl,c
   530  002FBA  0E38               	movlw	high __pidataBANK1
   531  002FBC  6EF7               	movwf	tblptrh,c
   532  002FBE  0E00               	movlw	low (__pidataBANK1 shr (0+16))
   533  002FC0  6EF8               	movwf	tblptru,c
   534  002FC2  EE01  F0E6         	lfsr	0,__pdataBANK1
   535  002FC6  EE10 F016          	lfsr	1,22
   536  002FCA                     copy_data1:
   537  002FCA  0009               	tblrd		*+
   538  002FCC  CFF5 FFEE          	movff	tablat,postinc0
   539  002FD0  50E5               	movf	postdec1,w,c
   540  002FD2  50E1               	movf	fsr1l,w,c
   541  002FD4  E1FA               	bnz	copy_data1
   542                           
   543                           ; Clear objects allocated to BANK3 (240 bytes)
   544  002FD6  EE03  F000         	lfsr	0,__pbssBANK3
   545  002FDA  0EF0               	movlw	240
   546  002FDC                     clear_0:
   547  002FDC  6AEE               	clrf	postinc0,c
   548  002FDE  06E8               	decf	wreg,f,c
   549  002FE0  E1FD               	bnz	clear_0
   550                           
   551                           ; Clear objects allocated to BANK2 (88 bytes)
   552  002FE2  EE02  F05C         	lfsr	0,__pbssBANK2
   553  002FE6  0E58               	movlw	88
   554  002FE8                     clear_1:
   555  002FE8  6AEE               	clrf	postinc0,c
   556  002FEA  06E8               	decf	wreg,f,c
   557  002FEC  E1FD               	bnz	clear_1
   558                           
   559                           ; Clear objects allocated to BANK1 (30 bytes)
   560  002FEE  EE01  F0C8         	lfsr	0,__pbssBANK1
   561  002FF2  0E1E               	movlw	30
   562  002FF4                     clear_2:
   563  002FF4  6AEE               	clrf	postinc0,c
   564  002FF6  06E8               	decf	wreg,f,c
   565  002FF8  E1FD               	bnz	clear_2
   566                           
   567                           ; Clear objects allocated to BANK0 (9 bytes)
   568  002FFA  EE00  F0F7         	lfsr	0,__pbssBANK0
   569  002FFE  0E09               	movlw	9
   570  003000                     clear_3:
   571  003000  6AEE               	clrf	postinc0,c
   572  003002  06E8               	decf	wreg,f,c
   573  003004  E1FD               	bnz	clear_3
   574  003006                     end_of_initialization:
   575                           	callstack 0
   576  003006                     __end_of__initialization:
   577                           	callstack 0
   578  003006  0E00               	movlw	low (__Lmediumconst shr (0+16))
   579  003008  6EF8               	movwf	tblptru,c
   580  00300A  0100               	movlb	0
   581  00300C  EF68  F01A         	goto	_main	;jump to C main() function
   582                           
   583                           	psect	bssBANK0
   584  0000F7                     __pbssBANK0:
   585                           	callstack 0
   586  0000F7                     _flags:
   587                           	callstack 0
   588  0000F7                     	ds	2
   589  0000F9                     _hour:
   590                           	callstack 0
   591  0000F9                     	ds	2
   592  0000FB                     _day:
   593                           	callstack 0
   594  0000FB                     	ds	1
   595  0000FC                     _month:
   596                           	callstack 0
   597  0000FC                     	ds	1
   598  0000FD                     _year:
   599                           	callstack 0
   600  0000FD                     	ds	1
   601  0000FE                     _minutes:
   602                           	callstack 0
   603  0000FE                     	ds	1
   604  0000FF                     _hours:
   605                           	callstack 0
   606  0000FF                     	ds	1
   607                           
   608                           	psect	bssBANK1
   609  0001C8                     __pbssBANK1:
   610                           	callstack 0
   611  0001C8                     _nout:
   612                           	callstack 0
   613  0001C8                     	ds	2
   614  0001CA                     _width:
   615                           	callstack 0
   616  0001CA                     	ds	2
   617  0001CC                     _prec:
   618                           	callstack 0
   619  0001CC                     	ds	2
   620  0001CE                     _Year:
   621                           	callstack 0
   622  0001CE                     	ds	2
   623  0001D0                     _Month:
   624                           	callstack 0
   625  0001D0                     	ds	2
   626  0001D2                     _Date:
   627                           	callstack 0
   628  0001D2                     	ds	2
   629  0001D4                     _Day:
   630                           	callstack 0
   631  0001D4                     	ds	2
   632  0001D6                     _min:
   633                           	callstack 0
   634  0001D6                     	ds	2
   635  0001D8                     _sec:
   636                           	callstack 0
   637  0001D8                     	ds	2
   638  0001DA                     _val_luminosidad:
   639                           	callstack 0
   640  0001DA                     	ds	2
   641  0001DC                     _val_intensidad:
   642                           	callstack 0
   643  0001DC                     	ds	2
   644  0001DE                     _value_adc:
   645                           	callstack 0
   646  0001DE                     	ds	2
   647  0001E0                     _val_temp:
   648                           	callstack 0
   649  0001E0                     	ds	2
   650  0001E2                     _val_distancia:
   651                           	callstack 0
   652  0001E2                     	ds	2
   653  0001E4                     _i:
   654                           	callstack 0
   655  0001E4                     	ds	1
   656  0001E5                     _seconds:
   657                           	callstack 0
   658  0001E5                     	ds	1
   659                           
   660                           	psect	dataBANK1
   661  0001E6                     __pdataBANK1:
   662                           	callstack 0
   663  0001E6                     stoa@F1141:
   664                           	callstack 0
   665  0001E6                     	ds	7
   666  0001ED                     Reloj_Calendario@Time:
   667                           	callstack 0
   668  0001ED                     	ds	15
   669                           
   670                           	psect	bssBANK2
   671  00025C                     __pbssBANK2:
   672                           	callstack 0
   673  00025C                     	ds	16
   674  00026C                     	ds	16
   675  00027C                     	ds	16
   676  00028C                     _estado:
   677                           	callstack 0
   678  00028C                     	ds	2
   679  00028E                     _lum_ant:
   680                           	callstack 0
   681  00028E                     	ds	2
   682  000290                     _dist_ant:
   683                           	callstack 0
   684  000290                     	ds	2
   685  000292                     _temp_ant:
   686                           	callstack 0
   687  000292                     	ds	2
   688  000294                     _dbuf:
   689                           	callstack 0
   690  000294                     	ds	32
   691                           
   692                           	psect	dataBANK2
   693  0002B4                     __pdataBANK2:
   694                           	callstack 0
   695  0002B4                     iniciar_emoticones@F3819:
   696                           	callstack 0
   697  0002B4                     	ds	8
   698  0002BC                     iniciar_emoticones@F3817:
   699                           	callstack 0
   700  0002BC                     	ds	8
   701  0002C4                     iniciar_emoticones@F3815:
   702                           	callstack 0
   703  0002C4                     	ds	8
   704  0002CC                     iniciar_emoticones@F3813:
   705                           	callstack 0
   706  0002CC                     	ds	8
   707  0002D4                     Reloj_Calendario@Date:
   708                           	callstack 0
   709  0002D4                     	ds	17
   710                           
   711                           	psect	bssBANK3
   712  000300                     __pbssBANK3:
   713                           	callstack 0
   714  000300                     _var:
   715                           	callstack 0
   716  000300                     	ds	120
   717  000378                     _time:
   718                           	callstack 0
   719  000378                     	ds	60
   720  0003B4                     _date:
   721                           	callstack 0
   722  0003B4                     	ds	60
   723                           
   724                           	psect	cstackBANK2
   725  000200                     __pcstackBANK2:
   726                           	callstack 0
   727  000200                     validar@valor_usart:
   728                           	callstack 0
   729                           
   730                           ; 30 bytes @ 0x0
   731  000200                     	ds	30
   732  00021E                     validar@valor_usart_829:
   733                           	callstack 0
   734                           
   735                           ; 30 bytes @ 0x1E
   736  00021E                     	ds	30
   737  00023C                     validar@valor_usart_831:
   738                           	callstack 0
   739                           
   740                           ; 30 bytes @ 0x3C
   741  00023C                     	ds	30
   742  00025A                     validar@contador:
   743                           	callstack 0
   744                           
   745                           ; 2 bytes @ 0x5A
   746  00025A                     	ds	2
   747                           
   748                           	psect	cstackBANK1
   749  000100                     __pcstackBANK1:
   750                           	callstack 0
   751  000100                     mostrar_estadistica@mensaje_usart_838:
   752                           	callstack 0
   753                           
   754                           ; 100 bytes @ 0x0
   755  000100                     	ds	100
   756  000164                     mostrar_estadistica@mensaje_usart_840:
   757                           	callstack 0
   758                           
   759                           ; 100 bytes @ 0x64
   760  000164                     	ds	100
   761                           
   762                           	psect	cstackBANK0
   763  000060                     __pcstackBANK0:
   764                           	callstack 0
   765  000060                     ?_vfprintf:
   766                           	callstack 0
   767  000060                     vfprintf@fp:
   768                           	callstack 0
   769                           
   770                           ; 2 bytes @ 0x0
   771  000060                     	ds	2
   772  000062                     vfprintf@fmt:
   773                           	callstack 0
   774                           
   775                           ; 2 bytes @ 0x2
   776  000062                     	ds	2
   777  000064                     vfprintf@ap:
   778                           	callstack 0
   779                           
   780                           ; 2 bytes @ 0x4
   781  000064                     	ds	2
   782  000066                     vfprintf@cfmt:
   783                           	callstack 0
   784                           
   785                           ; 2 bytes @ 0x6
   786  000066                     	ds	2
   787  000068                     ?_sprintf:
   788                           	callstack 0
   789  000068                     sprintf@s:
   790                           	callstack 0
   791                           
   792                           ; 2 bytes @ 0x8
   793  000068                     	ds	2
   794  00006A                     sprintf@fmt:
   795                           	callstack 0
   796                           
   797                           ; 2 bytes @ 0xA
   798  00006A                     	ds	8
   799  000072                     sprintf@ap:
   800                           	callstack 0
   801                           
   802                           ; 2 bytes @ 0x12
   803  000072                     	ds	2
   804  000074                     sprintf@f:
   805                           	callstack 0
   806                           
   807                           ; 6 bytes @ 0x14
   808  000074                     	ds	6
   809  00007A                     RTC_obtener_hora@AM_PM:
   810                           	callstack 0
   811  00007A                     imprimir@dist:
   812                           	callstack 0
   813                           
   814                           ; 2 bytes @ 0x1A
   815  00007A                     	ds	1
   816  00007B                     ?_obtener_tiempo_fecha:
   817                           	callstack 0
   818                           
   819                           ; 2 bytes @ 0x1B
   820  00007B                     	ds	1
   821  00007C                     imprimir@temp:
   822                           	callstack 0
   823                           
   824                           ; 2 bytes @ 0x1C
   825  00007C                     	ds	1
   826  00007D                     mostrar_estadistica@sensor:
   827                           	callstack 0
   828                           
   829                           ; 2 bytes @ 0x1D
   830  00007D                     	ds	1
   831  00007E                     imprimir@luz:
   832                           	callstack 0
   833                           
   834                           ; 2 bytes @ 0x1E
   835  00007E                     	ds	1
   836  00007F                     mostrar_estadistica@valor_usart:
   837                           	callstack 0
   838                           
   839                           ; 2 bytes @ 0x1F
   840  00007F                     	ds	1
   841  000080                     ??_imprimir:
   842                           
   843                           ; 1 bytes @ 0x20
   844  000080                     	ds	1
   845  000081                     mostrar_estadistica@mensaje_usart:
   846                           	callstack 0
   847                           
   848                           ; 100 bytes @ 0x21
   849  000081                     	ds	1
   850  000082                     imprimir@aux_dist:
   851                           	callstack 0
   852                           
   853                           ; 16 bytes @ 0x22
   854  000082                     	ds	16
   855  000092                     imprimir@aux_temp:
   856                           	callstack 0
   857                           
   858                           ; 16 bytes @ 0x32
   859  000092                     	ds	16
   860  0000A2                     imprimir@aux_luz:
   861                           	callstack 0
   862                           
   863                           ; 16 bytes @ 0x42
   864  0000A2                     	ds	67
   865  0000E5                     _mostrar_estadistica$2238:
   866                           	callstack 0
   867                           
   868                           ; 2 bytes @ 0x85
   869  0000E5                     	ds	2
   870  0000E7                     ?_validar:
   871                           	callstack 0
   872  0000E7                     validar@temp:
   873                           	callstack 0
   874                           
   875                           ; 2 bytes @ 0x87
   876  0000E7                     	ds	2
   877  0000E9                     validar@distancia:
   878                           	callstack 0
   879                           
   880                           ; 2 bytes @ 0x89
   881  0000E9                     	ds	2
   882  0000EB                     validar@luz:
   883                           	callstack 0
   884                           
   885                           ; 2 bytes @ 0x8B
   886  0000EB                     	ds	2
   887  0000ED                     encender_leds@valor:
   888                           	callstack 0
   889                           
   890                           ; 2 bytes @ 0x8D
   891  0000ED                     	ds	2
   892  0000EF                     ??_principal:
   893                           
   894                           ; 1 bytes @ 0x8F
   895  0000EF                     	ds	2
   896  0000F1                     principal@s_dist:
   897                           	callstack 0
   898                           
   899                           ; 2 bytes @ 0x91
   900  0000F1                     	ds	2
   901  0000F3                     principal@s_temp:
   902                           	callstack 0
   903                           
   904                           ; 2 bytes @ 0x93
   905  0000F3                     	ds	2
   906  0000F5                     principal@s_luz:
   907                           	callstack 0
   908                           
   909                           ; 2 bytes @ 0x95
   910  0000F5                     	ds	2
   911                           
   912                           	psect	cstackCOMRAM
   913  000001                     __pcstackCOMRAM:
   914                           	callstack 0
   915  000001                     ??_LCD_Command:
   916  000001                     ??_LCD_Char:
   917  000001                     ?_obtener_distancia:
   918                           	callstack 0
   919  000001                     ?_strlen:
   920                           	callstack 0
   921  000001                     ?_isupper:
   922                           	callstack 0
   923  000001                     ?_isalpha:
   924                           	callstack 0
   925  000001                     ?_islower:
   926                           	callstack 0
   927  000001                     ?_adc_read10Bits:
   928                           	callstack 0
   929  000001                     ?___wmul:
   930                           	callstack 0
   931  000001                     ?___xxtofl:
   932                           	callstack 0
   933  000001                     ?___aodiv:
   934                           	callstack 0
   935  000001                     ?___aomod:
   936                           	callstack 0
   937  000001                     USART_TxChar@out:
   938                           	callstack 0
   939  000001                     I2C_Read@flag:
   940                           	callstack 0
   941  000001                     I2C_Write@data:
   942                           	callstack 0
   943  000001                     adc_config@canal:
   944                           	callstack 0
   945  000001                     ___wmul@multiplier:
   946                           	callstack 0
   947  000001                     isalpha@c:
   948                           	callstack 0
   949  000001                     isupper@c:
   950                           	callstack 0
   951  000001                     fputc@c:
   952                           	callstack 0
   953  000001                     strlen@s:
   954                           	callstack 0
   955  000001                     islower@c:
   956                           	callstack 0
   957  000001                     ___xxtofl@val:
   958                           	callstack 0
   959  000001                     ___aodiv@dividend:
   960                           	callstack 0
   961  000001                     ___aomod@dividend:
   962                           	callstack 0
   963                           
   964                           ; 8 bytes @ 0x0
   965  000001                     	ds	1
   966  000002                     LCD_Command@cmd:
   967                           	callstack 0
   968  000002                     LCD_Char@dat:
   969                           	callstack 0
   970  000002                     I2C_Read@buffer:
   971                           	callstack 0
   972  000002                     I2C_Start@slave_write_address:
   973                           	callstack 0
   974  000002                     I2C_Repeated_Start@slave_read_address:
   975                           	callstack 0
   976  000002                     USART_SendString@out:
   977                           	callstack 0
   978                           
   979                           ; 2 bytes @ 0x1
   980  000002                     	ds	1
   981  000003                     ??_inicializar_lcd:
   982  000003                     ??_isupper:
   983  000003                     ??_isalpha:
   984  000003                     ??_islower:
   985  000003                     ??_adc_read10Bits:
   986  000003                     ??_RTC_Read_Clock:
   987  000003                     ??_RTC_Read_Calendar:
   988  000003                     mostrar_emoticon@i:
   989                           	callstack 0
   990  000003                     adc_init10Bits@canal:
   991                           	callstack 0
   992  000003                     LCD_String@msg:
   993                           	callstack 0
   994  000003                     LCD_Custom_Char@msg:
   995                           	callstack 0
   996  000003                     obtener_distancia@cm:
   997                           	callstack 0
   998  000003                     ___wmul@multiplicand:
   999                           	callstack 0
  1000  000003                     fputc@fp:
  1001                           	callstack 0
  1002  000003                     strlen@a:
  1003                           	callstack 0
  1004                           
  1005                           ; 2 bytes @ 0x2
  1006  000003                     	ds	1
  1007  000004                     ??_pines_ConfigurarHora:
  1008  000004                     RTC_Read_Clock@read_clock_address:
  1009                           	callstack 0
  1010  000004                     RTC_Read_Calendar@read_calendar_address:
  1011                           	callstack 0
  1012                           
  1013                           ; 1 bytes @ 0x3
  1014  000004                     	ds	1
  1015  000005                     ??_fputc:
  1016  000005                     ??___xxtofl:
  1017  000005                     ?_sensor_distancia:
  1018                           	callstack 0
  1019  000005                     LCD_String_xy@pos:
  1020                           	callstack 0
  1021  000005                     LCD_Custom_Char@loc:
  1022                           	callstack 0
  1023  000005                     adc_read10Bits@value_adc:
  1024                           	callstack 0
  1025  000005                     ___wmul@product:
  1026                           	callstack 0
  1027  000005                     strcpy@dest:
  1028                           	callstack 0
  1029                           
  1030                           ; 2 bytes @ 0x4
  1031  000005                     	ds	1
  1032  000006                     LCD_Custom_Char@i:
  1033                           	callstack 0
  1034  000006                     LCD_String_xy@msg:
  1035                           	callstack 0
  1036                           
  1037                           ; 2 bytes @ 0x5
  1038  000006                     	ds	1
  1039  000007                     ?_toupper:
  1040                           	callstack 0
  1041  000007                     ?___lwdiv:
  1042                           	callstack 0
  1043  000007                     ___lwdiv@dividend:
  1044                           	callstack 0
  1045  000007                     strcpy@src:
  1046                           	callstack 0
  1047  000007                     toupper@c:
  1048                           	callstack 0
  1049  000007                     iniciar_emoticones@temperatura:
  1050                           	callstack 0
  1051                           
  1052                           ; 8 bytes @ 0x6
  1053  000007                     	ds	1
  1054  000008                     LCD_String_xy@row:
  1055                           	callstack 0
  1056                           
  1057                           ; 1 bytes @ 0x7
  1058  000008                     	ds	1
  1059  000009                     ??_toupper:
  1060  000009                     LCD_String_xy@location:
  1061                           	callstack 0
  1062  000009                     ___xxtofl@sign:
  1063                           	callstack 0
  1064  000009                     ___lwdiv@divisor:
  1065                           	callstack 0
  1066  000009                     strcpy@s:
  1067                           	callstack 0
  1068  000009                     ___aodiv@divisor:
  1069                           	callstack 0
  1070  000009                     ___aomod@divisor:
  1071                           	callstack 0
  1072                           
  1073                           ; 8 bytes @ 0x8
  1074  000009                     	ds	1
  1075  00000A                     ?_stoa:
  1076                           	callstack 0
  1077  00000A                     ___xxtofl@exp:
  1078                           	callstack 0
  1079  00000A                     stoa@fp:
  1080                           	callstack 0
  1081  00000A                     fputs@s:
  1082                           	callstack 0
  1083                           
  1084                           ; 2 bytes @ 0x9
  1085  00000A                     	ds	1
  1086  00000B                     ___lwdiv@quotient:
  1087                           	callstack 0
  1088  00000B                     strcpy@d:
  1089                           	callstack 0
  1090  00000B                     ___xxtofl@arg:
  1091                           	callstack 0
  1092                           
  1093                           ; 4 bytes @ 0xA
  1094  00000B                     	ds	1
  1095  00000C                     stoa@s:
  1096                           	callstack 0
  1097  00000C                     fputs@fp:
  1098                           	callstack 0
  1099                           
  1100                           ; 2 bytes @ 0xB
  1101  00000C                     	ds	1
  1102  00000D                     ?_strcat:
  1103                           	callstack 0
  1104  00000D                     ___lwdiv@counter:
  1105                           	callstack 0
  1106  00000D                     strcat@dest:
  1107                           	callstack 0
  1108  00000D                     _toupper$1979:
  1109                           	callstack 0
  1110                           
  1111                           ; 2 bytes @ 0xC
  1112  00000D                     	ds	1
  1113  00000E                     ??_stoa:
  1114  00000E                     ?_sensor_luz:
  1115                           	callstack 0
  1116  00000E                     fputs@c:
  1117                           	callstack 0
  1118                           
  1119                           ; 1 bytes @ 0xD
  1120  00000E                     	ds	1
  1121  00000F                     ?___fldiv:
  1122                           	callstack 0
  1123  00000F                     ?___flmul:
  1124                           	callstack 0
  1125  00000F                     fputs@i:
  1126                           	callstack 0
  1127  00000F                     strcat@src:
  1128                           	callstack 0
  1129  00000F                     ___fldiv@b:
  1130                           	callstack 0
  1131  00000F                     ___flmul@b:
  1132                           	callstack 0
  1133  00000F                     stoa@nuls:
  1134                           	callstack 0
  1135  00000F                     iniciar_emoticones@distancia:
  1136                           	callstack 0
  1137                           
  1138                           ; 8 bytes @ 0xE
  1139  00000F                     	ds	1
  1140  000010                     ??_sensor_luz:
  1141                           
  1142                           ; 1 bytes @ 0xF
  1143  000010                     	ds	1
  1144  000011                     ?_pad:
  1145                           	callstack 0
  1146  000011                     ___aodiv@counter:
  1147                           	callstack 0
  1148  000011                     ___aomod@counter:
  1149                           	callstack 0
  1150  000011                     pad@fp:
  1151                           	callstack 0
  1152                           
  1153                           ; 2 bytes @ 0x10
  1154  000011                     	ds	1
  1155  000012                     ___aodiv@sign:
  1156                           	callstack 0
  1157  000012                     ___aomod@sign:
  1158                           	callstack 0
  1159                           
  1160                           ; 1 bytes @ 0x11
  1161  000012                     	ds	1
  1162  000013                     ?_abs:
  1163                           	callstack 0
  1164  000013                     pad@buf:
  1165                           	callstack 0
  1166  000013                     abs@a:
  1167                           	callstack 0
  1168  000013                     ___fldiv@a:
  1169                           	callstack 0
  1170  000013                     ___flmul@a:
  1171                           	callstack 0
  1172  000013                     ___aodiv@quotient:
  1173                           	callstack 0
  1174                           
  1175                           ; 8 bytes @ 0x12
  1176  000013                     	ds	2
  1177  000015                     ??_abs:
  1178  000015                     pad@p:
  1179                           	callstack 0
  1180                           
  1181                           ; 2 bytes @ 0x14
  1182  000015                     	ds	1
  1183  000016                     stoa@i:
  1184                           	callstack 0
  1185                           
  1186                           ; 2 bytes @ 0x15
  1187  000016                     	ds	1
  1188  000017                     ??___fldiv:
  1189  000017                     ??___flmul:
  1190  000017                     ??_pad:
  1191  000017                     iniciar_emoticones@luz:
  1192                           	callstack 0
  1193                           
  1194                           ; 8 bytes @ 0x16
  1195  000017                     	ds	1
  1196  000018                     pad@i:
  1197                           	callstack 0
  1198  000018                     stoa@w:
  1199                           	callstack 0
  1200                           
  1201                           ; 2 bytes @ 0x17
  1202  000018                     	ds	2
  1203  00001A                     pad@w:
  1204                           	callstack 0
  1205  00001A                     stoa@cp:
  1206                           	callstack 0
  1207                           
  1208                           ; 2 bytes @ 0x19
  1209  00001A                     	ds	1
  1210  00001B                     ___flmul@sign:
  1211                           	callstack 0
  1212  00001B                     ___fldiv@rem:
  1213                           	callstack 0
  1214                           
  1215                           ; 4 bytes @ 0x1A
  1216  00001B                     	ds	1
  1217  00001C                     ?_dtoa:
  1218                           	callstack 0
  1219  00001C                     ?_xtoa:
  1220                           	callstack 0
  1221  00001C                     dtoa@fp:
  1222                           	callstack 0
  1223  00001C                     stoa@p:
  1224                           	callstack 0
  1225  00001C                     xtoa@fp:
  1226                           	callstack 0
  1227  00001C                     ___flmul@grs:
  1228                           	callstack 0
  1229                           
  1230                           ; 4 bytes @ 0x1B
  1231  00001C                     	ds	2
  1232  00001E                     stoa@l:
  1233                           	callstack 0
  1234  00001E                     dtoa@d:
  1235                           	callstack 0
  1236  00001E                     xtoa@d:
  1237                           	callstack 0
  1238                           
  1239                           ; 8 bytes @ 0x1D
  1240  00001E                     	ds	1
  1241  00001F                     ___fldiv@sign:
  1242                           	callstack 0
  1243  00001F                     iniciar_emoticones@todo_bien:
  1244                           	callstack 0
  1245                           
  1246                           ; 8 bytes @ 0x1E
  1247  00001F                     	ds	1
  1248  000020                     ___flmul@aexp:
  1249                           	callstack 0
  1250  000020                     ___fldiv@new_exp:
  1251                           	callstack 0
  1252                           
  1253                           ; 2 bytes @ 0x1F
  1254  000020                     	ds	1
  1255  000021                     ___flmul@bexp:
  1256                           	callstack 0
  1257                           
  1258                           ; 1 bytes @ 0x20
  1259  000021                     	ds	1
  1260  000022                     ___fldiv@grs:
  1261                           	callstack 0
  1262  000022                     ___flmul@prod:
  1263                           	callstack 0
  1264                           
  1265                           ; 4 bytes @ 0x21
  1266  000022                     	ds	4
  1267  000026                     ??_dtoa:
  1268  000026                     ___fldiv@bexp:
  1269                           	callstack 0
  1270  000026                     xtoa@x:
  1271                           	callstack 0
  1272  000026                     ___flmul@temp:
  1273                           	callstack 0
  1274                           
  1275                           ; 2 bytes @ 0x25
  1276  000026                     	ds	1
  1277  000027                     ??_xtoa:
  1278  000027                     ___fldiv@aexp:
  1279                           	callstack 0
  1280                           
  1281                           ; 1 bytes @ 0x26
  1282  000027                     	ds	1
  1283  000028                     ?___fladd:
  1284                           	callstack 0
  1285  000028                     ?___fltol:
  1286                           	callstack 0
  1287  000028                     ___fltol@f1:
  1288                           	callstack 0
  1289  000028                     ___fladd@b:
  1290                           	callstack 0
  1291                           
  1292                           ; 4 bytes @ 0x27
  1293  000028                     	ds	4
  1294  00002C                     ??___fltol:
  1295  00002C                     ___fladd@a:
  1296                           	callstack 0
  1297                           
  1298                           ; 4 bytes @ 0x2B
  1299  00002C                     	ds	2
  1300  00002E                     _dtoa$1853:
  1301                           	callstack 0
  1302                           
  1303                           ; 2 bytes @ 0x2D
  1304  00002E                     	ds	1
  1305  00002F                     _xtoa$1875:
  1306                           	callstack 0
  1307                           
  1308                           ; 2 bytes @ 0x2E
  1309  00002F                     	ds	1
  1310  000030                     ??___fladd:
  1311  000030                     ___fltol@sign1:
  1312                           	callstack 0
  1313  000030                     dtoa@p:
  1314                           	callstack 0
  1315                           
  1316                           ; 2 bytes @ 0x2F
  1317  000030                     	ds	1
  1318  000031                     ___fltol@exp1:
  1319                           	callstack 0
  1320  000031                     _xtoa$1876:
  1321                           	callstack 0
  1322                           
  1323                           ; 2 bytes @ 0x30
  1324  000031                     	ds	1
  1325  000032                     ?_sensor_temperatura:
  1326                           	callstack 0
  1327  000032                     dtoa@w:
  1328                           	callstack 0
  1329                           
  1330                           ; 2 bytes @ 0x31
  1331  000032                     	ds	1
  1332  000033                     xtoa@p:
  1333                           	callstack 0
  1334                           
  1335                           ; 2 bytes @ 0x32
  1336  000033                     	ds	1
  1337  000034                     ___fladd@signs:
  1338                           	callstack 0
  1339  000034                     dtoa@s:
  1340                           	callstack 0
  1341                           
  1342                           ; 2 bytes @ 0x33
  1343  000034                     	ds	1
  1344  000035                     ___fladd@aexp:
  1345                           	callstack 0
  1346  000035                     xtoa@w:
  1347                           	callstack 0
  1348                           
  1349                           ; 2 bytes @ 0x34
  1350  000035                     	ds	1
  1351  000036                     ___fladd@bexp:
  1352                           	callstack 0
  1353  000036                     dtoa@n:
  1354                           	callstack 0
  1355                           
  1356                           ; 8 bytes @ 0x35
  1357  000036                     	ds	1
  1358  000037                     ___fladd@grs:
  1359                           	callstack 0
  1360  000037                     xtoa@n:
  1361                           	callstack 0
  1362                           
  1363                           ; 8 bytes @ 0x36
  1364  000037                     	ds	1
  1365  000038                     USART_Init@baud_rate:
  1366                           	callstack 0
  1367                           
  1368                           ; 4 bytes @ 0x37
  1369  000038                     	ds	4
  1370  00003C                     USART_Init@temp:
  1371                           	callstack 0
  1372                           
  1373                           ; 4 bytes @ 0x3B
  1374  00003C                     	ds	2
  1375  00003E                     dtoa@i:
  1376                           	callstack 0
  1377                           
  1378                           ; 2 bytes @ 0x3D
  1379  00003E                     	ds	1
  1380  00003F                     xtoa@i:
  1381                           	callstack 0
  1382                           
  1383                           ; 2 bytes @ 0x3E
  1384  00003F                     	ds	2
  1385  000041                     xtoa@c:
  1386                           	callstack 0
  1387                           
  1388                           ; 2 bytes @ 0x40
  1389  000041                     	ds	2
  1390  000043                     ?_vfpfcnvrt:
  1391                           	callstack 0
  1392  000043                     vfpfcnvrt@fp:
  1393                           	callstack 0
  1394                           
  1395                           ; 2 bytes @ 0x42
  1396  000043                     	ds	2
  1397  000045                     vfpfcnvrt@fmt:
  1398                           	callstack 0
  1399                           
  1400                           ; 2 bytes @ 0x44
  1401  000045                     	ds	2
  1402  000047                     vfpfcnvrt@ap:
  1403                           	callstack 0
  1404                           
  1405                           ; 2 bytes @ 0x46
  1406  000047                     	ds	2
  1407  000049                     ??_vfpfcnvrt:
  1408                           
  1409                           ; 1 bytes @ 0x48
  1410  000049                     	ds	4
  1411  00004D                     vfpfcnvrt@ll:
  1412                           	callstack 0
  1413                           
  1414                           ; 8 bytes @ 0x4C
  1415  00004D                     	ds	8
  1416  000055                     vfpfcnvrt@llu:
  1417                           	callstack 0
  1418                           
  1419                           ; 8 bytes @ 0x54
  1420  000055                     	ds	8
  1421  00005D                     vfpfcnvrt@cp:
  1422                           	callstack 0
  1423                           
  1424                           ; 2 bytes @ 0x5C
  1425  00005D                     	ds	2
  1426  00005F                     vfpfcnvrt@c:
  1427                           	callstack 0
  1428                           
  1429                           ; 1 bytes @ 0x5E
  1430  00005F                     	ds	1
  1431  000060                     
  1432                           ; 1 bytes @ 0x5F
  1433 ;;
  1434 ;;Main: autosize = 0, tempsize = 0, incstack = 0, save=0
  1435 ;;
  1436 ;; *************** function _main *****************
  1437 ;; Defined at:
  1438 ;;		line 52 in file "Principal.c"
  1439 ;; Parameters:    Size  Location     Type
  1440 ;;		None
  1441 ;; Auto vars:     Size  Location     Type
  1442 ;;		None
  1443 ;; Return value:  Size  Location     Type
  1444 ;;                  1    wreg      void 
  1445 ;; Registers used:
  1446 ;;		wreg, fsr0l, fsr0h, fsr1l, fsr1h, fsr2l, fsr2h, status,2, status,0, tblptrl, tblptrh, tblptru, prodl, prodh, cstack
  1447 ;; Tracked objects:
  1448 ;;		On entry : 0/0
  1449 ;;		On exit  : 0/0
  1450 ;;		Unchanged: 0/0
  1451 ;; Data sizes:     COMRAM   BANK0   BANK1   BANK2   BANK3   BANK4   BANK5   BANK6   BANK7
  1452 ;;      Params:         0       0       0       0       0       0       0       0       0
  1453 ;;      Locals:         0       0       0       0       0       0       0       0       0
  1454 ;;      Temps:          0       0       0       0       0       0       0       0       0
  1455 ;;      Totals:         0       0       0       0       0       0       0       0       0
  1456 ;;Total ram usage:        0 bytes
  1457 ;; Hardware stack levels required when called: 13
  1458 ;; This function calls:
  1459 ;;		_USART_Init
  1460 ;;		_inicializar_lcd
  1461 ;;		_iniciar_emoticones
  1462 ;;		_iniciar_pic
  1463 ;;		_init_leds
  1464 ;;		_principal
  1465 ;; This function is called by:
  1466 ;;		Startup code after reset
  1467 ;; This function uses a non-reentrant model
  1468 ;;
  1469                           
  1470                           	psect	text0
  1471  0034D0                     __ptext0:
  1472                           	callstack 0
  1473  0034D0                     _main:
  1474                           	callstack 18
  1475  0034D0                     
  1476                           ;Principal.c: 53:     USART_Init(9600);
  1477  0034D0  0E80               	movlw	128
  1478  0034D2  6E38               	movwf	USART_Init@baud_rate^0,c
  1479  0034D4  0E25               	movlw	37
  1480  0034D6  6E39               	movwf	(USART_Init@baud_rate+1)^0,c
  1481  0034D8  0E00               	movlw	0
  1482  0034DA  6E3A               	movwf	(USART_Init@baud_rate+2)^0,c
  1483  0034DC  0E00               	movlw	0
  1484  0034DE  6E3B               	movwf	(USART_Init@baud_rate+3)^0,c
  1485  0034E0  EC38  F016         	call	_USART_Init	;wreg free
  1486                           
  1487                           ;Principal.c: 54:     iniciar_pic();
  1488  0034E4  EC3F  F01C         	call	_iniciar_pic	;wreg free
  1489                           
  1490                           ;Principal.c: 55:     inicializar_lcd();
  1491  0034E8  EC4F  F01B         	call	_inicializar_lcd	;wreg free
  1492  0034EC                     
  1493                           ;Principal.c: 56:     init_leds();
  1494  0034EC  ECB2  F01C         	call	_init_leds	;wreg free
  1495  0034F0                     
  1496                           ;Principal.c: 57:     iniciar_emoticones();
  1497  0034F0  EC0C  F017         	call	_iniciar_emoticones	;wreg free
  1498  0034F4                     
  1499                           ;Principal.c: 58:     ADCON1 = 0b1101;
  1500  0034F4  0E0D               	movlw	13
  1501  0034F6  6EC1               	movwf	193,c	;volatile
  1502  0034F8                     
  1503                           ;Principal.c: 59:     estado = 1;
  1504  0034F8  0E00               	movlw	0
  1505  0034FA  0102               	movlb	2	; () banked
  1506  0034FC  6F8D               	movwf	(_estado+1)& (0+255),b
  1507  0034FE  0E01               	movlw	1
  1508  003500  6F8C               	movwf	_estado& (0+255),b
  1509  003502                     l4987:
  1510                           
  1511                           ;Principal.c: 61:         principal();
  1512  003502  EC98  F014         	call	_principal	;wreg free
  1513  003506  EF81  F01A         	goto	l4987
  1514  00350A  EF00  F000         	goto	start
  1515  00350E                     __end_of_main:
  1516                           	callstack 0
  1517                           
  1518 ;; *************** function _principal *****************
  1519 ;; Defined at:
  1520 ;;		line 68 in file "Principal.c"
  1521 ;; Parameters:    Size  Location     Type
  1522 ;;		None
  1523 ;; Auto vars:     Size  Location     Type
  1524 ;;  s_luz           2  149[BANK0 ] int 
  1525 ;;  s_temp          2  147[BANK0 ] int 
  1526 ;;  s_dist          2  145[BANK0 ] int 
  1527 ;; Return value:  Size  Location     Type
  1528 ;;                  1    wreg      void 
  1529 ;; Registers used:
  1530 ;;		wreg, fsr0l, fsr0h, fsr1l, fsr1h, fsr2l, fsr2h, status,2, status,0, tblptrl, tblptrh, tblptru, prodl, prodh, cstack
  1531 ;; Tracked objects:
  1532 ;;		On entry : 0/0
  1533 ;;		On exit  : 0/0
  1534 ;;		Unchanged: 0/0
  1535 ;; Data sizes:     COMRAM   BANK0   BANK1   BANK2   BANK3   BANK4   BANK5   BANK6   BANK7
  1536 ;;      Params:         0       0       0       0       0       0       0       0       0
  1537 ;;      Locals:         0       6       0       0       0       0       0       0       0
  1538 ;;      Temps:          0       2       0       0       0       0       0       0       0
  1539 ;;      Totals:         0       8       0       0       0       0       0       0       0
  1540 ;;Total ram usage:        8 bytes
  1541 ;; Hardware stack levels used: 1
  1542 ;; Hardware stack levels required when called: 12
  1543 ;; This function calls:
  1544 ;;		_encender_leds
  1545 ;;		_imprimir
  1546 ;;		_sensor_distancia
  1547 ;;		_sensor_luz
  1548 ;;		_sensor_temperatura
  1549 ;;		_validar
  1550 ;; This function is called by:
  1551 ;;		_main
  1552 ;; This function uses a non-reentrant model
  1553 ;;
  1554                           
  1555                           	psect	text1
  1556  002930                     __ptext1:
  1557                           	callstack 0
  1558  002930                     _principal:
  1559                           	callstack 18
  1560  002930  0E00               	movlw	0
  1561  002932  0100               	movlb	0	; () banked
  1562  002934  6FF4               	movwf	(principal@s_temp+1)& (0+255),b
  1563  002936  0E00               	movlw	0
  1564  002938  6FF3               	movwf	principal@s_temp& (0+255),b
  1565  00293A  0E00               	movlw	0
  1566  00293C  6FF6               	movwf	(principal@s_luz+1)& (0+255),b
  1567  00293E  0E00               	movlw	0
  1568  002940  6FF5               	movwf	principal@s_luz& (0+255),b
  1569  002942                     
  1570                           ; BSR set to: 0
  1571                           ;Principal.c: 71:     s_dist = sensor_distancia();
  1572  002942  EC82  F016         	call	_sensor_distancia	;wreg free
  1573  002946  C005  F0F1         	movff	?_sensor_distancia,principal@s_dist
  1574  00294A  C006  F0F2         	movff	?_sensor_distancia+1,principal@s_dist+1
  1575  00294E                     
  1576                           ;Principal.c: 72:     s_temp = sensor_temperatura();
  1577  00294E  EC8D  F017         	call	_sensor_temperatura	;wreg free
  1578  002952  C032  F0F3         	movff	?_sensor_temperatura,principal@s_temp
  1579  002956  C033  F0F4         	movff	?_sensor_temperatura+1,principal@s_temp+1
  1580  00295A                     
  1581                           ;Principal.c: 73:     s_luz = sensor_luz();
  1582  00295A  EC4D  F017         	call	_sensor_luz	;wreg free
  1583  00295E  C00E  F0F5         	movff	?_sensor_luz,principal@s_luz
  1584  002962  C00F  F0F6         	movff	?_sensor_luz+1,principal@s_luz+1
  1585                           
  1586                           ;Principal.c: 74:     while(PORTAbits.RA4 == 1) {
  1587  002966  EFC4  F014         	goto	l4869
  1588  00296A                     l4865:
  1589                           
  1590                           ;Principal.c: 75:         estado++;
  1591  00296A  0102               	movlb	2	; () banked
  1592  00296C  4B8C               	infsnz	_estado& (0+255),f,b
  1593  00296E  2B8D               	incf	(_estado+1)& (0+255),f,b
  1594  002970                     
  1595                           ; BSR set to: 2
  1596                           ;Principal.c: 76:         _delay((unsigned long)((200)*(8000000/4000.0)));
  1597  002970  0E03               	movlw	3
  1598  002972  0100               	movlb	0	; () banked
  1599  002974  6FF0               	movwf	(??_principal+1)& (0+255),b
  1600  002976  0E08               	movlw	8
  1601  002978  6FEF               	movwf	??_principal& (0+255),b
  1602  00297A  0E77               	movlw	119
  1603  00297C                     u5497:
  1604  00297C  2EE8               	decfsz	wreg,f,c
  1605  00297E  D7FE               	bra	u5497
  1606  002980  2FEF               	decfsz	??_principal& (0+255),f,b
  1607  002982  D7FC               	bra	u5497
  1608  002984  2FF0               	decfsz	(??_principal+1)& (0+255),f,b
  1609  002986  D7FA               	bra	u5497
  1610  002988                     l4869:
  1611                           
  1612                           ;Principal.c: 74:     while(PORTAbits.RA4 == 1) {
  1613  002988  B880               	btfsc	128,4,c	;volatile
  1614  00298A  EFC9  F014         	goto	u5141
  1615  00298E  EFCB  F014         	goto	u5140
  1616  002992                     u5141:
  1617  002992  EFB5  F014         	goto	l4865
  1618  002996                     u5140:
  1619  002996                     
  1620                           ;Principal.c: 78:     if(estado > 2){
  1621  002996  0102               	movlb	2	; () banked
  1622  002998  BF8D               	btfsc	(_estado+1)& (0+255),7,b
  1623  00299A  EFD8  F014         	goto	u5151
  1624  00299E  518D               	movf	(_estado+1)& (0+255),w,b
  1625  0029A0  E109               	bnz	u5150
  1626  0029A2  0E03               	movlw	3
  1627  0029A4  5D8C               	subwf	_estado& (0+255),w,b
  1628  0029A6  A0D8               	btfss	status,0,c
  1629  0029A8  EFD8  F014         	goto	u5151
  1630  0029AC  EFDA  F014         	goto	u5150
  1631  0029B0                     u5151:
  1632  0029B0  EFDE  F014         	goto	l4875
  1633  0029B4                     u5150:
  1634  0029B4                     
  1635                           ; BSR set to: 2
  1636                           ;Principal.c: 79:             estado = 1;
  1637  0029B4  0E00               	movlw	0
  1638  0029B6  6F8D               	movwf	(_estado+1)& (0+255),b
  1639  0029B8  0E01               	movlw	1
  1640  0029BA  6F8C               	movwf	_estado& (0+255),b
  1641  0029BC                     l4875:
  1642                           
  1643                           ; BSR set to: 2
  1644                           ;Principal.c: 81:     if (estado == 1){
  1645  0029BC  058C               	decf	_estado& (0+255),w,b
  1646  0029BE  118D               	iorwf	(_estado+1)& (0+255),w,b
  1647  0029C0  A4D8               	btfss	status,2,c
  1648  0029C2  EFE5  F014         	goto	u5161
  1649  0029C6  EFE7  F014         	goto	u5160
  1650  0029CA                     u5161:
  1651  0029CA  EFF5  F014         	goto	l4879
  1652  0029CE                     u5160:
  1653  0029CE                     
  1654                           ; BSR set to: 2
  1655                           ;Principal.c: 82:           imprimir(s_dist, s_temp, s_luz);
  1656  0029CE  C0F1  F07A         	movff	principal@s_dist,imprimir@dist
  1657  0029D2  C0F2  F07B         	movff	principal@s_dist+1,imprimir@dist+1
  1658  0029D6  C0F3  F07C         	movff	principal@s_temp,imprimir@temp
  1659  0029DA  C0F4  F07D         	movff	principal@s_temp+1,imprimir@temp+1
  1660  0029DE  C0F5  F07E         	movff	principal@s_luz,imprimir@luz
  1661  0029E2  C0F6  F07F         	movff	principal@s_luz+1,imprimir@luz+1
  1662  0029E6  EC23  F014         	call	_imprimir	;wreg free
  1663  0029EA                     l4879:
  1664                           
  1665                           ;Principal.c: 84:     encender_leds(validar(s_temp, s_dist, s_luz));
  1666  0029EA  C0F3  F0E7         	movff	principal@s_temp,validar@temp
  1667  0029EE  C0F4  F0E8         	movff	principal@s_temp+1,validar@temp+1
  1668  0029F2  C0F1  F0E9         	movff	principal@s_dist,validar@distancia
  1669  0029F6  C0F2  F0EA         	movff	principal@s_dist+1,validar@distancia+1
  1670  0029FA  C0F5  F0EB         	movff	principal@s_luz,validar@luz
  1671  0029FE  C0F6  F0EC         	movff	principal@s_luz+1,validar@luz+1
  1672  002A02  EC17  F00F         	call	_validar	;wreg free
  1673  002A06  C0E7  F0ED         	movff	?_validar,encender_leds@valor
  1674  002A0A  C0E8  F0EE         	movff	?_validar+1,encender_leds@valor+1
  1675  002A0E  ECCB  F016         	call	_encender_leds	;wreg free
  1676  002A12  0012               	return		;funcret
  1677  002A14                     __end_of_principal:
  1678                           	callstack 0
  1679                           
  1680 ;; *************** function _validar *****************
  1681 ;; Defined at:
  1682 ;;		line 77 in file "Leds.c"
  1683 ;; Parameters:    Size  Location     Type
  1684 ;;  temp            2  135[BANK0 ] int 
  1685 ;;  distancia       2  137[BANK0 ] int 
  1686 ;;  luz             2  139[BANK0 ] int 
  1687 ;; Auto vars:     Size  Location     Type
  1688 ;;  valor_usart    30   60[BANK2 ] unsigned char [30]
  1689 ;;  valor_usart    30   30[BANK2 ] unsigned char [30]
  1690 ;;  valor_usart    30    0[BANK2 ] unsigned char [30]
  1691 ;;  contador        2   90[BANK2 ] int 
  1692 ;; Return value:  Size  Location     Type
  1693 ;;                  2  135[BANK0 ] int 
  1694 ;; Registers used:
  1695 ;;		wreg, fsr1l, fsr1h, fsr2l, fsr2h, status,2, status,0, tblptrl, tblptrh, tblptru, prodl, prodh, cstack
  1696 ;; Tracked objects:
  1697 ;;		On entry : 0/0
  1698 ;;		On exit  : 0/0
  1699 ;;		Unchanged: 0/0
  1700 ;; Data sizes:     COMRAM   BANK0   BANK1   BANK2   BANK3   BANK4   BANK5   BANK6   BANK7
  1701 ;;      Params:         0       6       0       0       0       0       0       0       0
  1702 ;;      Locals:         0       0       0      92       0       0       0       0       0
  1703 ;;      Temps:          0       0       0       0       0       0       0       0       0
  1704 ;;      Totals:         0       6       0      92       0       0       0       0       0
  1705 ;;Total ram usage:       98 bytes
  1706 ;; Hardware stack levels used: 1
  1707 ;; Hardware stack levels required when called: 11
  1708 ;; This function calls:
  1709 ;;		_mostrar_emoticon
  1710 ;;		_mostrar_estadistica
  1711 ;;		_sprintf
  1712 ;; This function is called by:
  1713 ;;		_principal
  1714 ;; This function uses a non-reentrant model
  1715 ;;
  1716                           
  1717                           	psect	text2
  1718  001E2E                     __ptext2:
  1719                           	callstack 0
  1720  001E2E                     _validar:
  1721                           	callstack 18
  1722  001E2E                     
  1723                           ;Leds.c: 78:     int contador = 0;
  1724  001E2E  0E00               	movlw	0
  1725  001E30  0102               	movlb	2	; () banked
  1726  001E32  6F5B               	movwf	(validar@contador+1)& (0+255),b
  1727  001E34  0E00               	movlw	0
  1728  001E36  6F5A               	movwf	validar@contador& (0+255),b
  1729  001E38                     
  1730                           ; BSR set to: 2
  1731                           ;Leds.c: 80:     if (temp < 17 || temp > 30) {
  1732  001E38  0100               	movlb	0	; () banked
  1733  001E3A  BFE8               	btfsc	(validar@temp+1)& (0+255),7,b
  1734  001E3C  EF29  F00F         	goto	u4261
  1735  001E40  51E8               	movf	(validar@temp+1)& (0+255),w,b
  1736  001E42  E109               	bnz	u4260
  1737  001E44  0E11               	movlw	17
  1738  001E46  5DE7               	subwf	validar@temp& (0+255),w,b
  1739  001E48  A0D8               	btfss	status,0,c
  1740  001E4A  EF29  F00F         	goto	u4261
  1741  001E4E  EF2B  F00F         	goto	u4260
  1742  001E52                     u4261:
  1743  001E52  EF39  F00F         	goto	l4357
  1744  001E56                     u4260:
  1745  001E56                     
  1746                           ; BSR set to: 0
  1747  001E56  BFE8               	btfsc	(validar@temp+1)& (0+255),7,b
  1748  001E58  EF37  F00F         	goto	u4271
  1749  001E5C  51E8               	movf	(validar@temp+1)& (0+255),w,b
  1750  001E5E  E109               	bnz	u4270
  1751  001E60  0E1F               	movlw	31
  1752  001E62  5DE7               	subwf	validar@temp& (0+255),w,b
  1753  001E64  A0D8               	btfss	status,0,c
  1754  001E66  EF37  F00F         	goto	u4271
  1755  001E6A  EF39  F00F         	goto	u4270
  1756  001E6E                     u4271:
  1757  001E6E  EF6C  F00F         	goto	l4367
  1758  001E72                     u4270:
  1759  001E72                     l4357:
  1760                           
  1761                           ; BSR set to: 0
  1762                           ;Leds.c: 82:         if (temp != temp_ant) {
  1763  001E72  0102               	movlb	2	; () banked
  1764  001E74  5192               	movf	_temp_ant& (0+255),w,b
  1765  001E76  0100               	movlb	0	; () banked
  1766  001E78  19E7               	xorwf	validar@temp& (0+255),w,b
  1767  001E7A  E10B               	bnz	u4280
  1768  001E7C  0102               	movlb	2	; () banked
  1769  001E7E  5193               	movf	(_temp_ant+1)& (0+255),w,b
  1770  001E80  0100               	movlb	0	; () banked
  1771  001E82  19E8               	xorwf	(validar@temp+1)& (0+255),w,b
  1772  001E84  B4D8               	btfsc	status,2,c
  1773  001E86  EF47  F00F         	goto	u4281
  1774  001E8A  EF49  F00F         	goto	u4280
  1775  001E8E                     u4281:
  1776  001E8E  EF66  F00F         	goto	l4363
  1777  001E92                     u4280:
  1778  001E92                     
  1779                           ; BSR set to: 0
  1780                           ;Leds.c: 83:             char valor_usart[30];;Leds.c: 84:             sprintf(valor_usa
      +                          rt, "%d", temp);
  1781  001E92  0E00               	movlw	low validar@valor_usart
  1782  001E94  6F68               	movwf	sprintf@s& (0+255),b
  1783  001E96  0E02               	movlw	high validar@valor_usart
  1784  001E98  6F69               	movwf	(sprintf@s+1)& (0+255),b
  1785  001E9A  0EC9               	movlw	low STR_5
  1786  001E9C  6F6A               	movwf	sprintf@fmt& (0+255),b
  1787  001E9E  0E08               	movlw	high STR_5
  1788  001EA0  6F6B               	movwf	(sprintf@fmt+1)& (0+255),b
  1789  001EA2  C0E7  F06C         	movff	validar@temp,?_sprintf+4
  1790  001EA6  C0E8  F06D         	movff	validar@temp+1,?_sprintf+5
  1791  001EAA  ECFE  F018         	call	_sprintf	;wreg free
  1792                           
  1793                           ;Leds.c: 85:             mostrar_estadistica(1, valor_usart);
  1794  001EAE  0E00               	movlw	0
  1795  001EB0  0100               	movlb	0	; () banked
  1796  001EB2  6F7E               	movwf	(mostrar_estadistica@sensor+1)& (0+255),b
  1797  001EB4  0E01               	movlw	1
  1798  001EB6  6F7D               	movwf	mostrar_estadistica@sensor& (0+255),b
  1799  001EB8  0E00               	movlw	low validar@valor_usart
  1800  001EBA  6F7F               	movwf	mostrar_estadistica@valor_usart& (0+255),b
  1801  001EBC  0E02               	movlw	high validar@valor_usart
  1802  001EBE  6F80               	movwf	(mostrar_estadistica@valor_usart+1)& (0+255),b
  1803  001EC0  ECA5  F013         	call	_mostrar_estadistica	;wreg free
  1804  001EC4                     
  1805                           ;Leds.c: 86:             temp_ant = temp;
  1806  001EC4  C0E7  F292         	movff	validar@temp,_temp_ant
  1807  001EC8  C0E8  F293         	movff	validar@temp+1,_temp_ant+1
  1808  001ECC                     l4363:
  1809                           
  1810                           ;Leds.c: 89:         mostrar_emoticon(5);
  1811  001ECC  0E05               	movlw	5
  1812  001ECE  EC71  F01C         	call	_mostrar_emoticon
  1813  001ED2                     
  1814                           ;Leds.c: 90:         contador++;
  1815  001ED2  0102               	movlb	2	; () banked
  1816  001ED4  4B5A               	infsnz	validar@contador& (0+255),f,b
  1817  001ED6  2B5B               	incf	(validar@contador+1)& (0+255),f,b
  1818  001ED8                     l4367:
  1819                           
  1820                           ;Leds.c: 92:     if (distancia < 40) {
  1821  001ED8  0100               	movlb	0	; () banked
  1822  001EDA  BFEA               	btfsc	(validar@distancia+1)& (0+255),7,b
  1823  001EDC  EF7B  F00F         	goto	u4290
  1824  001EE0  51EA               	movf	(validar@distancia+1)& (0+255),w,b
  1825  001EE2  E107               	bnz	u4291
  1826  001EE4  0E28               	movlw	40
  1827  001EE6  5DE9               	subwf	validar@distancia& (0+255),w,b
  1828  001EE8  B0D8               	btfsc	status,0,c
  1829  001EEA  EF79  F00F         	goto	u4291
  1830  001EEE  EF7B  F00F         	goto	u4290
  1831  001EF2                     u4291:
  1832  001EF2  EFAE  F00F         	goto	l4379
  1833  001EF6                     u4290:
  1834  001EF6                     
  1835                           ; BSR set to: 0
  1836                           ;Leds.c: 94:         if (distancia != dist_ant) {
  1837  001EF6  0102               	movlb	2	; () banked
  1838  001EF8  5190               	movf	_dist_ant& (0+255),w,b
  1839  001EFA  0100               	movlb	0	; () banked
  1840  001EFC  19E9               	xorwf	validar@distancia& (0+255),w,b
  1841  001EFE  E10B               	bnz	u4300
  1842  001F00  0102               	movlb	2	; () banked
  1843  001F02  5191               	movf	(_dist_ant+1)& (0+255),w,b
  1844  001F04  0100               	movlb	0	; () banked
  1845  001F06  19EA               	xorwf	(validar@distancia+1)& (0+255),w,b
  1846  001F08  B4D8               	btfsc	status,2,c
  1847  001F0A  EF89  F00F         	goto	u4301
  1848  001F0E  EF8B  F00F         	goto	u4300
  1849  001F12                     u4301:
  1850  001F12  EFA8  F00F         	goto	l4375
  1851  001F16                     u4300:
  1852  001F16                     
  1853                           ; BSR set to: 0
  1854                           ;Leds.c: 95:             char valor_usart[30];;Leds.c: 96:             sprintf(valor_usa
      +                          rt, "%d", distancia);
  1855  001F16  0E1E               	movlw	low validar@valor_usart_829
  1856  001F18  6F68               	movwf	sprintf@s& (0+255),b
  1857  001F1A  0E02               	movlw	high validar@valor_usart_829
  1858  001F1C  6F69               	movwf	(sprintf@s+1)& (0+255),b
  1859  001F1E  0EC9               	movlw	low STR_5
  1860  001F20  6F6A               	movwf	sprintf@fmt& (0+255),b
  1861  001F22  0E08               	movlw	high STR_5
  1862  001F24  6F6B               	movwf	(sprintf@fmt+1)& (0+255),b
  1863  001F26  C0E9  F06C         	movff	validar@distancia,?_sprintf+4
  1864  001F2A  C0EA  F06D         	movff	validar@distancia+1,?_sprintf+5
  1865  001F2E  ECFE  F018         	call	_sprintf	;wreg free
  1866                           
  1867                           ;Leds.c: 97:             mostrar_estadistica(2, valor_usart);
  1868  001F32  0E00               	movlw	0
  1869  001F34  0100               	movlb	0	; () banked
  1870  001F36  6F7E               	movwf	(mostrar_estadistica@sensor+1)& (0+255),b
  1871  001F38  0E02               	movlw	2
  1872  001F3A  6F7D               	movwf	mostrar_estadistica@sensor& (0+255),b
  1873  001F3C  0E1E               	movlw	low validar@valor_usart_829
  1874  001F3E  6F7F               	movwf	mostrar_estadistica@valor_usart& (0+255),b
  1875  001F40  0E02               	movlw	high validar@valor_usart_829
  1876  001F42  6F80               	movwf	(mostrar_estadistica@valor_usart+1)& (0+255),b
  1877  001F44  ECA5  F013         	call	_mostrar_estadistica	;wreg free
  1878  001F48                     
  1879                           ;Leds.c: 98:             dist_ant = distancia;
  1880  001F48  C0E9  F290         	movff	validar@distancia,_dist_ant
  1881  001F4C  C0EA  F291         	movff	validar@distancia+1,_dist_ant+1
  1882  001F50                     l4375:
  1883                           
  1884                           ;Leds.c: 101:         mostrar_emoticon(6);
  1885  001F50  0E06               	movlw	6
  1886  001F52  EC71  F01C         	call	_mostrar_emoticon
  1887  001F56                     
  1888                           ;Leds.c: 102:         contador++;
  1889  001F56  0102               	movlb	2	; () banked
  1890  001F58  4B5A               	infsnz	validar@contador& (0+255),f,b
  1891  001F5A  2B5B               	incf	(validar@contador+1)& (0+255),f,b
  1892  001F5C                     l4379:
  1893                           
  1894                           ;Leds.c: 104:     if (luz > 60 || luz < 10) {
  1895  001F5C  0100               	movlb	0	; () banked
  1896  001F5E  BFEC               	btfsc	(validar@luz+1)& (0+255),7,b
  1897  001F60  EFBD  F00F         	goto	u4310
  1898  001F64  51EC               	movf	(validar@luz+1)& (0+255),w,b
  1899  001F66  E107               	bnz	u4311
  1900  001F68  0E3D               	movlw	61
  1901  001F6A  5DEB               	subwf	validar@luz& (0+255),w,b
  1902  001F6C  B0D8               	btfsc	status,0,c
  1903  001F6E  EFBB  F00F         	goto	u4311
  1904  001F72  EFBD  F00F         	goto	u4310
  1905  001F76                     u4311:
  1906  001F76  EFCB  F00F         	goto	l4383
  1907  001F7A                     u4310:
  1908  001F7A                     
  1909                           ; BSR set to: 0
  1910  001F7A  BFEC               	btfsc	(validar@luz+1)& (0+255),7,b
  1911  001F7C  EFCB  F00F         	goto	u4320
  1912  001F80  51EC               	movf	(validar@luz+1)& (0+255),w,b
  1913  001F82  E107               	bnz	u4321
  1914  001F84  0E0A               	movlw	10
  1915  001F86  5DEB               	subwf	validar@luz& (0+255),w,b
  1916  001F88  B0D8               	btfsc	status,0,c
  1917  001F8A  EFC9  F00F         	goto	u4321
  1918  001F8E  EFCB  F00F         	goto	u4320
  1919  001F92                     u4321:
  1920  001F92  EFFD  F00F         	goto	l4393
  1921  001F96                     u4320:
  1922  001F96                     l4383:
  1923                           
  1924                           ; BSR set to: 0
  1925                           ;Leds.c: 105:         mostrar_emoticon(7);
  1926  001F96  0E07               	movlw	7
  1927  001F98  EC71  F01C         	call	_mostrar_emoticon
  1928  001F9C                     
  1929                           ;Leds.c: 106:         contador++;
  1930  001F9C  0102               	movlb	2	; () banked
  1931  001F9E  4B5A               	infsnz	validar@contador& (0+255),f,b
  1932  001FA0  2B5B               	incf	(validar@contador+1)& (0+255),f,b
  1933  001FA2                     
  1934                           ; BSR set to: 2
  1935                           ;Leds.c: 108:         if (luz != lum_ant) {
  1936  001FA2  518E               	movf	_lum_ant& (0+255),w,b
  1937  001FA4  0100               	movlb	0	; () banked
  1938  001FA6  19EB               	xorwf	validar@luz& (0+255),w,b
  1939  001FA8  E10B               	bnz	u4330
  1940  001FAA  0102               	movlb	2	; () banked
  1941  001FAC  518F               	movf	(_lum_ant+1)& (0+255),w,b
  1942  001FAE  0100               	movlb	0	; () banked
  1943  001FB0  19EC               	xorwf	(validar@luz+1)& (0+255),w,b
  1944  001FB2  B4D8               	btfsc	status,2,c
  1945  001FB4  EFDE  F00F         	goto	u4331
  1946  001FB8  EFE0  F00F         	goto	u4330
  1947  001FBC                     u4331:
  1948  001FBC  EFFD  F00F         	goto	l4393
  1949  001FC0                     u4330:
  1950  001FC0                     
  1951                           ; BSR set to: 0
  1952                           ;Leds.c: 109:             char valor_usart[30];;Leds.c: 110:             sprintf(valor_u
      +                          sart, "%d", luz);
  1953  001FC0  0E3C               	movlw	low validar@valor_usart_831
  1954  001FC2  6F68               	movwf	sprintf@s& (0+255),b
  1955  001FC4  0E02               	movlw	high validar@valor_usart_831
  1956  001FC6  6F69               	movwf	(sprintf@s+1)& (0+255),b
  1957  001FC8  0EC9               	movlw	low STR_5
  1958  001FCA  6F6A               	movwf	sprintf@fmt& (0+255),b
  1959  001FCC  0E08               	movlw	high STR_5
  1960  001FCE  6F6B               	movwf	(sprintf@fmt+1)& (0+255),b
  1961  001FD0  C0EB  F06C         	movff	validar@luz,?_sprintf+4
  1962  001FD4  C0EC  F06D         	movff	validar@luz+1,?_sprintf+5
  1963  001FD8  ECFE  F018         	call	_sprintf	;wreg free
  1964                           
  1965                           ;Leds.c: 111:             mostrar_estadistica(3, valor_usart);
  1966  001FDC  0E00               	movlw	0
  1967  001FDE  0100               	movlb	0	; () banked
  1968  001FE0  6F7E               	movwf	(mostrar_estadistica@sensor+1)& (0+255),b
  1969  001FE2  0E03               	movlw	3
  1970  001FE4  6F7D               	movwf	mostrar_estadistica@sensor& (0+255),b
  1971  001FE6  0E3C               	movlw	low validar@valor_usart_831
  1972  001FE8  6F7F               	movwf	mostrar_estadistica@valor_usart& (0+255),b
  1973  001FEA  0E02               	movlw	high validar@valor_usart_831
  1974  001FEC  6F80               	movwf	(mostrar_estadistica@valor_usart+1)& (0+255),b
  1975  001FEE  ECA5  F013         	call	_mostrar_estadistica	;wreg free
  1976  001FF2                     
  1977                           ;Leds.c: 112:             lum_ant = luz;
  1978  001FF2  C0EB  F28E         	movff	validar@luz,_lum_ant
  1979  001FF6  C0EC  F28F         	movff	validar@luz+1,_lum_ant+1
  1980  001FFA                     l4393:
  1981                           
  1982                           ;Leds.c: 116:     if (contador == 0) {
  1983  001FFA  0102               	movlb	2	; () banked
  1984  001FFC  515A               	movf	validar@contador& (0+255),w,b
  1985  001FFE  115B               	iorwf	(validar@contador+1)& (0+255),w,b
  1986  002000  A4D8               	btfss	status,2,c
  1987  002002  EF05  F010         	goto	u4341
  1988  002006  EF07  F010         	goto	u4340
  1989  00200A                     u4341:
  1990  00200A  EF0A  F010         	goto	l4397
  1991  00200E                     u4340:
  1992  00200E                     
  1993                           ; BSR set to: 2
  1994                           ;Leds.c: 117:         mostrar_emoticon(4);
  1995  00200E  0E04               	movlw	4
  1996  002010  EC71  F01C         	call	_mostrar_emoticon
  1997  002014                     l4397:
  1998                           
  1999                           ;Leds.c: 121:     return contador;
  2000  002014  C25A  F0E7         	movff	validar@contador,?_validar
  2001  002018  C25B  F0E8         	movff	validar@contador+1,?_validar+1
  2002  00201C  0012               	return		;funcret
  2003  00201E                     __end_of_validar:
  2004                           	callstack 0
  2005                           
  2006 ;; *************** function _mostrar_estadistica *****************
  2007 ;; Defined at:
  2008 ;;		line 124 in file "Leds.c"
  2009 ;; Parameters:    Size  Location     Type
  2010 ;;  sensor          2   29[BANK0 ] int 
  2011 ;;  valor_usart     2   31[BANK0 ] PTR unsigned char 
  2012 ;;		 -> validar@valor_usart_831(30), validar@valor_usart_829(30), validar@valor_usart(30), 
  2013 ;; Auto vars:     Size  Location     Type
  2014 ;;  mensaje_usar  100  100[BANK1 ] unsigned char [100]
  2015 ;;  mensaje_usar  100    0[BANK1 ] unsigned char [100]
  2016 ;;  mensaje_usar  100   33[BANK0 ] unsigned char [100]
  2017 ;; Return value:  Size  Location     Type
  2018 ;;                  1    wreg      void 
  2019 ;; Registers used:
  2020 ;;		wreg, fsr1l, fsr1h, fsr2l, fsr2h, status,2, status,0, tblptrl, tblptrh, tblptru, cstack
  2021 ;; Tracked objects:
  2022 ;;		On entry : 0/0
  2023 ;;		On exit  : 0/0
  2024 ;;		Unchanged: 0/0
  2025 ;; Data sizes:     COMRAM   BANK0   BANK1   BANK2   BANK3   BANK4   BANK5   BANK6   BANK7
  2026 ;;      Params:         0       4       0       0       0       0       0       0       0
  2027 ;;      Locals:         0     102     200       0       0       0       0       0       0
  2028 ;;      Temps:          0       0       0       0       0       0       0       0       0
  2029 ;;      Totals:         0     106     200       0       0       0       0       0       0
  2030 ;;Total ram usage:      306 bytes
  2031 ;; Hardware stack levels used: 1
  2032 ;; Hardware stack levels required when called: 10
  2033 ;; This function calls:
  2034 ;;		_USART_SendString
  2035 ;;		_obtener_tiempo_fecha
  2036 ;;		_sprintf
  2037 ;; This function is called by:
  2038 ;;		_validar
  2039 ;; This function uses a non-reentrant model
  2040 ;;
  2041                           
  2042                           	psect	text3
  2043  00274A                     __ptext3:
  2044                           	callstack 0
  2045  00274A                     _mostrar_estadistica:
  2046                           	callstack 18
  2047  00274A                     
  2048                           ;Leds.c: 126:     if (sensor == 1) {
  2049  00274A  0100               	movlb	0	; () banked
  2050  00274C  057D               	decf	mostrar_estadistica@sensor& (0+255),w,b
  2051  00274E  117E               	iorwf	(mostrar_estadistica@sensor+1)& (0+255),w,b
  2052  002750  A4D8               	btfss	status,2,c
  2053  002752  EFAD  F013         	goto	u3761
  2054  002756  EFAF  F013         	goto	u3760
  2055  00275A                     u3761:
  2056  00275A  EFCE  F013         	goto	l4017
  2057  00275E                     u3760:
  2058  00275E                     
  2059                           ; BSR set to: 0
  2060                           ;Leds.c: 129:         char mensaje_usart[100];;Leds.c: 130:         sprintf(mensaje_usar
      +                          t, "%s Alerta de Temperatura: %s G \r\n", obtener_tiempo_fecha(), valor_usart);
  2061  00275E  ECF5  F01B         	call	_obtener_tiempo_fecha	;wreg free
  2062  002762  C07B  F0E5         	movff	?_obtener_tiempo_fecha,_mostrar_estadistica$2238
  2063  002766  C07C  F0E6         	movff	?_obtener_tiempo_fecha+1,_mostrar_estadistica$2238+1
  2064                           
  2065                           ;Leds.c: 129:         char mensaje_usart[100];;Leds.c: 130:         sprintf(mensaje_usar
      +                          t, "%s Alerta de Temperatura: %s G \r\n", obtener_tiempo_fecha(), valor_usart);
  2066  00276A  0E81               	movlw	low mostrar_estadistica@mensaje_usart
  2067  00276C  0100               	movlb	0	; () banked
  2068  00276E  6F68               	movwf	sprintf@s& (0+255),b
  2069  002770  0E00               	movlw	high mostrar_estadistica@mensaje_usart
  2070  002772  6F69               	movwf	(sprintf@s+1)& (0+255),b
  2071  002774  0E2B               	movlw	low STR_8
  2072  002776  6F6A               	movwf	sprintf@fmt& (0+255),b
  2073  002778  0E08               	movlw	high STR_8
  2074  00277A  6F6B               	movwf	(sprintf@fmt+1)& (0+255),b
  2075  00277C  C0E5  F06C         	movff	_mostrar_estadistica$2238,?_sprintf+4
  2076  002780  C0E6  F06D         	movff	_mostrar_estadistica$2238+1,?_sprintf+5
  2077  002784  C07F  F06E         	movff	mostrar_estadistica@valor_usart,?_sprintf+6
  2078  002788  C080  F06F         	movff	mostrar_estadistica@valor_usart+1,?_sprintf+7
  2079  00278C  ECFE  F018         	call	_sprintf	;wreg free
  2080  002790                     
  2081                           ;Leds.c: 131:         USART_SendString(mensaje_usart);
  2082  002790  0E81               	movlw	low mostrar_estadistica@mensaje_usart
  2083  002792  6E02               	movwf	USART_SendString@out^0,c
  2084  002794  0E00               	movlw	high mostrar_estadistica@mensaje_usart
  2085  002796  6E03               	movwf	(USART_SendString@out+1)^0,c
  2086  002798  EC82  F01B         	call	_USART_SendString	;wreg free
  2087  00279C                     l4017:
  2088                           
  2089                           ;Leds.c: 134:     if (sensor == 2) {
  2090  00279C  0E02               	movlw	2
  2091  00279E  0100               	movlb	0	; () banked
  2092  0027A0  197D               	xorwf	mostrar_estadistica@sensor& (0+255),w,b
  2093  0027A2  117E               	iorwf	(mostrar_estadistica@sensor+1)& (0+255),w,b
  2094  0027A4  A4D8               	btfss	status,2,c
  2095  0027A6  EFD7  F013         	goto	u3771
  2096  0027AA  EFD9  F013         	goto	u3770
  2097  0027AE                     u3771:
  2098  0027AE  EFF8  F013         	goto	l4023
  2099  0027B2                     u3770:
  2100  0027B2                     
  2101                           ; BSR set to: 0
  2102                           ;Leds.c: 136:         char mensaje_usart[100];;Leds.c: 137:         sprintf(mensaje_usar
      +                          t, "%s Alerta de Distancia: %s Cm \r\n", obtener_tiempo_fecha(), valor_usart);
  2103  0027B2  ECF5  F01B         	call	_obtener_tiempo_fecha	;wreg free
  2104  0027B6  C07B  F0E5         	movff	?_obtener_tiempo_fecha,_mostrar_estadistica$2238
  2105  0027BA  C07C  F0E6         	movff	?_obtener_tiempo_fecha+1,_mostrar_estadistica$2238+1
  2106                           
  2107                           ;Leds.c: 136:         char mensaje_usart[100];;Leds.c: 137:         sprintf(mensaje_usar
      +                          t, "%s Alerta de Distancia: %s Cm \r\n", obtener_tiempo_fecha(), valor_usart);
  2108  0027BE  0E00               	movlw	low mostrar_estadistica@mensaje_usart_838
  2109  0027C0  0100               	movlb	0	; () banked
  2110  0027C2  6F68               	movwf	sprintf@s& (0+255),b
  2111  0027C4  0E01               	movlw	high mostrar_estadistica@mensaje_usart_838
  2112  0027C6  6F69               	movwf	(sprintf@s+1)& (0+255),b
  2113  0027C8  0E4D               	movlw	low STR_9
  2114  0027CA  6F6A               	movwf	sprintf@fmt& (0+255),b
  2115  0027CC  0E08               	movlw	high STR_9
  2116  0027CE  6F6B               	movwf	(sprintf@fmt+1)& (0+255),b
  2117  0027D0  C0E5  F06C         	movff	_mostrar_estadistica$2238,?_sprintf+4
  2118  0027D4  C0E6  F06D         	movff	_mostrar_estadistica$2238+1,?_sprintf+5
  2119  0027D8  C07F  F06E         	movff	mostrar_estadistica@valor_usart,?_sprintf+6
  2120  0027DC  C080  F06F         	movff	mostrar_estadistica@valor_usart+1,?_sprintf+7
  2121  0027E0  ECFE  F018         	call	_sprintf	;wreg free
  2122  0027E4                     
  2123                           ;Leds.c: 138:         USART_SendString(mensaje_usart);
  2124  0027E4  0E00               	movlw	low mostrar_estadistica@mensaje_usart_838
  2125  0027E6  6E02               	movwf	USART_SendString@out^0,c
  2126  0027E8  0E01               	movlw	high mostrar_estadistica@mensaje_usart_838
  2127  0027EA  6E03               	movwf	(USART_SendString@out+1)^0,c
  2128  0027EC  EC82  F01B         	call	_USART_SendString	;wreg free
  2129  0027F0                     l4023:
  2130                           
  2131                           ;Leds.c: 141:     if (sensor == 3) {
  2132  0027F0  0E03               	movlw	3
  2133  0027F2  0100               	movlb	0	; () banked
  2134  0027F4  197D               	xorwf	mostrar_estadistica@sensor& (0+255),w,b
  2135  0027F6  117E               	iorwf	(mostrar_estadistica@sensor+1)& (0+255),w,b
  2136  0027F8  A4D8               	btfss	status,2,c
  2137  0027FA  EF01  F014         	goto	u3781
  2138  0027FE  EF03  F014         	goto	u3780
  2139  002802                     u3781:
  2140  002802  EF22  F014         	goto	l370
  2141  002806                     u3780:
  2142  002806                     
  2143                           ; BSR set to: 0
  2144                           ;Leds.c: 143:         char mensaje_usart[100];;Leds.c: 144:         sprintf(mensaje_usar
      +                          t, "%s Alerta de Luminosidad: %s Porciento \r\n", obtener_tiempo_fecha(), valor_usart);
  2145  002806  ECF5  F01B         	call	_obtener_tiempo_fecha	;wreg free
  2146  00280A  C07B  F0E5         	movff	?_obtener_tiempo_fecha,_mostrar_estadistica$2238
  2147  00280E  C07C  F0E6         	movff	?_obtener_tiempo_fecha+1,_mostrar_estadistica$2238+1
  2148                           
  2149                           ;Leds.c: 143:         char mensaje_usart[100];;Leds.c: 144:         sprintf(mensaje_usar
      +                          t, "%s Alerta de Luminosidad: %s Porciento \r\n", obtener_tiempo_fecha(), valor_usart);
  2150  002812  0E64               	movlw	low mostrar_estadistica@mensaje_usart_840
  2151  002814  0100               	movlb	0	; () banked
  2152  002816  6F68               	movwf	sprintf@s& (0+255),b
  2153  002818  0E01               	movlw	high mostrar_estadistica@mensaje_usart_840
  2154  00281A  6F69               	movwf	(sprintf@s+1)& (0+255),b
  2155  00281C  0E01               	movlw	low STR_10
  2156  00281E  6F6A               	movwf	sprintf@fmt& (0+255),b
  2157  002820  0E08               	movlw	high STR_10
  2158  002822  6F6B               	movwf	(sprintf@fmt+1)& (0+255),b
  2159  002824  C0E5  F06C         	movff	_mostrar_estadistica$2238,?_sprintf+4
  2160  002828  C0E6  F06D         	movff	_mostrar_estadistica$2238+1,?_sprintf+5
  2161  00282C  C07F  F06E         	movff	mostrar_estadistica@valor_usart,?_sprintf+6
  2162  002830  C080  F06F         	movff	mostrar_estadistica@valor_usart+1,?_sprintf+7
  2163  002834  ECFE  F018         	call	_sprintf	;wreg free
  2164  002838                     
  2165                           ;Leds.c: 145:         USART_SendString(mensaje_usart);
  2166  002838  0E64               	movlw	low mostrar_estadistica@mensaje_usart_840
  2167  00283A  6E02               	movwf	USART_SendString@out^0,c
  2168  00283C  0E01               	movlw	high mostrar_estadistica@mensaje_usart_840
  2169  00283E  6E03               	movwf	(USART_SendString@out+1)^0,c
  2170  002840  EC82  F01B         	call	_USART_SendString	;wreg free
  2171  002844                     l370:
  2172  002844  0012               	return		;funcret
  2173  002846                     __end_of_mostrar_estadistica:
  2174                           	callstack 0
  2175                           
  2176 ;; *************** function _obtener_tiempo_fecha *****************
  2177 ;; Defined at:
  2178 ;;		line 74 in file "RTC.c"
  2179 ;; Parameters:    Size  Location     Type
  2180 ;;		None
  2181 ;; Auto vars:     Size  Location     Type
  2182 ;;		None
  2183 ;; Return value:  Size  Location     Type
  2184 ;;                  2   27[BANK0 ] PTR unsigned char 
  2185 ;; Registers used:
  2186 ;;		wreg, fsr1l, fsr1h, fsr2l, fsr2h, status,2, status,0, tblptrl, tblptrh, tblptru, cstack
  2187 ;; Tracked objects:
  2188 ;;		On entry : 0/0
  2189 ;;		On exit  : 0/0
  2190 ;;		Unchanged: 0/0
  2191 ;; Data sizes:     COMRAM   BANK0   BANK1   BANK2   BANK3   BANK4   BANK5   BANK6   BANK7
  2192 ;;      Params:         0       2       0       0       0       0       0       0       0
  2193 ;;      Locals:         0       0       0       0       0       0       0       0       0
  2194 ;;      Temps:          0       0       0       0       0       0       0       0       0
  2195 ;;      Totals:         0       2       0       0       0       0       0       0       0
  2196 ;;Total ram usage:        2 bytes
  2197 ;; Hardware stack levels used: 1
  2198 ;; Hardware stack levels required when called: 9
  2199 ;; This function calls:
  2200 ;;		_I2C_Init
  2201 ;;		_RTC_obtener_fecha
  2202 ;;		_RTC_obtener_hora
  2203 ;;		_strcat
  2204 ;; This function is called by:
  2205 ;;		_mostrar_estadistica
  2206 ;; This function uses a non-reentrant model
  2207 ;;
  2208                           
  2209                           	psect	text4
  2210  0037EA                     __ptext4:
  2211                           	callstack 0
  2212  0037EA                     _obtener_tiempo_fecha:
  2213                           	callstack 18
  2214  0037EA                     
  2215                           ;RTC.c: 75:     I2C_Init();
  2216  0037EA  EC4E  F01C         	call	_I2C_Init	;wreg free
  2217  0037EE                     
  2218                           ;RTC.c: 76:     RTC_obtener_hora();
  2219  0037EE  EC0A  F015         	call	_RTC_obtener_hora	;wreg free
  2220  0037F2                     
  2221                           ;RTC.c: 77:     RTC_obtener_fecha();
  2222  0037F2  EC19  F01B         	call	_RTC_obtener_fecha	;wreg free
  2223  0037F6                     
  2224                           ;RTC.c: 78:     return strcat(date, time);
  2225  0037F6  0EB4               	movlw	low _date
  2226  0037F8  6E0D               	movwf	strcat@dest^0,c
  2227  0037FA  0E03               	movlw	high _date
  2228  0037FC  6E0E               	movwf	(strcat@dest+1)^0,c
  2229  0037FE  0E78               	movlw	low _time
  2230  003800  6E0F               	movwf	strcat@src^0,c
  2231  003802  0E03               	movlw	high _time
  2232  003804  6E10               	movwf	(strcat@src+1)^0,c
  2233  003806  EC9A  F01B         	call	_strcat	;wreg free
  2234  00380A  C00D  F07B         	movff	?_strcat,?_obtener_tiempo_fecha
  2235  00380E  C00E  F07C         	movff	?_strcat+1,?_obtener_tiempo_fecha+1
  2236  003812  0012               	return		;funcret
  2237  003814                     __end_of_obtener_tiempo_fecha:
  2238                           	callstack 0
  2239                           
  2240 ;; *************** function _strcat *****************
  2241 ;; Defined at:
  2242 ;;		line 3 in file "D:\mplab\pic\sources\c99\common\strcat.c"
  2243 ;; Parameters:    Size  Location     Type
  2244 ;;  dest            2   12[COMRAM] PTR unsigned char 
  2245 ;;		 -> date(60), 
  2246 ;;  src             2   14[COMRAM] PTR const unsigned char 
  2247 ;;		 -> time(60), 
  2248 ;; Auto vars:     Size  Location     Type
  2249 ;;		None
  2250 ;; Return value:  Size  Location     Type
  2251 ;;                  2   12[COMRAM] PTR unsigned char 
  2252 ;; Registers used:
  2253 ;;		wreg, fsr1l, fsr1h, fsr2l, fsr2h, status,2, status,0, cstack
  2254 ;; Tracked objects:
  2255 ;;		On entry : 0/0
  2256 ;;		On exit  : 0/0
  2257 ;;		Unchanged: 0/0
  2258 ;; Data sizes:     COMRAM   BANK0   BANK1   BANK2   BANK3   BANK4   BANK5   BANK6   BANK7
  2259 ;;      Params:         4       0       0       0       0       0       0       0       0
  2260 ;;      Locals:         0       0       0       0       0       0       0       0       0
  2261 ;;      Temps:          0       0       0       0       0       0       0       0       0
  2262 ;;      Totals:         4       0       0       0       0       0       0       0       0
  2263 ;;Total ram usage:        4 bytes
  2264 ;; Hardware stack levels used: 1
  2265 ;; Hardware stack levels required when called: 1
  2266 ;; This function calls:
  2267 ;;		_strcpy
  2268 ;;		_strlen
  2269 ;; This function is called by:
  2270 ;;		_obtener_tiempo_fecha
  2271 ;; This function uses a non-reentrant model
  2272 ;;
  2273                           
  2274                           	psect	text5
  2275  003734                     __ptext5:
  2276                           	callstack 0
  2277  003734                     _strcat:
  2278                           	callstack 25
  2279  003734  C00D  F001         	movff	strcat@dest,strlen@s
  2280  003738  C00E  F002         	movff	strcat@dest+1,strlen@s+1
  2281  00373C  EC34  F01B         	call	_strlen	;wreg free
  2282  003740  5001               	movf	?_strlen^0,w,c
  2283  003742  240D               	addwf	strcat@dest^0,w,c
  2284  003744  6E05               	movwf	strcpy@dest^0,c
  2285  003746  5002               	movf	(?_strlen+1)^0,w,c
  2286  003748  200E               	addwfc	(strcat@dest+1)^0,w,c
  2287  00374A  6E06               	movwf	(strcpy@dest+1)^0,c
  2288  00374C  C00F  F007         	movff	strcat@src,strcpy@src
  2289  003750  C010  F008         	movff	strcat@src+1,strcpy@src+1
  2290  003754  EC87  F01A         	call	_strcpy	;wreg free
  2291  003758  C00D  F00D         	movff	strcat@dest,?_strcat
  2292  00375C  C00E  F00E         	movff	strcat@dest+1,?_strcat+1
  2293  003760  0012               	return		;funcret
  2294  003762                     __end_of_strcat:
  2295                           	callstack 0
  2296                           
  2297 ;; *************** function _strcpy *****************
  2298 ;; Defined at:
  2299 ;;		line 3 in file "D:\mplab\pic\sources\c99\common\strcpy.c"
  2300 ;; Parameters:    Size  Location     Type
  2301 ;;  dest            2    4[COMRAM] PTR unsigned char 
  2302 ;;		 -> date(60), 
  2303 ;;  src             2    6[COMRAM] PTR const unsigned char 
  2304 ;;		 -> time(60), 
  2305 ;; Auto vars:     Size  Location     Type
  2306 ;;  d               2   10[COMRAM] PTR unsigned char 
  2307 ;;		 -> date(60), 
  2308 ;;  s               2    8[COMRAM] PTR const unsigned char 
  2309 ;;		 -> time(60), 
  2310 ;; Return value:  Size  Location     Type
  2311 ;;                  2    4[COMRAM] PTR unsigned char 
  2312 ;; Registers used:
  2313 ;;		wreg, fsr1l, fsr1h, fsr2l, fsr2h, status,2, status,0
  2314 ;; Tracked objects:
  2315 ;;		On entry : 0/0
  2316 ;;		On exit  : 0/0
  2317 ;;		Unchanged: 0/0
  2318 ;; Data sizes:     COMRAM   BANK0   BANK1   BANK2   BANK3   BANK4   BANK5   BANK6   BANK7
  2319 ;;      Params:         4       0       0       0       0       0       0       0       0
  2320 ;;      Locals:         4       0       0       0       0       0       0       0       0
  2321 ;;      Temps:          0       0       0       0       0       0       0       0       0
  2322 ;;      Totals:         8       0       0       0       0       0       0       0       0
  2323 ;;Total ram usage:        8 bytes
  2324 ;; Hardware stack levels used: 1
  2325 ;; This function calls:
  2326 ;;		Nothing
  2327 ;; This function is called by:
  2328 ;;		_strcat
  2329 ;; This function uses a non-reentrant model
  2330 ;;
  2331                           
  2332                           	psect	text6
  2333  00350E                     __ptext6:
  2334                           	callstack 0
  2335  00350E                     _strcpy:
  2336                           	callstack 25
  2337  00350E  C007  F009         	movff	strcpy@src,strcpy@s
  2338  003512  C008  F00A         	movff	strcpy@src+1,strcpy@s+1
  2339  003516  C005  F00B         	movff	strcpy@dest,strcpy@d
  2340  00351A  C006  F00C         	movff	strcpy@dest+1,strcpy@d+1
  2341  00351E                     l3819:
  2342  00351E  C009  FFD9         	movff	strcpy@s,fsr2l
  2343  003522  C00A  FFDA         	movff	strcpy@s+1,fsr2h
  2344  003526  4A09               	infsnz	strcpy@s^0,f,c
  2345  003528  2A0A               	incf	(strcpy@s+1)^0,f,c
  2346  00352A  C00B  FFE1         	movff	strcpy@d,fsr1l
  2347  00352E  C00C  FFE2         	movff	strcpy@d+1,fsr1h
  2348  003532  4A0B               	infsnz	strcpy@d^0,f,c
  2349  003534  2A0C               	incf	(strcpy@d+1)^0,f,c
  2350  003536  CFDF FFE7          	movff	indf2,indf1
  2351  00353A  50E7               	movf	indf1,w,c
  2352  00353C  A4D8               	btfss	status,2,c
  2353  00353E  EFA3  F01A         	goto	u3631
  2354  003542  EFA5  F01A         	goto	u3630
  2355  003546                     u3631:
  2356  003546  EF8F  F01A         	goto	l3819
  2357  00354A                     u3630:
  2358  00354A  0012               	return		;funcret
  2359  00354C                     __end_of_strcpy:
  2360                           	callstack 0
  2361                           
  2362 ;; *************** function _RTC_obtener_hora *****************
  2363 ;; Defined at:
  2364 ;;		line 51 in file "RTC.c"
  2365 ;; Parameters:    Size  Location     Type
  2366 ;;		None
  2367 ;; Auto vars:     Size  Location     Type
  2368 ;;  AM_PM           1   26[BANK0 ] unsigned char 
  2369 ;;  Clock_type      1    0        unsigned char 
  2370 ;; Return value:  Size  Location     Type
  2371 ;;                  1    wreg      void 
  2372 ;; Registers used:
  2373 ;;		wreg, fsr1l, fsr1h, fsr2l, fsr2h, status,2, status,0, tblptrl, tblptrh, tblptru, cstack
  2374 ;; Tracked objects:
  2375 ;;		On entry : 0/0
  2376 ;;		On exit  : 0/0
  2377 ;;		Unchanged: 0/0
  2378 ;; Data sizes:     COMRAM   BANK0   BANK1   BANK2   BANK3   BANK4   BANK5   BANK6   BANK7
  2379 ;;      Params:         0       0       0       0       0       0       0       0       0
  2380 ;;      Locals:         0       1       0       0       0       0       0       0       0
  2381 ;;      Temps:          0       0       0       0       0       0       0       0       0
  2382 ;;      Totals:         0       1       0       0       0       0       0       0       0
  2383 ;;Total ram usage:        1 bytes
  2384 ;; Hardware stack levels used: 1
  2385 ;; Hardware stack levels required when called: 8
  2386 ;; This function calls:
  2387 ;;		_I2C_Stop
  2388 ;;		_RTC_Read_Clock
  2389 ;;		_sprintf
  2390 ;; This function is called by:
  2391 ;;		_obtener_tiempo_fecha
  2392 ;; This function uses a non-reentrant model
  2393 ;;
  2394                           
  2395                           	psect	text7
  2396  002A14                     __ptext7:
  2397                           	callstack 0
  2398  002A14                     _RTC_obtener_hora:
  2399                           	callstack 18
  2400  002A14                     
  2401                           ;RTC.c: 53:     char AM_PM = 0x05;
  2402  002A14  0E05               	movlw	5
  2403  002A16  0100               	movlb	0	; () banked
  2404  002A18  6F7A               	movwf	RTC_obtener_hora@AM_PM& (0+255),b
  2405  002A1A                     
  2406                           ; BSR set to: 0
  2407                           ;RTC.c: 54:     RTC_Read_Clock(0);
  2408  002A1A  0E00               	movlw	0
  2409  002A1C  EC77  F019         	call	_RTC_Read_Clock
  2410  002A20                     
  2411                           ;RTC.c: 55:     I2C_Stop();
  2412  002A20  EC7C  F01C         	call	_I2C_Stop	;wreg free
  2413  002A24                     
  2414                           ;RTC.c: 56:     if (hour & (1 << Clock_type)) {
  2415  002A24  0100               	movlb	0	; () banked
  2416  002A26  ADF9               	btfss	_hour& (0+255),6,b
  2417  002A28  EF18  F015         	goto	u3651
  2418  002A2C  EF1A  F015         	goto	u3650
  2419  002A30                     u3651:
  2420  002A30  EF55  F015         	goto	l3869
  2421  002A34                     u3650:
  2422  002A34                     
  2423                           ; BSR set to: 0
  2424                           ;RTC.c: 57:         if (hour & (1 << AM_PM)) {
  2425  002A34  ABF9               	btfss	_hour& (0+255),5,b
  2426  002A36  EF1F  F015         	goto	u3661
  2427  002A3A  EF21  F015         	goto	u3660
  2428  002A3E                     u3661:
  2429  002A3E  EF3D  F015         	goto	l3867
  2430  002A42                     u3660:
  2431  002A42                     
  2432                           ; BSR set to: 0
  2433                           ;RTC.c: 58:             hour = hour & (0x1f);
  2434  002A42  0E1F               	movlw	31
  2435  002A44  15F9               	andwf	_hour& (0+255),w,b
  2436  002A46  6FF9               	movwf	_hour& (0+255),b
  2437  002A48  6BFA               	clrf	(_hour+1)& (0+255),b
  2438  002A4A                     
  2439                           ; BSR set to: 0
  2440                           ;RTC.c: 59:             sprintf(time, "Time: %x:%x:%x PM", hour, min, sec);
  2441  002A4A  0E78               	movlw	low _time
  2442  002A4C  6F68               	movwf	sprintf@s& (0+255),b
  2443  002A4E  0E03               	movlw	high _time
  2444  002A50  6F69               	movwf	(sprintf@s+1)& (0+255),b
  2445  002A52  0E80               	movlw	low STR_11
  2446  002A54  6F6A               	movwf	sprintf@fmt& (0+255),b
  2447  002A56  0E08               	movlw	high STR_11
  2448  002A58  6F6B               	movwf	(sprintf@fmt+1)& (0+255),b
  2449  002A5A  C0F9  F06C         	movff	_hour,?_sprintf+4
  2450  002A5E  C0FA  F06D         	movff	_hour+1,?_sprintf+5
  2451  002A62  C1D6  F06E         	movff	_min,?_sprintf+6
  2452  002A66  C1D7  F06F         	movff	_min+1,?_sprintf+7
  2453  002A6A  C1D8  F070         	movff	_sec,?_sprintf+8
  2454  002A6E  C1D9  F071         	movff	_sec+1,?_sprintf+9
  2455  002A72  ECFE  F018         	call	_sprintf	;wreg free
  2456                           
  2457                           ;RTC.c: 60:         } else {
  2458  002A76  EF6F  F015         	goto	l615
  2459  002A7A                     l3867:
  2460                           
  2461                           ; BSR set to: 0
  2462                           ;RTC.c: 61:             sprintf(time, "Time: %x:%x:%x AM", hour, min, sec);
  2463  002A7A  0E78               	movlw	low _time
  2464  002A7C  6F68               	movwf	sprintf@s& (0+255),b
  2465  002A7E  0E03               	movlw	high _time
  2466  002A80  6F69               	movwf	(sprintf@s+1)& (0+255),b
  2467  002A82  0E6E               	movlw	low STR_12
  2468  002A84  6F6A               	movwf	sprintf@fmt& (0+255),b
  2469  002A86  0E08               	movlw	high STR_12
  2470  002A88  6F6B               	movwf	(sprintf@fmt+1)& (0+255),b
  2471  002A8A  C0F9  F06C         	movff	_hour,?_sprintf+4
  2472  002A8E  C0FA  F06D         	movff	_hour+1,?_sprintf+5
  2473  002A92  C1D6  F06E         	movff	_min,?_sprintf+6
  2474  002A96  C1D7  F06F         	movff	_min+1,?_sprintf+7
  2475  002A9A  C1D8  F070         	movff	_sec,?_sprintf+8
  2476  002A9E  C1D9  F071         	movff	_sec+1,?_sprintf+9
  2477  002AA2  ECFE  F018         	call	_sprintf	;wreg free
  2478  002AA6  EF6F  F015         	goto	l615
  2479  002AAA                     l3869:
  2480                           
  2481                           ; BSR set to: 0
  2482                           ;RTC.c: 64:         hour = hour & (0x3f);
  2483  002AAA  0E3F               	movlw	63
  2484  002AAC  15F9               	andwf	_hour& (0+255),w,b
  2485  002AAE  6FF9               	movwf	_hour& (0+255),b
  2486  002AB0  6BFA               	clrf	(_hour+1)& (0+255),b
  2487  002AB2                     
  2488                           ; BSR set to: 0
  2489                           ;RTC.c: 65:         sprintf(time, "Time: %x:%x:%x ", hour, min, sec);
  2490  002AB2  0E78               	movlw	low _time
  2491  002AB4  6F68               	movwf	sprintf@s& (0+255),b
  2492  002AB6  0E03               	movlw	high _time
  2493  002AB8  6F69               	movwf	(sprintf@s+1)& (0+255),b
  2494  002ABA  0EA2               	movlw	low STR_13
  2495  002ABC  6F6A               	movwf	sprintf@fmt& (0+255),b
  2496  002ABE  0E08               	movlw	high STR_13
  2497  002AC0  6F6B               	movwf	(sprintf@fmt+1)& (0+255),b
  2498  002AC2  C0F9  F06C         	movff	_hour,?_sprintf+4
  2499  002AC6  C0FA  F06D         	movff	_hour+1,?_sprintf+5
  2500  002ACA  C1D6  F06E         	movff	_min,?_sprintf+6
  2501  002ACE  C1D7  F06F         	movff	_min+1,?_sprintf+7
  2502  002AD2  C1D8  F070         	movff	_sec,?_sprintf+8
  2503  002AD6  C1D9  F071         	movff	_sec+1,?_sprintf+9
  2504  002ADA  ECFE  F018         	call	_sprintf	;wreg free
  2505  002ADE                     l615:
  2506  002ADE  0012               	return		;funcret
  2507  002AE0                     __end_of_RTC_obtener_hora:
  2508                           	callstack 0
  2509                           
  2510 ;; *************** function _RTC_Read_Clock *****************
  2511 ;; Defined at:
  2512 ;;		line 30 in file "RTC.c"
  2513 ;; Parameters:    Size  Location     Type
  2514 ;;  read_clock_a    1    wreg     unsigned char 
  2515 ;; Auto vars:     Size  Location     Type
  2516 ;;  read_clock_a    1    3[COMRAM] unsigned char 
  2517 ;; Return value:  Size  Location     Type
  2518 ;;                  1    wreg      void 
  2519 ;; Registers used:
  2520 ;;		wreg, status,2, status,0, cstack
  2521 ;; Tracked objects:
  2522 ;;		On entry : 0/0
  2523 ;;		On exit  : 0/0
  2524 ;;		Unchanged: 0/0
  2525 ;; Data sizes:     COMRAM   BANK0   BANK1   BANK2   BANK3   BANK4   BANK5   BANK6   BANK7
  2526 ;;      Params:         0       0       0       0       0       0       0       0       0
  2527 ;;      Locals:         1       0       0       0       0       0       0       0       0
  2528 ;;      Temps:          1       0       0       0       0       0       0       0       0
  2529 ;;      Totals:         2       0       0       0       0       0       0       0       0
  2530 ;;Total ram usage:        2 bytes
  2531 ;; Hardware stack levels used: 1
  2532 ;; Hardware stack levels required when called: 3
  2533 ;; This function calls:
  2534 ;;		_I2C_Read
  2535 ;;		_I2C_Repeated_Start
  2536 ;;		_I2C_Start
  2537 ;;		_I2C_Stop
  2538 ;;		_I2C_Write
  2539 ;; This function is called by:
  2540 ;;		_RTC_obtener_hora
  2541 ;;		_configurarHora
  2542 ;; This function uses a non-reentrant model
  2543 ;;
  2544                           
  2545                           	psect	text8
  2546  0032EE                     __ptext8:
  2547                           	callstack 0
  2548  0032EE                     _RTC_Read_Clock:
  2549                           	callstack 22
  2550                           
  2551                           ;incstack = 0
  2552                           ;RTC_Read_Clock@read_clock_address stored from wreg
  2553  0032EE  6E04               	movwf	RTC_Read_Clock@read_clock_address^0,c
  2554  0032F0                     
  2555                           ;RTC.c: 31:     I2C_Start(0xD0);
  2556  0032F0  0ED0               	movlw	208
  2557  0032F2  ECB1  F01B         	call	_I2C_Start
  2558                           
  2559                           ;RTC.c: 32:     I2C_Write(read_clock_address);
  2560  0032F6  5004               	movf	RTC_Read_Clock@read_clock_address^0,w,c
  2561  0032F8  EC1D  F01C         	call	_I2C_Write
  2562                           
  2563                           ;RTC.c: 33:     I2C_Repeated_Start(0xD1);
  2564  0032FC  0ED1               	movlw	209
  2565  0032FE  ECC8  F01B         	call	_I2C_Repeated_Start
  2566  003302                     
  2567                           ;RTC.c: 34:     sec = I2C_Read(0);
  2568  003302  0E00               	movlw	0
  2569  003304  ECC4  F01A         	call	_I2C_Read
  2570  003308  6E03               	movwf	??_RTC_Read_Clock^0,c
  2571  00330A  5003               	movf	??_RTC_Read_Clock^0,w,c
  2572  00330C  0101               	movlb	1	; () banked
  2573  00330E  6FD8               	movwf	_sec& (0+255),b
  2574  003310  6BD9               	clrf	(_sec+1)& (0+255),b
  2575  003312                     
  2576                           ; BSR set to: 1
  2577                           ;RTC.c: 35:     min = I2C_Read(0);
  2578  003312  0E00               	movlw	0
  2579  003314  ECC4  F01A         	call	_I2C_Read
  2580  003318  6E03               	movwf	??_RTC_Read_Clock^0,c
  2581  00331A  5003               	movf	??_RTC_Read_Clock^0,w,c
  2582  00331C  0101               	movlb	1	; () banked
  2583  00331E  6FD6               	movwf	_min& (0+255),b
  2584  003320  6BD7               	clrf	(_min+1)& (0+255),b
  2585  003322                     
  2586                           ; BSR set to: 1
  2587                           ;RTC.c: 36:     hour = I2C_Read(1);
  2588  003322  0E01               	movlw	1
  2589  003324  ECC4  F01A         	call	_I2C_Read
  2590  003328  6E03               	movwf	??_RTC_Read_Clock^0,c
  2591  00332A  5003               	movf	??_RTC_Read_Clock^0,w,c
  2592  00332C  0100               	movlb	0	; () banked
  2593  00332E  6FF9               	movwf	_hour& (0+255),b
  2594  003330  6BFA               	clrf	(_hour+1)& (0+255),b
  2595  003332                     
  2596                           ; BSR set to: 0
  2597                           ;RTC.c: 37:     I2C_Stop();
  2598  003332  EC7C  F01C         	call	_I2C_Stop	;wreg free
  2599  003336  0012               	return		;funcret
  2600  003338                     __end_of_RTC_Read_Clock:
  2601                           	callstack 0
  2602                           
  2603 ;; *************** function _RTC_obtener_fecha *****************
  2604 ;; Defined at:
  2605 ;;		line 69 in file "RTC.c"
  2606 ;; Parameters:    Size  Location     Type
  2607 ;;		None
  2608 ;; Auto vars:     Size  Location     Type
  2609 ;;		None
  2610 ;; Return value:  Size  Location     Type
  2611 ;;                  1    wreg      void 
  2612 ;; Registers used:
  2613 ;;		wreg, fsr1l, fsr1h, fsr2l, fsr2h, status,2, status,0, tblptrl, tblptrh, tblptru, cstack
  2614 ;; Tracked objects:
  2615 ;;		On entry : 0/0
  2616 ;;		On exit  : 0/0
  2617 ;;		Unchanged: 0/0
  2618 ;; Data sizes:     COMRAM   BANK0   BANK1   BANK2   BANK3   BANK4   BANK5   BANK6   BANK7
  2619 ;;      Params:         0       0       0       0       0       0       0       0       0
  2620 ;;      Locals:         0       0       0       0       0       0       0       0       0
  2621 ;;      Temps:          0       0       0       0       0       0       0       0       0
  2622 ;;      Totals:         0       0       0       0       0       0       0       0       0
  2623 ;;Total ram usage:        0 bytes
  2624 ;; Hardware stack levels used: 1
  2625 ;; Hardware stack levels required when called: 8
  2626 ;; This function calls:
  2627 ;;		_RTC_Read_Calendar
  2628 ;;		_sprintf
  2629 ;; This function is called by:
  2630 ;;		_obtener_tiempo_fecha
  2631 ;; This function uses a non-reentrant model
  2632 ;;
  2633                           
  2634                           	psect	text9
  2635  003632                     __ptext9:
  2636                           	callstack 0
  2637  003632                     _RTC_obtener_fecha:
  2638                           	callstack 18
  2639  003632                     
  2640                           ;RTC.c: 70:     RTC_Read_Calendar(3);
  2641  003632  0E03               	movlw	3
  2642  003634  ECD1  F018         	call	_RTC_Read_Calendar
  2643  003638                     
  2644                           ;RTC.c: 71:     sprintf(date, "Date: %x/%x/%x ", Date, Month, Year);
  2645  003638  0EB4               	movlw	low _date
  2646  00363A  0100               	movlb	0	; () banked
  2647  00363C  6F68               	movwf	sprintf@s& (0+255),b
  2648  00363E  0E03               	movlw	high _date
  2649  003640  6F69               	movwf	(sprintf@s+1)& (0+255),b
  2650  003642  0E92               	movlw	low STR_14
  2651  003644  6F6A               	movwf	sprintf@fmt& (0+255),b
  2652  003646  0E08               	movlw	high STR_14
  2653  003648  6F6B               	movwf	(sprintf@fmt+1)& (0+255),b
  2654  00364A  C1D2  F06C         	movff	_Date,?_sprintf+4
  2655  00364E  C1D3  F06D         	movff	_Date+1,?_sprintf+5
  2656  003652  C1D0  F06E         	movff	_Month,?_sprintf+6
  2657  003656  C1D1  F06F         	movff	_Month+1,?_sprintf+7
  2658  00365A  C1CE  F070         	movff	_Year,?_sprintf+8
  2659  00365E  C1CF  F071         	movff	_Year+1,?_sprintf+9
  2660  003662  ECFE  F018         	call	_sprintf	;wreg free
  2661  003666  0012               	return		;funcret
  2662  003668                     __end_of_RTC_obtener_fecha:
  2663                           	callstack 0
  2664                           
  2665 ;; *************** function _RTC_Read_Calendar *****************
  2666 ;; Defined at:
  2667 ;;		line 40 in file "RTC.c"
  2668 ;; Parameters:    Size  Location     Type
  2669 ;;  read_calenda    1    wreg     unsigned char 
  2670 ;; Auto vars:     Size  Location     Type
  2671 ;;  read_calenda    1    3[COMRAM] unsigned char 
  2672 ;; Return value:  Size  Location     Type
  2673 ;;                  1    wreg      void 
  2674 ;; Registers used:
  2675 ;;		wreg, status,2, status,0, cstack
  2676 ;; Tracked objects:
  2677 ;;		On entry : 0/0
  2678 ;;		On exit  : 0/0
  2679 ;;		Unchanged: 0/0
  2680 ;; Data sizes:     COMRAM   BANK0   BANK1   BANK2   BANK3   BANK4   BANK5   BANK6   BANK7
  2681 ;;      Params:         0       0       0       0       0       0       0       0       0
  2682 ;;      Locals:         1       0       0       0       0       0       0       0       0
  2683 ;;      Temps:          1       0       0       0       0       0       0       0       0
  2684 ;;      Totals:         2       0       0       0       0       0       0       0       0
  2685 ;;Total ram usage:        2 bytes
  2686 ;; Hardware stack levels used: 1
  2687 ;; Hardware stack levels required when called: 3
  2688 ;; This function calls:
  2689 ;;		_I2C_Read
  2690 ;;		_I2C_Repeated_Start
  2691 ;;		_I2C_Start
  2692 ;;		_I2C_Stop
  2693 ;;		_I2C_Write
  2694 ;; This function is called by:
  2695 ;;		_RTC_obtener_fecha
  2696 ;;		_configurarHora
  2697 ;; This function uses a non-reentrant model
  2698 ;;
  2699                           
  2700                           	psect	text10
  2701  0031A2                     __ptext10:
  2702                           	callstack 0
  2703  0031A2                     _RTC_Read_Calendar:
  2704                           	callstack 22
  2705                           
  2706                           ;incstack = 0
  2707                           ;RTC_Read_Calendar@read_calendar_address stored from wreg
  2708  0031A2  6E04               	movwf	RTC_Read_Calendar@read_calendar_address^0,c
  2709  0031A4                     
  2710                           ;RTC.c: 41:     I2C_Start(0xD0);
  2711  0031A4  0ED0               	movlw	208
  2712  0031A6  ECB1  F01B         	call	_I2C_Start
  2713                           
  2714                           ;RTC.c: 42:     I2C_Write(read_calendar_address);
  2715  0031AA  5004               	movf	RTC_Read_Calendar@read_calendar_address^0,w,c
  2716  0031AC  EC1D  F01C         	call	_I2C_Write
  2717                           
  2718                           ;RTC.c: 43:     I2C_Repeated_Start(0xD1);
  2719  0031B0  0ED1               	movlw	209
  2720  0031B2  ECC8  F01B         	call	_I2C_Repeated_Start
  2721  0031B6                     
  2722                           ;RTC.c: 44:     Day = I2C_Read(0);
  2723  0031B6  0E00               	movlw	0
  2724  0031B8  ECC4  F01A         	call	_I2C_Read
  2725  0031BC  6E03               	movwf	??_RTC_Read_Calendar^0,c
  2726  0031BE  5003               	movf	??_RTC_Read_Calendar^0,w,c
  2727  0031C0  0101               	movlb	1	; () banked
  2728  0031C2  6FD4               	movwf	_Day& (0+255),b
  2729  0031C4  6BD5               	clrf	(_Day+1)& (0+255),b
  2730  0031C6                     
  2731                           ; BSR set to: 1
  2732                           ;RTC.c: 45:     Date = I2C_Read(0);
  2733  0031C6  0E00               	movlw	0
  2734  0031C8  ECC4  F01A         	call	_I2C_Read
  2735  0031CC  6E03               	movwf	??_RTC_Read_Calendar^0,c
  2736  0031CE  5003               	movf	??_RTC_Read_Calendar^0,w,c
  2737  0031D0  0101               	movlb	1	; () banked
  2738  0031D2  6FD2               	movwf	_Date& (0+255),b
  2739  0031D4  6BD3               	clrf	(_Date+1)& (0+255),b
  2740  0031D6                     
  2741                           ; BSR set to: 1
  2742                           ;RTC.c: 46:     Month = I2C_Read(0);
  2743  0031D6  0E00               	movlw	0
  2744  0031D8  ECC4  F01A         	call	_I2C_Read
  2745  0031DC  6E03               	movwf	??_RTC_Read_Calendar^0,c
  2746  0031DE  5003               	movf	??_RTC_Read_Calendar^0,w,c
  2747  0031E0  0101               	movlb	1	; () banked
  2748  0031E2  6FD0               	movwf	_Month& (0+255),b
  2749  0031E4  6BD1               	clrf	(_Month+1)& (0+255),b
  2750  0031E6                     
  2751                           ; BSR set to: 1
  2752                           ;RTC.c: 47:     Year = I2C_Read(1);
  2753  0031E6  0E01               	movlw	1
  2754  0031E8  ECC4  F01A         	call	_I2C_Read
  2755  0031EC  6E03               	movwf	??_RTC_Read_Calendar^0,c
  2756  0031EE  5003               	movf	??_RTC_Read_Calendar^0,w,c
  2757  0031F0  0101               	movlb	1	; () banked
  2758  0031F2  6FCE               	movwf	_Year& (0+255),b
  2759  0031F4  6BCF               	clrf	(_Year+1)& (0+255),b
  2760  0031F6                     
  2761                           ; BSR set to: 1
  2762                           ;RTC.c: 48:     I2C_Stop();
  2763  0031F6  EC7C  F01C         	call	_I2C_Stop	;wreg free
  2764  0031FA  0012               	return		;funcret
  2765  0031FC                     __end_of_RTC_Read_Calendar:
  2766                           	callstack 0
  2767                           
  2768 ;; *************** function _I2C_Stop *****************
  2769 ;; Defined at:
  2770 ;;		line 84 in file "I2C_Source_File.c"
  2771 ;; Parameters:    Size  Location     Type
  2772 ;;		None
  2773 ;; Auto vars:     Size  Location     Type
  2774 ;;		None
  2775 ;; Return value:  Size  Location     Type
  2776 ;;                  1    wreg      unsigned char 
  2777 ;; Registers used:
  2778 ;;		wreg
  2779 ;; Tracked objects:
  2780 ;;		On entry : 0/0
  2781 ;;		On exit  : 0/0
  2782 ;;		Unchanged: 0/0
  2783 ;; Data sizes:     COMRAM   BANK0   BANK1   BANK2   BANK3   BANK4   BANK5   BANK6   BANK7
  2784 ;;      Params:         0       0       0       0       0       0       0       0       0
  2785 ;;      Locals:         0       0       0       0       0       0       0       0       0
  2786 ;;      Temps:          0       0       0       0       0       0       0       0       0
  2787 ;;      Totals:         0       0       0       0       0       0       0       0       0
  2788 ;;Total ram usage:        0 bytes
  2789 ;; Hardware stack levels used: 1
  2790 ;; This function calls:
  2791 ;;		Nothing
  2792 ;; This function is called by:
  2793 ;;		_RTC_Read_Clock
  2794 ;;		_RTC_Read_Calendar
  2795 ;;		_RTC_obtener_hora
  2796 ;;		_I2C_Start_Wait
  2797 ;;		_RTC_Clock_Write
  2798 ;;		_RTC_Calendar_Write
  2799 ;; This function uses a non-reentrant model
  2800 ;;
  2801                           
  2802                           	psect	text11
  2803  0038F8                     __ptext11:
  2804                           	callstack 0
  2805  0038F8                     _I2C_Stop:
  2806                           	callstack 24
  2807  0038F8                     
  2808                           ;I2C_Source_File.c: 85:     PEN = 1;
  2809  0038F8  84C5               	bsf	4037,2,c	;volatile
  2810  0038FA                     l507:
  2811                           
  2812                           ;I2C_Source_File.c: 86:     while (PEN) {
  2813  0038FA  B4C5               	btfsc	4037,2,c	;volatile
  2814  0038FC  EF82  F01C         	goto	u3571
  2815  003900  EF84  F01C         	goto	u3570
  2816  003904                     u3571:
  2817  003904  EF7D  F01C         	goto	l507
  2818  003908                     u3570:
  2819  003908                     
  2820                           ;I2C_Source_File.c: 88:     if (!SSPSTATbits.P) {
  2821  003908  50C7               	movf	199,w,c	;volatile
  2822  00390A  0012               	return		;funcret
  2823  00390C                     __end_of_I2C_Stop:
  2824                           	callstack 0
  2825                           
  2826 ;; *************** function _I2C_Start *****************
  2827 ;; Defined at:
  2828 ;;		line 61 in file "I2C_Source_File.c"
  2829 ;; Parameters:    Size  Location     Type
  2830 ;;  slave_write_    1    wreg     unsigned char 
  2831 ;; Auto vars:     Size  Location     Type
  2832 ;;  slave_write_    1    1[COMRAM] unsigned char 
  2833 ;; Return value:  Size  Location     Type
  2834 ;;                  1    wreg      unsigned char 
  2835 ;; Registers used:
  2836 ;;		wreg, status,2, cstack
  2837 ;; Tracked objects:
  2838 ;;		On entry : 0/0
  2839 ;;		On exit  : 0/0
  2840 ;;		Unchanged: 0/0
  2841 ;; Data sizes:     COMRAM   BANK0   BANK1   BANK2   BANK3   BANK4   BANK5   BANK6   BANK7
  2842 ;;      Params:         0       0       0       0       0       0       0       0       0
  2843 ;;      Locals:         1       0       0       0       0       0       0       0       0
  2844 ;;      Temps:          0       0       0       0       0       0       0       0       0
  2845 ;;      Totals:         1       0       0       0       0       0       0       0       0
  2846 ;;Total ram usage:        1 bytes
  2847 ;; Hardware stack levels used: 1
  2848 ;; Hardware stack levels required when called: 2
  2849 ;; This function calls:
  2850 ;;		_I2C_Write
  2851 ;; This function is called by:
  2852 ;;		_RTC_Read_Clock
  2853 ;;		_RTC_Read_Calendar
  2854 ;;		_RTC_Clock_Write
  2855 ;;		_RTC_Calendar_Write
  2856 ;; This function uses a non-reentrant model
  2857 ;;
  2858                           
  2859                           	psect	text12
  2860  003762                     __ptext12:
  2861                           	callstack 0
  2862  003762                     _I2C_Start:
  2863                           	callstack 22
  2864                           
  2865                           ;incstack = 0
  2866                           ;I2C_Start@slave_write_address stored from wreg
  2867  003762  6E02               	movwf	I2C_Start@slave_write_address^0,c
  2868  003764                     
  2869                           ;I2C_Source_File.c: 62:     SSPCON2bits.SEN = 1;
  2870  003764  80C5               	bsf	197,0,c	;volatile
  2871  003766                     l491:
  2872  003766  B0C5               	btfsc	197,0,c	;volatile
  2873  003768  EFB8  F01B         	goto	u3581
  2874  00376C  EFBA  F01B         	goto	u3580
  2875  003770                     u3581:
  2876  003770  EFB3  F01B         	goto	l491
  2877  003774                     u3580:
  2878  003774                     
  2879                           ;I2C_Source_File.c: 64:     SSPIF = 0;
  2880  003774  969E               	bcf	3998,3,c	;volatile
  2881                           
  2882                           ;I2C_Source_File.c: 65:     if (!SSPSTATbits.S)
  2883  003776  B6C7               	btfsc	199,3,c	;volatile
  2884  003778  EFC0  F01B         	goto	u3591
  2885  00377C  EFC2  F01B         	goto	u3590
  2886  003780                     u3591:
  2887  003780  EFC4  F01B         	goto	l3759
  2888  003784                     u3590:
  2889  003784  EFC7  F01B         	goto	l495
  2890  003788                     l3759:
  2891                           
  2892                           ;I2C_Source_File.c: 67:     return (I2C_Write(slave_write_address));;	Return value of _I
      +                          2C_Start is never used
  2893  003788  5002               	movf	I2C_Start@slave_write_address^0,w,c
  2894  00378A  EC1D  F01C         	call	_I2C_Write
  2895  00378E                     l495:
  2896  00378E  0012               	return		;funcret
  2897  003790                     __end_of_I2C_Start:
  2898                           	callstack 0
  2899                           
  2900 ;; *************** function _I2C_Repeated_Start *****************
  2901 ;; Defined at:
  2902 ;;		line 71 in file "I2C_Source_File.c"
  2903 ;; Parameters:    Size  Location     Type
  2904 ;;  slave_read_a    1    wreg     unsigned char 
  2905 ;; Auto vars:     Size  Location     Type
  2906 ;;  slave_read_a    1    1[COMRAM] unsigned char 
  2907 ;; Return value:  Size  Location     Type
  2908 ;;                  1    wreg      unsigned char 
  2909 ;; Registers used:
  2910 ;;		wreg, status,2, cstack
  2911 ;; Tracked objects:
  2912 ;;		On entry : 0/0
  2913 ;;		On exit  : 0/0
  2914 ;;		Unchanged: 0/0
  2915 ;; Data sizes:     COMRAM   BANK0   BANK1   BANK2   BANK3   BANK4   BANK5   BANK6   BANK7
  2916 ;;      Params:         0       0       0       0       0       0       0       0       0
  2917 ;;      Locals:         1       0       0       0       0       0       0       0       0
  2918 ;;      Temps:          0       0       0       0       0       0       0       0       0
  2919 ;;      Totals:         1       0       0       0       0       0       0       0       0
  2920 ;;Total ram usage:        1 bytes
  2921 ;; Hardware stack levels used: 1
  2922 ;; Hardware stack levels required when called: 2
  2923 ;; This function calls:
  2924 ;;		_I2C_Write
  2925 ;; This function is called by:
  2926 ;;		_RTC_Read_Clock
  2927 ;;		_RTC_Read_Calendar
  2928 ;; This function uses a non-reentrant model
  2929 ;;
  2930                           
  2931                           	psect	text13
  2932  003790                     __ptext13:
  2933                           	callstack 0
  2934  003790                     _I2C_Repeated_Start:
  2935                           	callstack 22
  2936                           
  2937                           ;incstack = 0
  2938                           ;I2C_Repeated_Start@slave_read_address stored from wreg
  2939  003790  6E02               	movwf	I2C_Repeated_Start@slave_read_address^0,c
  2940  003792                     
  2941                           ;I2C_Source_File.c: 72:     RSEN = 1;
  2942  003792  82C5               	bsf	4037,1,c	;volatile
  2943  003794                     l498:
  2944  003794  B2C5               	btfsc	4037,1,c	;volatile
  2945  003796  EFCF  F01B         	goto	u3601
  2946  00379A  EFD1  F01B         	goto	u3600
  2947  00379E                     u3601:
  2948  00379E  EFCA  F01B         	goto	l498
  2949  0037A2                     u3600:
  2950  0037A2                     
  2951                           ;I2C_Source_File.c: 74:     SSPIF = 0;
  2952  0037A2  969E               	bcf	3998,3,c	;volatile
  2953                           
  2954                           ;I2C_Source_File.c: 75:     if (!SSPSTATbits.S)
  2955  0037A4  B6C7               	btfsc	199,3,c	;volatile
  2956  0037A6  EFD7  F01B         	goto	u3611
  2957  0037AA  EFD9  F01B         	goto	u3610
  2958  0037AE                     u3611:
  2959  0037AE  EFDB  F01B         	goto	l3767
  2960  0037B2                     u3610:
  2961  0037B2  EFDE  F01B         	goto	l502
  2962  0037B6                     l3767:
  2963                           
  2964                           ;I2C_Source_File.c: 77:     I2C_Write(slave_read_address);
  2965  0037B6  5002               	movf	I2C_Repeated_Start@slave_read_address^0,w,c
  2966  0037B8  EC1D  F01C         	call	_I2C_Write
  2967  0037BC                     l502:
  2968  0037BC  0012               	return		;funcret
  2969  0037BE                     __end_of_I2C_Repeated_Start:
  2970                           	callstack 0
  2971                           
  2972 ;; *************** function _I2C_Write *****************
  2973 ;; Defined at:
  2974 ;;		line 93 in file "I2C_Source_File.c"
  2975 ;; Parameters:    Size  Location     Type
  2976 ;;  data            1    wreg     unsigned char 
  2977 ;; Auto vars:     Size  Location     Type
  2978 ;;  data            1    0[COMRAM] unsigned char 
  2979 ;; Return value:  Size  Location     Type
  2980 ;;                  1    wreg      unsigned char 
  2981 ;; Registers used:
  2982 ;;		wreg, cstack
  2983 ;; Tracked objects:
  2984 ;;		On entry : 0/0
  2985 ;;		On exit  : 0/0
  2986 ;;		Unchanged: 0/0
  2987 ;; Data sizes:     COMRAM   BANK0   BANK1   BANK2   BANK3   BANK4   BANK5   BANK6   BANK7
  2988 ;;      Params:         0       0       0       0       0       0       0       0       0
  2989 ;;      Locals:         1       0       0       0       0       0       0       0       0
  2990 ;;      Temps:          0       0       0       0       0       0       0       0       0
  2991 ;;      Totals:         1       0       0       0       0       0       0       0       0
  2992 ;;Total ram usage:        1 bytes
  2993 ;; Hardware stack levels used: 1
  2994 ;; Hardware stack levels required when called: 1
  2995 ;; This function calls:
  2996 ;;		_I2C_Ready
  2997 ;; This function is called by:
  2998 ;;		_I2C_Start
  2999 ;;		_I2C_Repeated_Start
  3000 ;;		_RTC_Read_Clock
  3001 ;;		_RTC_Read_Calendar
  3002 ;;		_I2C_Start_Wait
  3003 ;;		_RTC_Clock_Write
  3004 ;;		_RTC_Calendar_Write
  3005 ;; This function uses a non-reentrant model
  3006 ;;
  3007                           
  3008                           	psect	text14
  3009  00383A                     __ptext14:
  3010                           	callstack 0
  3011  00383A                     _I2C_Write:
  3012                           	callstack 23
  3013                           
  3014                           ;incstack = 0
  3015                           ;I2C_Write@data stored from wreg
  3016  00383A  6E01               	movwf	I2C_Write@data^0,c
  3017  00383C                     
  3018                           ;I2C_Source_File.c: 94:     SSPBUF = data;
  3019  00383C  C001  FFC9         	movff	I2C_Write@data,4041	;volatile
  3020  003840                     
  3021                           ;I2C_Source_File.c: 95:     I2C_Ready();
  3022  003840  EC9A  F01C         	call	_I2C_Ready	;wreg free
  3023  003844                     
  3024                           ;I2C_Source_File.c: 96:     if (ACKSTAT)
  3025  003844  ACC5               	btfss	4037,6,c	;volatile
  3026  003846  EF27  F01C         	goto	u3471
  3027  00384A  EF29  F01C         	goto	u3470
  3028  00384E                     u3471:
  3029  00384E  EF2C  F01C         	goto	l3673
  3030  003852                     u3470:
  3031  003852                     
  3032                           ;I2C_Source_File.c: 97:         return 1;
  3033  003852  0E01               	movlw	1
  3034  003854  EF2D  F01C         	goto	l515
  3035  003858                     l3673:
  3036                           
  3037                           ;I2C_Source_File.c: 99:         return 2;
  3038  003858  0E02               	movlw	2
  3039  00385A                     l515:
  3040  00385A  0012               	return		;funcret
  3041  00385C                     __end_of_I2C_Write:
  3042                           	callstack 0
  3043                           
  3044 ;; *************** function _I2C_Read *****************
  3045 ;; Defined at:
  3046 ;;		line 12 in file "I2C_Source_File.c"
  3047 ;; Parameters:    Size  Location     Type
  3048 ;;  flag            1    wreg     unsigned char 
  3049 ;; Auto vars:     Size  Location     Type
  3050 ;;  flag            1    0[COMRAM] unsigned char 
  3051 ;;  buffer          1    1[COMRAM] unsigned char 
  3052 ;; Return value:  Size  Location     Type
  3053 ;;                  1    wreg      unsigned char 
  3054 ;; Registers used:
  3055 ;;		wreg, status,2, cstack
  3056 ;; Tracked objects:
  3057 ;;		On entry : 0/0
  3058 ;;		On exit  : 0/0
  3059 ;;		Unchanged: 0/0
  3060 ;; Data sizes:     COMRAM   BANK0   BANK1   BANK2   BANK3   BANK4   BANK5   BANK6   BANK7
  3061 ;;      Params:         0       0       0       0       0       0       0       0       0
  3062 ;;      Locals:         2       0       0       0       0       0       0       0       0
  3063 ;;      Temps:          0       0       0       0       0       0       0       0       0
  3064 ;;      Totals:         2       0       0       0       0       0       0       0       0
  3065 ;;Total ram usage:        2 bytes
  3066 ;; Hardware stack levels used: 1
  3067 ;; Hardware stack levels required when called: 1
  3068 ;; This function calls:
  3069 ;;		_I2C_Ack
  3070 ;;		_I2C_Nack
  3071 ;;		_I2C_Ready
  3072 ;; This function is called by:
  3073 ;;		_RTC_Read_Clock
  3074 ;;		_RTC_Read_Calendar
  3075 ;; This function uses a non-reentrant model
  3076 ;;
  3077                           
  3078                           	psect	text15
  3079  003588                     __ptext15:
  3080                           	callstack 0
  3081  003588                     _I2C_Read:
  3082                           	callstack 23
  3083                           
  3084                           ;incstack = 0
  3085                           ;I2C_Read@flag stored from wreg
  3086  003588  6E01               	movwf	I2C_Read@flag^0,c
  3087  00358A                     
  3088                           ;I2C_Source_File.c: 12: char I2C_Read(char flag) {;I2C_Source_File.c: 13: ;I2C_Source_Fi
      +                          le.c: 14:     char buffer;;I2C_Source_File.c: 15:     RCEN = 1;
  3089  00358A  86C5               	bsf	4037,3,c	;volatile
  3090  00358C                     l463:
  3091  00358C  A0C7               	btfss	199,0,c	;volatile
  3092  00358E  EFCB  F01A         	goto	u3551
  3093  003592  EFCD  F01A         	goto	u3550
  3094  003596                     u3551:
  3095  003596  EFC6  F01A         	goto	l463
  3096  00359A                     u3550:
  3097  00359A                     
  3098                           ;I2C_Source_File.c: 18:     buffer = SSPBUF;
  3099  00359A  CFC9 F002          	movff	4041,I2C_Read@buffer	;volatile
  3100  00359E                     
  3101                           ;I2C_Source_File.c: 20:     if (flag == 0)
  3102  00359E  5001               	movf	I2C_Read@flag^0,w,c
  3103  0035A0  A4D8               	btfss	status,2,c
  3104  0035A2  EFD5  F01A         	goto	u3561
  3105  0035A6  EFD7  F01A         	goto	u3560
  3106  0035AA                     u3561:
  3107  0035AA  EFDB  F01A         	goto	l3747
  3108  0035AE                     u3560:
  3109  0035AE                     
  3110                           ;I2C_Source_File.c: 21:         I2C_Ack();
  3111  0035AE  EC90  F01C         	call	_I2C_Ack	;wreg free
  3112  0035B2  EFDD  F01A         	goto	l467
  3113  0035B6                     l3747:
  3114                           
  3115                           ;I2C_Source_File.c: 23:         I2C_Nack();
  3116  0035B6  EC86  F01C         	call	_I2C_Nack	;wreg free
  3117  0035BA                     l467:
  3118                           
  3119                           ;I2C_Source_File.c: 24:     I2C_Ready();
  3120  0035BA  EC9A  F01C         	call	_I2C_Ready	;wreg free
  3121  0035BE                     
  3122                           ;I2C_Source_File.c: 25:     return (buffer);
  3123  0035BE  5002               	movf	I2C_Read@buffer^0,w,c
  3124  0035C0  0012               	return		;funcret
  3125  0035C2                     __end_of_I2C_Read:
  3126                           	callstack 0
  3127                           
  3128 ;; *************** function _I2C_Ready *****************
  3129 ;; Defined at:
  3130 ;;		line 40 in file "I2C_Source_File.c"
  3131 ;; Parameters:    Size  Location     Type
  3132 ;;		None
  3133 ;; Auto vars:     Size  Location     Type
  3134 ;;		None
  3135 ;; Return value:  Size  Location     Type
  3136 ;;                  1    wreg      void 
  3137 ;; Registers used:
  3138 ;;		None
  3139 ;; Tracked objects:
  3140 ;;		On entry : 0/0
  3141 ;;		On exit  : 0/0
  3142 ;;		Unchanged: 0/0
  3143 ;; Data sizes:     COMRAM   BANK0   BANK1   BANK2   BANK3   BANK4   BANK5   BANK6   BANK7
  3144 ;;      Params:         0       0       0       0       0       0       0       0       0
  3145 ;;      Locals:         0       0       0       0       0       0       0       0       0
  3146 ;;      Temps:          0       0       0       0       0       0       0       0       0
  3147 ;;      Totals:         0       0       0       0       0       0       0       0       0
  3148 ;;Total ram usage:        0 bytes
  3149 ;; Hardware stack levels used: 1
  3150 ;; This function calls:
  3151 ;;		Nothing
  3152 ;; This function is called by:
  3153 ;;		_I2C_Read
  3154 ;;		_I2C_Write
  3155 ;; This function uses a non-reentrant model
  3156 ;;
  3157                           
  3158                           	psect	text16
  3159  003934                     __ptext16:
  3160                           	callstack 0
  3161  003934                     _I2C_Ready:
  3162                           	callstack 23
  3163  003934                     l474:
  3164  003934  A69E               	btfss	3998,3,c	;volatile
  3165  003936  EF9F  F01C         	goto	u3031
  3166  00393A  EFA1  F01C         	goto	u3030
  3167  00393E                     u3031:
  3168  00393E  EF9A  F01C         	goto	l474
  3169  003942                     u3030:
  3170  003942                     
  3171                           ;I2C_Source_File.c: 42:     SSPIF = 0;
  3172  003942  969E               	bcf	3998,3,c	;volatile
  3173  003944  0012               	return		;funcret
  3174  003946                     __end_of_I2C_Ready:
  3175                           	callstack 0
  3176                           
  3177 ;; *************** function _I2C_Nack *****************
  3178 ;; Defined at:
  3179 ;;		line 108 in file "I2C_Source_File.c"
  3180 ;; Parameters:    Size  Location     Type
  3181 ;;		None
  3182 ;; Auto vars:     Size  Location     Type
  3183 ;;		None
  3184 ;; Return value:  Size  Location     Type
  3185 ;;                  1    wreg      void 
  3186 ;; Registers used:
  3187 ;;		None
  3188 ;; Tracked objects:
  3189 ;;		On entry : 0/0
  3190 ;;		On exit  : 0/0
  3191 ;;		Unchanged: 0/0
  3192 ;; Data sizes:     COMRAM   BANK0   BANK1   BANK2   BANK3   BANK4   BANK5   BANK6   BANK7
  3193 ;;      Params:         0       0       0       0       0       0       0       0       0
  3194 ;;      Locals:         0       0       0       0       0       0       0       0       0
  3195 ;;      Temps:          0       0       0       0       0       0       0       0       0
  3196 ;;      Totals:         0       0       0       0       0       0       0       0       0
  3197 ;;Total ram usage:        0 bytes
  3198 ;; Hardware stack levels used: 1
  3199 ;; This function calls:
  3200 ;;		Nothing
  3201 ;; This function is called by:
  3202 ;;		_I2C_Read
  3203 ;; This function uses a non-reentrant model
  3204 ;;
  3205                           
  3206                           	psect	text17
  3207  00390C                     __ptext17:
  3208                           	callstack 0
  3209  00390C                     _I2C_Nack:
  3210                           	callstack 23
  3211  00390C                     
  3212                           ;I2C_Source_File.c: 109:     ACKDT = 1;
  3213  00390C  8AC5               	bsf	4037,5,c	;volatile
  3214                           
  3215                           ;I2C_Source_File.c: 110:     ACKEN = 1;
  3216  00390E  88C5               	bsf	4037,4,c	;volatile
  3217  003910                     l525:
  3218  003910  B8C5               	btfsc	4037,4,c	;volatile
  3219  003912  EF8D  F01C         	goto	u3461
  3220  003916  EF8F  F01C         	goto	u3460
  3221  00391A                     u3461:
  3222  00391A  EF88  F01C         	goto	l525
  3223  00391E                     u3460:
  3224  00391E  0012               	return		;funcret
  3225  003920                     __end_of_I2C_Nack:
  3226                           	callstack 0
  3227                           
  3228 ;; *************** function _I2C_Ack *****************
  3229 ;; Defined at:
  3230 ;;		line 102 in file "I2C_Source_File.c"
  3231 ;; Parameters:    Size  Location     Type
  3232 ;;		None
  3233 ;; Auto vars:     Size  Location     Type
  3234 ;;		None
  3235 ;; Return value:  Size  Location     Type
  3236 ;;                  1    wreg      void 
  3237 ;; Registers used:
  3238 ;;		None
  3239 ;; Tracked objects:
  3240 ;;		On entry : 0/0
  3241 ;;		On exit  : 0/0
  3242 ;;		Unchanged: 0/0
  3243 ;; Data sizes:     COMRAM   BANK0   BANK1   BANK2   BANK3   BANK4   BANK5   BANK6   BANK7
  3244 ;;      Params:         0       0       0       0       0       0       0       0       0
  3245 ;;      Locals:         0       0       0       0       0       0       0       0       0
  3246 ;;      Temps:          0       0       0       0       0       0       0       0       0
  3247 ;;      Totals:         0       0       0       0       0       0       0       0       0
  3248 ;;Total ram usage:        0 bytes
  3249 ;; Hardware stack levels used: 1
  3250 ;; This function calls:
  3251 ;;		Nothing
  3252 ;; This function is called by:
  3253 ;;		_I2C_Read
  3254 ;; This function uses a non-reentrant model
  3255 ;;
  3256                           
  3257                           	psect	text18
  3258  003920                     __ptext18:
  3259                           	callstack 0
  3260  003920                     _I2C_Ack:
  3261                           	callstack 23
  3262  003920                     
  3263                           ;I2C_Source_File.c: 103:     ACKDT = 0;
  3264  003920  9AC5               	bcf	4037,5,c	;volatile
  3265                           
  3266                           ;I2C_Source_File.c: 104:     ACKEN = 1;
  3267  003922  88C5               	bsf	4037,4,c	;volatile
  3268  003924                     l519:
  3269  003924  B8C5               	btfsc	4037,4,c	;volatile
  3270  003926  EF97  F01C         	goto	u3451
  3271  00392A  EF99  F01C         	goto	u3450
  3272  00392E                     u3451:
  3273  00392E  EF92  F01C         	goto	l519
  3274  003932                     u3450:
  3275  003932  0012               	return		;funcret
  3276  003934                     __end_of_I2C_Ack:
  3277                           	callstack 0
  3278                           
  3279 ;; *************** function _USART_SendString *****************
  3280 ;; Defined at:
  3281 ;;		line 38 in file "USART_Source_File.c"
  3282 ;; Parameters:    Size  Location     Type
  3283 ;;  out             2    1[COMRAM] PTR const unsigned char 
  3284 ;;		 -> mostrar_estadistica@mensaje_usart_840(100), mostrar_estadistica@mensaje_usart_838(100), mostrar_estadistica@mens
      +aje_usart(100), 
  3285 ;; Auto vars:     Size  Location     Type
  3286 ;;		None
  3287 ;; Return value:  Size  Location     Type
  3288 ;;                  1    wreg      void 
  3289 ;; Registers used:
  3290 ;;		wreg, fsr2l, fsr2h, status,2, status,0, cstack
  3291 ;; Tracked objects:
  3292 ;;		On entry : 0/0
  3293 ;;		On exit  : 0/0
  3294 ;;		Unchanged: 0/0
  3295 ;; Data sizes:     COMRAM   BANK0   BANK1   BANK2   BANK3   BANK4   BANK5   BANK6   BANK7
  3296 ;;      Params:         2       0       0       0       0       0       0       0       0
  3297 ;;      Locals:         0       0       0       0       0       0       0       0       0
  3298 ;;      Temps:          0       0       0       0       0       0       0       0       0
  3299 ;;      Totals:         2       0       0       0       0       0       0       0       0
  3300 ;;Total ram usage:        2 bytes
  3301 ;; Hardware stack levels used: 1
  3302 ;; Hardware stack levels required when called: 1
  3303 ;; This function calls:
  3304 ;;		_USART_TxChar
  3305 ;; This function is called by:
  3306 ;;		_mostrar_estadistica
  3307 ;; This function uses a non-reentrant model
  3308 ;;
  3309                           
  3310                           	psect	text19
  3311  003704                     __ptext19:
  3312                           	callstack 0
  3313  003704                     _USART_SendString:
  3314                           	callstack 26
  3315  003704                     
  3316                           ;USART_Source_File.c: 39:     while (*out != '\0') {
  3317  003704  EF8D  F01B         	goto	l3937
  3318  003708                     l3933:
  3319                           
  3320                           ;USART_Source_File.c: 40:         USART_TxChar(*out);
  3321  003708  C002  FFD9         	movff	USART_SendString@out,fsr2l
  3322  00370C  C003  FFDA         	movff	USART_SendString@out+1,fsr2h
  3323  003710  50DF               	movf	indf2,w,c
  3324  003712  EC66  F01C         	call	_USART_TxChar
  3325  003716                     
  3326                           ;USART_Source_File.c: 41:         out++;
  3327  003716  4A02               	infsnz	USART_SendString@out^0,f,c
  3328  003718  2A03               	incf	(USART_SendString@out+1)^0,f,c
  3329  00371A                     l3937:
  3330                           
  3331                           ;USART_Source_File.c: 39:     while (*out != '\0') {
  3332  00371A  C002  FFD9         	movff	USART_SendString@out,fsr2l
  3333  00371E  C003  FFDA         	movff	USART_SendString@out+1,fsr2h
  3334  003722  50DF               	movf	indf2,w,c
  3335  003724  A4D8               	btfss	status,2,c
  3336  003726  EF97  F01B         	goto	u3711
  3337  00372A  EF99  F01B         	goto	u3710
  3338  00372E                     u3711:
  3339  00372E  EF84  F01B         	goto	l3933
  3340  003732                     u3710:
  3341  003732  0012               	return		;funcret
  3342  003734                     __end_of_USART_SendString:
  3343                           	callstack 0
  3344                           
  3345 ;; *************** function _USART_TxChar *****************
  3346 ;; Defined at:
  3347 ;;		line 19 in file "USART_Source_File.c"
  3348 ;; Parameters:    Size  Location     Type
  3349 ;;  out             1    wreg     unsigned char 
  3350 ;; Auto vars:     Size  Location     Type
  3351 ;;  out             1    0[COMRAM] unsigned char 
  3352 ;; Return value:  Size  Location     Type
  3353 ;;                  1    wreg      void 
  3354 ;; Registers used:
  3355 ;;		wreg
  3356 ;; Tracked objects:
  3357 ;;		On entry : 0/0
  3358 ;;		On exit  : 0/0
  3359 ;;		Unchanged: 0/0
  3360 ;; Data sizes:     COMRAM   BANK0   BANK1   BANK2   BANK3   BANK4   BANK5   BANK6   BANK7
  3361 ;;      Params:         0       0       0       0       0       0       0       0       0
  3362 ;;      Locals:         1       0       0       0       0       0       0       0       0
  3363 ;;      Temps:          0       0       0       0       0       0       0       0       0
  3364 ;;      Totals:         1       0       0       0       0       0       0       0       0
  3365 ;;Total ram usage:        1 bytes
  3366 ;; Hardware stack levels used: 1
  3367 ;; This function calls:
  3368 ;;		Nothing
  3369 ;; This function is called by:
  3370 ;;		_USART_SendString
  3371 ;; This function uses a non-reentrant model
  3372 ;;
  3373                           
  3374                           	psect	text20
  3375  0038CC                     __ptext20:
  3376                           	callstack 0
  3377  0038CC                     _USART_TxChar:
  3378                           	callstack 26
  3379                           
  3380                           ;incstack = 0
  3381                           ;USART_TxChar@out stored from wreg
  3382  0038CC  6E01               	movwf	USART_TxChar@out^0,c
  3383  0038CE                     l400:
  3384  0038CE  A89E               	btfss	3998,4,c	;volatile
  3385  0038D0  EF6C  F01C         	goto	u3641
  3386  0038D4  EF6E  F01C         	goto	u3640
  3387  0038D8                     u3641:
  3388  0038D8  EF67  F01C         	goto	l400
  3389  0038DC                     u3640:
  3390  0038DC                     
  3391                           ;USART_Source_File.c: 21:     TXREG = out;
  3392  0038DC  C001  FFAD         	movff	USART_TxChar@out,4013	;volatile
  3393  0038E0  0012               	return		;funcret
  3394  0038E2                     __end_of_USART_TxChar:
  3395                           	callstack 0
  3396                           
  3397 ;; *************** function _mostrar_emoticon *****************
  3398 ;; Defined at:
  3399 ;;		line 142 in file "LCD.c"
  3400 ;; Parameters:    Size  Location     Type
  3401 ;;  i               1    wreg     unsigned char 
  3402 ;; Auto vars:     Size  Location     Type
  3403 ;;  i               1    2[COMRAM] unsigned char 
  3404 ;; Return value:  Size  Location     Type
  3405 ;;                  1    wreg      void 
  3406 ;; Registers used:
  3407 ;;		wreg, status,2, status,0, prodl, prodh, cstack
  3408 ;; Tracked objects:
  3409 ;;		On entry : 0/0
  3410 ;;		On exit  : 0/0
  3411 ;;		Unchanged: 0/0
  3412 ;; Data sizes:     COMRAM   BANK0   BANK1   BANK2   BANK3   BANK4   BANK5   BANK6   BANK7
  3413 ;;      Params:         0       0       0       0       0       0       0       0       0
  3414 ;;      Locals:         1       0       0       0       0       0       0       0       0
  3415 ;;      Temps:          0       0       0       0       0       0       0       0       0
  3416 ;;      Totals:         1       0       0       0       0       0       0       0       0
  3417 ;;Total ram usage:        1 bytes
  3418 ;; Hardware stack levels used: 1
  3419 ;; Hardware stack levels required when called: 1
  3420 ;; This function calls:
  3421 ;;		_LCD_Char
  3422 ;;		_LCD_Command
  3423 ;; This function is called by:
  3424 ;;		_validar
  3425 ;; This function uses a non-reentrant model
  3426 ;;
  3427                           
  3428                           	psect	text21
  3429  0038E2                     __ptext21:
  3430                           	callstack 0
  3431  0038E2                     _mostrar_emoticon:
  3432                           	callstack 27
  3433                           
  3434                           ;incstack = 0
  3435                           ;mostrar_emoticon@i stored from wreg
  3436  0038E2  6E03               	movwf	mostrar_emoticon@i^0,c
  3437  0038E4                     
  3438                           ;LCD.c: 144:     LCD_Command(0x80 | (i * 2));
  3439  0038E4  5003               	movf	mostrar_emoticon@i^0,w,c
  3440  0038E6  0D02               	mullw	2
  3441  0038E8  50F3               	movf	243,w,c
  3442  0038EA  0980               	iorlw	128
  3443  0038EC  EC27  F019         	call	_LCD_Command
  3444  0038F0                     
  3445                           ;LCD.c: 145:     LCD_Char(i);
  3446  0038F0  5003               	movf	mostrar_emoticon@i^0,w,c
  3447  0038F2  EC4F  F019         	call	_LCD_Char
  3448  0038F6  0012               	return		;funcret
  3449  0038F8                     __end_of_mostrar_emoticon:
  3450                           	callstack 0
  3451                           
  3452 ;; *************** function _sensor_temperatura *****************
  3453 ;; Defined at:
  3454 ;;		line 76 in file "sensores.c"
  3455 ;; Parameters:    Size  Location     Type
  3456 ;;		None
  3457 ;; Auto vars:     Size  Location     Type
  3458 ;;		None
  3459 ;; Return value:  Size  Location     Type
  3460 ;;                  2   49[COMRAM] int 
  3461 ;; Registers used:
  3462 ;;		wreg, status,2, status,0, prodl, prodh, cstack
  3463 ;; Tracked objects:
  3464 ;;		On entry : 0/0
  3465 ;;		On exit  : 0/0
  3466 ;;		Unchanged: 0/0
  3467 ;; Data sizes:     COMRAM   BANK0   BANK1   BANK2   BANK3   BANK4   BANK5   BANK6   BANK7
  3468 ;;      Params:         2       0       0       0       0       0       0       0       0
  3469 ;;      Locals:         0       0       0       0       0       0       0       0       0
  3470 ;;      Temps:          0       0       0       0       0       0       0       0       0
  3471 ;;      Totals:         2       0       0       0       0       0       0       0       0
  3472 ;;Total ram usage:        2 bytes
  3473 ;; Hardware stack levels used: 1
  3474 ;; Hardware stack levels required when called: 2
  3475 ;; This function calls:
  3476 ;;		___flmul
  3477 ;;		___fltol
  3478 ;;		___xxtofl
  3479 ;;		_adc_init10Bits
  3480 ;;		_adc_read10Bits
  3481 ;; This function is called by:
  3482 ;;		_principal
  3483 ;; This function uses a non-reentrant model
  3484 ;;
  3485                           
  3486                           	psect	text22
  3487  002F1A                     __ptext22:
  3488                           	callstack 0
  3489  002F1A                     _sensor_temperatura:
  3490                           	callstack 27
  3491  002F1A                     
  3492                           ;sensores.c: 77:     TRISAbits.RA0 = 1;
  3493  002F1A  8092               	bsf	146,0,c	;volatile
  3494  002F1C                     
  3495                           ;sensores.c: 78:     adc_init10Bits(0);
  3496  002F1C  0E00               	movlw	0
  3497  002F1E  6E04               	movwf	(adc_init10Bits@canal+1)^0,c
  3498  002F20  0E00               	movlw	0
  3499  002F22  6E03               	movwf	adc_init10Bits@canal^0,c
  3500  002F24  ECA3  F01C         	call	_adc_init10Bits	;wreg free
  3501  002F28                     
  3502                           ;sensores.c: 79:     value_adc = adc_read10Bits();
  3503  002F28  ECDF  F01B         	call	_adc_read10Bits	;wreg free
  3504  002F2C  C001  F1DE         	movff	?_adc_read10Bits,_value_adc
  3505  002F30  C002  F1DF         	movff	?_adc_read10Bits+1,_value_adc+1
  3506  002F34                     
  3507                           ;sensores.c: 80:     val_temp = (int) value_adc * 0.4887;
  3508  002F34  0EE3               	movlw	227
  3509  002F36  6E13               	movwf	___flmul@a^0,c
  3510  002F38  0E36               	movlw	54
  3511  002F3A  6E14               	movwf	(___flmul@a+1)^0,c
  3512  002F3C  0EFA               	movlw	250
  3513  002F3E  6E15               	movwf	(___flmul@a+2)^0,c
  3514  002F40  0E3E               	movlw	62
  3515  002F42  6E16               	movwf	(___flmul@a+3)^0,c
  3516  002F44  C1DE  F001         	movff	_value_adc,___xxtofl@val
  3517  002F48  C1DF  F002         	movff	_value_adc+1,___xxtofl@val+1
  3518  002F4C  0E00               	movlw	0
  3519  002F4E  BE02               	btfsc	(___xxtofl@val+1)^0,7,c
  3520  002F50  0EFF               	movlw	-1
  3521  002F52  6E03               	movwf	(___xxtofl@val+2)^0,c
  3522  002F54  6E04               	movwf	(___xxtofl@val+3)^0,c
  3523  002F56  0E01               	movlw	1
  3524  002F58  EC0F  F010         	call	___xxtofl
  3525  002F5C  C001  F00F         	movff	?___xxtofl,___flmul@b
  3526  002F60  C002  F010         	movff	?___xxtofl+1,___flmul@b+1
  3527  002F64  C003  F011         	movff	?___xxtofl+2,___flmul@b+2
  3528  002F68  C004  F012         	movff	?___xxtofl+3,___flmul@b+3
  3529  002F6C  ECC7  F006         	call	___flmul	;wreg free
  3530  002F70  C00F  F028         	movff	?___flmul,___fltol@f1
  3531  002F74  C010  F029         	movff	?___flmul+1,___fltol@f1+1
  3532  002F78  C011  F02A         	movff	?___flmul+2,___fltol@f1+2
  3533  002F7C  C012  F02B         	movff	?___flmul+3,___fltol@f1+3
  3534  002F80  EC22  F013         	call	___fltol	;wreg free
  3535  002F84  C028  F1E0         	movff	?___fltol,_val_temp
  3536  002F88  C029  F1E1         	movff	?___fltol+1,_val_temp+1
  3537  002F8C                     
  3538                           ;sensores.c: 81:     return val_temp;
  3539  002F8C  C1E0  F032         	movff	_val_temp,?_sensor_temperatura
  3540  002F90  C1E1  F033         	movff	_val_temp+1,?_sensor_temperatura+1
  3541  002F94  0012               	return		;funcret
  3542  002F96                     __end_of_sensor_temperatura:
  3543                           	callstack 0
  3544                           
  3545 ;; *************** function ___flmul *****************
  3546 ;; Defined at:
  3547 ;;		line 8 in file "D:\mplab\pic\sources\c99\common\sprcmul.c"
  3548 ;; Parameters:    Size  Location     Type
  3549 ;;  b               4   14[COMRAM] int 
  3550 ;;  a               4   18[COMRAM] int 
  3551 ;; Auto vars:     Size  Location     Type
  3552 ;;  prod            4   33[COMRAM] struct .
  3553 ;;  grs             4   27[COMRAM] unsigned long 
  3554 ;;  temp            2   37[COMRAM] struct .
  3555 ;;  bexp            1   32[COMRAM] unsigned char 
  3556 ;;  aexp            1   31[COMRAM] unsigned char 
  3557 ;;  sign            1   26[COMRAM] unsigned char 
  3558 ;; Return value:  Size  Location     Type
  3559 ;;                  4   14[COMRAM] unsigned char 
  3560 ;; Registers used:
  3561 ;;		wreg, status,2, status,0, prodl, prodh
  3562 ;; Tracked objects:
  3563 ;;		On entry : 0/0
  3564 ;;		On exit  : 0/0
  3565 ;;		Unchanged: 0/0
  3566 ;; Data sizes:     COMRAM   BANK0   BANK1   BANK2   BANK3   BANK4   BANK5   BANK6   BANK7
  3567 ;;      Params:         8       0       0       0       0       0       0       0       0
  3568 ;;      Locals:        13       0       0       0       0       0       0       0       0
  3569 ;;      Temps:          4       0       0       0       0       0       0       0       0
  3570 ;;      Totals:        25       0       0       0       0       0       0       0       0
  3571 ;;Total ram usage:       25 bytes
  3572 ;; Hardware stack levels used: 1
  3573 ;; This function calls:
  3574 ;;		Nothing
  3575 ;; This function is called by:
  3576 ;;		_sensor_temperatura
  3577 ;; This function uses a non-reentrant model
  3578 ;;
  3579                           
  3580                           	psect	text23
  3581  000D8E                     __ptext23:
  3582                           	callstack 0
  3583  000D8E                     ___flmul:
  3584                           	callstack 28
  3585  000D8E  5012               	movf	(___flmul@b+3)^0,w,c
  3586  000D90  0B80               	andlw	128
  3587  000D92  6E1B               	movwf	___flmul@sign^0,c
  3588  000D94  5012               	movf	(___flmul@b+3)^0,w,c
  3589  000D96  2412               	addwf	(___flmul@b+3)^0,w,c
  3590  000D98  6E21               	movwf	___flmul@bexp^0,c
  3591  000D9A  AE11               	btfss	(___flmul@b+2)^0,7,c
  3592  000D9C  EFD2  F006         	goto	u3791
  3593  000DA0  EFD4  F006         	goto	u3790
  3594  000DA4                     u3791:
  3595  000DA4  EFD5  F006         	goto	l4041
  3596  000DA8                     u3790:
  3597  000DA8  8021               	bsf	___flmul@bexp^0,0,c
  3598  000DAA                     l4041:
  3599  000DAA  5021               	movf	___flmul@bexp^0,w,c
  3600  000DAC  B4D8               	btfsc	status,2,c
  3601  000DAE  EFDB  F006         	goto	u3801
  3602  000DB2  EFDD  F006         	goto	u3800
  3603  000DB6                     u3801:
  3604  000DB6  EFF0  F006         	goto	l4049
  3605  000DBA                     u3800:
  3606  000DBA  2821               	incf	___flmul@bexp^0,w,c
  3607  000DBC  A4D8               	btfss	status,2,c
  3608  000DBE  EFE3  F006         	goto	u3811
  3609  000DC2  EFE5  F006         	goto	u3810
  3610  000DC6                     u3811:
  3611  000DC6  EFED  F006         	goto	l4047
  3612  000DCA                     u3810:
  3613  000DCA  0E00               	movlw	0
  3614  000DCC  6E0F               	movwf	___flmul@b^0,c
  3615  000DCE  0E00               	movlw	0
  3616  000DD0  6E10               	movwf	(___flmul@b+1)^0,c
  3617  000DD2  0E00               	movlw	0
  3618  000DD4  6E11               	movwf	(___flmul@b+2)^0,c
  3619  000DD6  0E00               	movlw	0
  3620  000DD8  6E12               	movwf	(___flmul@b+3)^0,c
  3621  000DDA                     l4047:
  3622  000DDA  8E11               	bsf	(___flmul@b+2)^0,7,c
  3623  000DDC  EFF8  F006         	goto	l4051
  3624  000DE0                     l4049:
  3625  000DE0  0E00               	movlw	0
  3626  000DE2  6E0F               	movwf	___flmul@b^0,c
  3627  000DE4  0E00               	movlw	0
  3628  000DE6  6E10               	movwf	(___flmul@b+1)^0,c
  3629  000DE8  0E00               	movlw	0
  3630  000DEA  6E11               	movwf	(___flmul@b+2)^0,c
  3631  000DEC  0E00               	movlw	0
  3632  000DEE  6E12               	movwf	(___flmul@b+3)^0,c
  3633  000DF0                     l4051:
  3634  000DF0  5016               	movf	(___flmul@a+3)^0,w,c
  3635  000DF2  0B80               	andlw	128
  3636  000DF4  1A1B               	xorwf	___flmul@sign^0,f,c
  3637  000DF6  5016               	movf	(___flmul@a+3)^0,w,c
  3638  000DF8  2416               	addwf	(___flmul@a+3)^0,w,c
  3639  000DFA  6E20               	movwf	___flmul@aexp^0,c
  3640  000DFC  AE15               	btfss	(___flmul@a+2)^0,7,c
  3641  000DFE  EF03  F007         	goto	u3821
  3642  000E02  EF05  F007         	goto	u3820
  3643  000E06                     u3821:
  3644  000E06  EF06  F007         	goto	l4059
  3645  000E0A                     u3820:
  3646  000E0A  8020               	bsf	___flmul@aexp^0,0,c
  3647  000E0C                     l4059:
  3648  000E0C  5020               	movf	___flmul@aexp^0,w,c
  3649  000E0E  B4D8               	btfsc	status,2,c
  3650  000E10  EF0C  F007         	goto	u3831
  3651  000E14  EF0E  F007         	goto	u3830
  3652  000E18                     u3831:
  3653  000E18  EF21  F007         	goto	l4067
  3654  000E1C                     u3830:
  3655  000E1C  2820               	incf	___flmul@aexp^0,w,c
  3656  000E1E  A4D8               	btfss	status,2,c
  3657  000E20  EF14  F007         	goto	u3841
  3658  000E24  EF16  F007         	goto	u3840
  3659  000E28                     u3841:
  3660  000E28  EF1E  F007         	goto	l4065
  3661  000E2C                     u3840:
  3662  000E2C  0E00               	movlw	0
  3663  000E2E  6E13               	movwf	___flmul@a^0,c
  3664  000E30  0E00               	movlw	0
  3665  000E32  6E14               	movwf	(___flmul@a+1)^0,c
  3666  000E34  0E00               	movlw	0
  3667  000E36  6E15               	movwf	(___flmul@a+2)^0,c
  3668  000E38  0E00               	movlw	0
  3669  000E3A  6E16               	movwf	(___flmul@a+3)^0,c
  3670  000E3C                     l4065:
  3671  000E3C  8E15               	bsf	(___flmul@a+2)^0,7,c
  3672  000E3E  EF29  F007         	goto	l1300
  3673  000E42                     l4067:
  3674  000E42  0E00               	movlw	0
  3675  000E44  6E13               	movwf	___flmul@a^0,c
  3676  000E46  0E00               	movlw	0
  3677  000E48  6E14               	movwf	(___flmul@a+1)^0,c
  3678  000E4A  0E00               	movlw	0
  3679  000E4C  6E15               	movwf	(___flmul@a+2)^0,c
  3680  000E4E  0E00               	movlw	0
  3681  000E50  6E16               	movwf	(___flmul@a+3)^0,c
  3682  000E52                     l1300:
  3683  000E52  5020               	movf	___flmul@aexp^0,w,c
  3684  000E54  B4D8               	btfsc	status,2,c
  3685  000E56  EF2F  F007         	goto	u3851
  3686  000E5A  EF31  F007         	goto	u3850
  3687  000E5E                     u3851:
  3688  000E5E  EF39  F007         	goto	l4071
  3689  000E62                     u3850:
  3690  000E62  5021               	movf	___flmul@bexp^0,w,c
  3691  000E64  A4D8               	btfss	status,2,c
  3692  000E66  EF37  F007         	goto	u3861
  3693  000E6A  EF39  F007         	goto	u3860
  3694  000E6E                     u3861:
  3695  000E6E  EF43  F007         	goto	l4075
  3696  000E72                     u3860:
  3697  000E72                     l4071:
  3698  000E72  0E00               	movlw	0
  3699  000E74  6E0F               	movwf	?___flmul^0,c
  3700  000E76  0E00               	movlw	0
  3701  000E78  6E10               	movwf	(?___flmul+1)^0,c
  3702  000E7A  0E00               	movlw	0
  3703  000E7C  6E11               	movwf	(?___flmul+2)^0,c
  3704  000E7E  0E00               	movlw	0
  3705  000E80  6E12               	movwf	(?___flmul+3)^0,c
  3706  000E82  EFDB  F008         	goto	l1304
  3707  000E86                     l4075:
  3708  000E86  5015               	movf	(___flmul@a+2)^0,w,c
  3709  000E88  020F               	mulwf	___flmul@b^0,c
  3710  000E8A  CFF3 F026          	movff	prodl,___flmul@temp
  3711  000E8E  CFF4 F027          	movff	prodh,___flmul@temp+1
  3712  000E92  5026               	movf	___flmul@temp^0,w,c
  3713  000E94  6E1C               	movwf	___flmul@grs^0,c
  3714  000E96  6A1D               	clrf	(___flmul@grs+1)^0,c
  3715  000E98  6A1E               	clrf	(___flmul@grs+2)^0,c
  3716  000E9A  6A1F               	clrf	(___flmul@grs+3)^0,c
  3717  000E9C  5027               	movf	(___flmul@temp+1)^0,w,c
  3718  000E9E  6E22               	movwf	___flmul@prod^0,c
  3719  000EA0  6A23               	clrf	(___flmul@prod+1)^0,c
  3720  000EA2  6A24               	clrf	(___flmul@prod+2)^0,c
  3721  000EA4  6A25               	clrf	(___flmul@prod+3)^0,c
  3722  000EA6  5014               	movf	(___flmul@a+1)^0,w,c
  3723  000EA8  0210               	mulwf	(___flmul@b+1)^0,c
  3724  000EAA  CFF3 F026          	movff	prodl,___flmul@temp
  3725  000EAE  CFF4 F027          	movff	prodh,___flmul@temp+1
  3726  000EB2  5026               	movf	___flmul@temp^0,w,c
  3727  000EB4  261C               	addwf	___flmul@grs^0,f,c
  3728  000EB6  0E00               	movlw	0
  3729  000EB8  221D               	addwfc	(___flmul@grs+1)^0,f,c
  3730  000EBA  221E               	addwfc	(___flmul@grs+2)^0,f,c
  3731  000EBC  221F               	addwfc	(___flmul@grs+3)^0,f,c
  3732  000EBE  5027               	movf	(___flmul@temp+1)^0,w,c
  3733  000EC0  2622               	addwf	___flmul@prod^0,f,c
  3734  000EC2  0E00               	movlw	0
  3735  000EC4  2223               	addwfc	(___flmul@prod+1)^0,f,c
  3736  000EC6  2224               	addwfc	(___flmul@prod+2)^0,f,c
  3737  000EC8  2225               	addwfc	(___flmul@prod+3)^0,f,c
  3738  000ECA  5013               	movf	___flmul@a^0,w,c
  3739  000ECC  0211               	mulwf	(___flmul@b+2)^0,c
  3740  000ECE  CFF3 F026          	movff	prodl,___flmul@temp
  3741  000ED2  CFF4 F027          	movff	prodh,___flmul@temp+1
  3742  000ED6  5026               	movf	___flmul@temp^0,w,c
  3743  000ED8  261C               	addwf	___flmul@grs^0,f,c
  3744  000EDA  0E00               	movlw	0
  3745  000EDC  221D               	addwfc	(___flmul@grs+1)^0,f,c
  3746  000EDE  221E               	addwfc	(___flmul@grs+2)^0,f,c
  3747  000EE0  221F               	addwfc	(___flmul@grs+3)^0,f,c
  3748  000EE2  5027               	movf	(___flmul@temp+1)^0,w,c
  3749  000EE4  2622               	addwf	___flmul@prod^0,f,c
  3750  000EE6  0E00               	movlw	0
  3751  000EE8  2223               	addwfc	(___flmul@prod+1)^0,f,c
  3752  000EEA  2224               	addwfc	(___flmul@prod+2)^0,f,c
  3753  000EEC  2225               	addwfc	(___flmul@prod+3)^0,f,c
  3754  000EEE  C01E  F01F         	movff	___flmul@grs+2,___flmul@grs+3
  3755  000EF2  C01D  F01E         	movff	___flmul@grs+1,___flmul@grs+2
  3756  000EF6  C01C  F01D         	movff	___flmul@grs,___flmul@grs+1
  3757  000EFA  6A1C               	clrf	___flmul@grs^0,c
  3758  000EFC  5013               	movf	___flmul@a^0,w,c
  3759  000EFE  0210               	mulwf	(___flmul@b+1)^0,c
  3760  000F00  CFF3 F026          	movff	prodl,___flmul@temp
  3761  000F04  CFF4 F027          	movff	prodh,___flmul@temp+1
  3762  000F08  5026               	movf	___flmul@temp^0,w,c
  3763  000F0A  261C               	addwf	___flmul@grs^0,f,c
  3764  000F0C  5027               	movf	(___flmul@temp+1)^0,w,c
  3765  000F0E  221D               	addwfc	(___flmul@grs+1)^0,f,c
  3766  000F10  0E00               	movlw	0
  3767  000F12  221E               	addwfc	(___flmul@grs+2)^0,f,c
  3768  000F14  0E00               	movlw	0
  3769  000F16  221F               	addwfc	(___flmul@grs+3)^0,f,c
  3770  000F18  5014               	movf	(___flmul@a+1)^0,w,c
  3771  000F1A  020F               	mulwf	___flmul@b^0,c
  3772  000F1C  CFF3 F026          	movff	prodl,___flmul@temp
  3773  000F20  CFF4 F027          	movff	prodh,___flmul@temp+1
  3774  000F24  5026               	movf	___flmul@temp^0,w,c
  3775  000F26  261C               	addwf	___flmul@grs^0,f,c
  3776  000F28  5027               	movf	(___flmul@temp+1)^0,w,c
  3777  000F2A  221D               	addwfc	(___flmul@grs+1)^0,f,c
  3778  000F2C  0E00               	movlw	0
  3779  000F2E  221E               	addwfc	(___flmul@grs+2)^0,f,c
  3780  000F30  0E00               	movlw	0
  3781  000F32  221F               	addwfc	(___flmul@grs+3)^0,f,c
  3782  000F34  C01E  F01F         	movff	___flmul@grs+2,___flmul@grs+3
  3783  000F38  C01D  F01E         	movff	___flmul@grs+1,___flmul@grs+2
  3784  000F3C  C01C  F01D         	movff	___flmul@grs,___flmul@grs+1
  3785  000F40  6A1C               	clrf	___flmul@grs^0,c
  3786  000F42  5013               	movf	___flmul@a^0,w,c
  3787  000F44  020F               	mulwf	___flmul@b^0,c
  3788  000F46  CFF3 F026          	movff	prodl,___flmul@temp
  3789  000F4A  CFF4 F027          	movff	prodh,___flmul@temp+1
  3790  000F4E  5026               	movf	___flmul@temp^0,w,c
  3791  000F50  261C               	addwf	___flmul@grs^0,f,c
  3792  000F52  5027               	movf	(___flmul@temp+1)^0,w,c
  3793  000F54  221D               	addwfc	(___flmul@grs+1)^0,f,c
  3794  000F56  0E00               	movlw	0
  3795  000F58  221E               	addwfc	(___flmul@grs+2)^0,f,c
  3796  000F5A  0E00               	movlw	0
  3797  000F5C  221F               	addwfc	(___flmul@grs+3)^0,f,c
  3798  000F5E  5015               	movf	(___flmul@a+2)^0,w,c
  3799  000F60  0210               	mulwf	(___flmul@b+1)^0,c
  3800  000F62  CFF3 F026          	movff	prodl,___flmul@temp
  3801  000F66  CFF4 F027          	movff	prodh,___flmul@temp+1
  3802  000F6A  5026               	movf	___flmul@temp^0,w,c
  3803  000F6C  2622               	addwf	___flmul@prod^0,f,c
  3804  000F6E  5027               	movf	(___flmul@temp+1)^0,w,c
  3805  000F70  2223               	addwfc	(___flmul@prod+1)^0,f,c
  3806  000F72  0E00               	movlw	0
  3807  000F74  2224               	addwfc	(___flmul@prod+2)^0,f,c
  3808  000F76  0E00               	movlw	0
  3809  000F78  2225               	addwfc	(___flmul@prod+3)^0,f,c
  3810  000F7A  5014               	movf	(___flmul@a+1)^0,w,c
  3811  000F7C  0211               	mulwf	(___flmul@b+2)^0,c
  3812  000F7E  CFF3 F026          	movff	prodl,___flmul@temp
  3813  000F82  CFF4 F027          	movff	prodh,___flmul@temp+1
  3814  000F86  5026               	movf	___flmul@temp^0,w,c
  3815  000F88  2622               	addwf	___flmul@prod^0,f,c
  3816  000F8A  5027               	movf	(___flmul@temp+1)^0,w,c
  3817  000F8C  2223               	addwfc	(___flmul@prod+1)^0,f,c
  3818  000F8E  0E00               	movlw	0
  3819  000F90  2224               	addwfc	(___flmul@prod+2)^0,f,c
  3820  000F92  0E00               	movlw	0
  3821  000F94  2225               	addwfc	(___flmul@prod+3)^0,f,c
  3822  000F96  5015               	movf	(___flmul@a+2)^0,w,c
  3823  000F98  0211               	mulwf	(___flmul@b+2)^0,c
  3824  000F9A  CFF3 F026          	movff	prodl,___flmul@temp
  3825  000F9E  CFF4 F027          	movff	prodh,___flmul@temp+1
  3826  000FA2  5026               	movf	___flmul@temp^0,w,c
  3827  000FA4  6E17               	movwf	??___flmul^0,c
  3828  000FA6  5027               	movf	(___flmul@temp+1)^0,w,c
  3829  000FA8  6E18               	movwf	(??___flmul+1)^0,c
  3830  000FAA  6A19               	clrf	(??___flmul+2)^0,c
  3831  000FAC  6A1A               	clrf	(??___flmul+3)^0,c
  3832  000FAE  C019  F01A         	movff	??___flmul+2,??___flmul+3
  3833  000FB2  C018  F019         	movff	??___flmul+1,??___flmul+2
  3834  000FB6  C017  F018         	movff	??___flmul,??___flmul+1
  3835  000FBA  6A17               	clrf	??___flmul^0,c
  3836  000FBC  5017               	movf	??___flmul^0,w,c
  3837  000FBE  2622               	addwf	___flmul@prod^0,f,c
  3838  000FC0  5018               	movf	(??___flmul+1)^0,w,c
  3839  000FC2  2223               	addwfc	(___flmul@prod+1)^0,f,c
  3840  000FC4  5019               	movf	(??___flmul+2)^0,w,c
  3841  000FC6  2224               	addwfc	(___flmul@prod+2)^0,f,c
  3842  000FC8  501A               	movf	(??___flmul+3)^0,w,c
  3843  000FCA  2225               	addwfc	(___flmul@prod+3)^0,f,c
  3844  000FCC  C01C  F017         	movff	___flmul@grs,??___flmul
  3845  000FD0  C01D  F018         	movff	___flmul@grs+1,??___flmul+1
  3846  000FD4  C01E  F019         	movff	___flmul@grs+2,??___flmul+2
  3847  000FD8  C01F  F01A         	movff	___flmul@grs+3,??___flmul+3
  3848  000FDC  0E19               	movlw	25
  3849  000FDE  EFF6  F007         	goto	u3870
  3850  000FE2                     u3875:
  3851  000FE2  90D8               	bcf	status,0,c
  3852  000FE4  321A               	rrcf	(??___flmul+3)^0,f,c
  3853  000FE6  3219               	rrcf	(??___flmul+2)^0,f,c
  3854  000FE8  3218               	rrcf	(??___flmul+1)^0,f,c
  3855  000FEA  3217               	rrcf	??___flmul^0,f,c
  3856  000FEC                     u3870:
  3857  000FEC  2EE8               	decfsz	wreg,f,c
  3858  000FEE  EFF1  F007         	goto	u3875
  3859  000FF2  5017               	movf	??___flmul^0,w,c
  3860  000FF4  2622               	addwf	___flmul@prod^0,f,c
  3861  000FF6  5018               	movf	(??___flmul+1)^0,w,c
  3862  000FF8  2223               	addwfc	(___flmul@prod+1)^0,f,c
  3863  000FFA  5019               	movf	(??___flmul+2)^0,w,c
  3864  000FFC  2224               	addwfc	(___flmul@prod+2)^0,f,c
  3865  000FFE  501A               	movf	(??___flmul+3)^0,w,c
  3866  001000  2225               	addwfc	(___flmul@prod+3)^0,f,c
  3867  001002  C01E  F01F         	movff	___flmul@grs+2,___flmul@grs+3
  3868  001006  C01D  F01E         	movff	___flmul@grs+1,___flmul@grs+2
  3869  00100A  C01C  F01D         	movff	___flmul@grs,___flmul@grs+1
  3870  00100E  6A1C               	clrf	___flmul@grs^0,c
  3871  001010  5020               	movf	___flmul@aexp^0,w,c
  3872  001012  C021  F017         	movff	___flmul@bexp,??___flmul
  3873  001016  6A18               	clrf	(??___flmul+1)^0,c
  3874  001018  2617               	addwf	??___flmul^0,f,c
  3875  00101A  0E00               	movlw	0
  3876  00101C  2218               	addwfc	(??___flmul+1)^0,f,c
  3877  00101E  0E82               	movlw	130
  3878  001020  2417               	addwf	??___flmul^0,w,c
  3879  001022  6E26               	movwf	___flmul@temp^0,c
  3880  001024  0EFF               	movlw	255
  3881  001026  2018               	addwfc	(??___flmul+1)^0,w,c
  3882  001028  6E27               	movwf	(___flmul@temp+1)^0,c
  3883  00102A  EF2C  F008         	goto	l4123
  3884  00102E                     l4117:
  3885  00102E  90D8               	bcf	status,0,c
  3886  001030  3622               	rlcf	___flmul@prod^0,f,c
  3887  001032  3623               	rlcf	(___flmul@prod+1)^0,f,c
  3888  001034  3624               	rlcf	(___flmul@prod+2)^0,f,c
  3889  001036  3625               	rlcf	(___flmul@prod+3)^0,f,c
  3890  001038  AE1F               	btfss	(___flmul@grs+3)^0,7,c
  3891  00103A  EF21  F008         	goto	u3881
  3892  00103E  EF23  F008         	goto	u3880
  3893  001042                     u3881:
  3894  001042  EF24  F008         	goto	l1307
  3895  001046                     u3880:
  3896  001046  8022               	bsf	___flmul@prod^0,0,c
  3897  001048                     l1307:
  3898  001048  90D8               	bcf	status,0,c
  3899  00104A  361C               	rlcf	___flmul@grs^0,f,c
  3900  00104C  361D               	rlcf	(___flmul@grs+1)^0,f,c
  3901  00104E  361E               	rlcf	(___flmul@grs+2)^0,f,c
  3902  001050  361F               	rlcf	(___flmul@grs+3)^0,f,c
  3903  001052  0626               	decf	___flmul@temp^0,f,c
  3904  001054  A0D8               	btfss	status,0,c
  3905  001056  0627               	decf	(___flmul@temp+1)^0,f,c
  3906  001058                     l4123:
  3907  001058  AE24               	btfss	(___flmul@prod+2)^0,7,c
  3908  00105A  EF31  F008         	goto	u3891
  3909  00105E  EF33  F008         	goto	u3890
  3910  001062                     u3891:
  3911  001062  EF17  F008         	goto	l4117
  3912  001066                     u3890:
  3913  001066  0E00               	movlw	0
  3914  001068  6E20               	movwf	___flmul@aexp^0,c
  3915  00106A  AE1F               	btfss	(___flmul@grs+3)^0,7,c
  3916  00106C  EF3A  F008         	goto	u3901
  3917  001070  EF3C  F008         	goto	u3900
  3918  001074                     u3901:
  3919  001074  EF60  F008         	goto	l1309
  3920  001078                     u3900:
  3921  001078  0EFF               	movlw	255
  3922  00107A  141C               	andwf	___flmul@grs^0,w,c
  3923  00107C  6E17               	movwf	??___flmul^0,c
  3924  00107E  0EFF               	movlw	255
  3925  001080  141D               	andwf	(___flmul@grs+1)^0,w,c
  3926  001082  6E18               	movwf	(??___flmul+1)^0,c
  3927  001084  0EFF               	movlw	255
  3928  001086  141E               	andwf	(___flmul@grs+2)^0,w,c
  3929  001088  6E19               	movwf	(??___flmul+2)^0,c
  3930  00108A  0E7F               	movlw	127
  3931  00108C  141F               	andwf	(___flmul@grs+3)^0,w,c
  3932  00108E  6E1A               	movwf	(??___flmul+3)^0,c
  3933  001090  5017               	movf	??___flmul^0,w,c
  3934  001092  1018               	iorwf	(??___flmul+1)^0,w,c
  3935  001094  1019               	iorwf	(??___flmul+2)^0,w,c
  3936  001096  101A               	iorwf	(??___flmul+3)^0,w,c
  3937  001098  B4D8               	btfsc	status,2,c
  3938  00109A  EF51  F008         	goto	u3911
  3939  00109E  EF53  F008         	goto	u3910
  3940  0010A2                     u3911:
  3941  0010A2  EF57  F008         	goto	l1310
  3942  0010A6                     u3910:
  3943  0010A6                     l4131:
  3944  0010A6  0E01               	movlw	1
  3945  0010A8  6E20               	movwf	___flmul@aexp^0,c
  3946  0010AA  EF60  F008         	goto	l1309
  3947  0010AE                     l1310:
  3948  0010AE  A022               	btfss	___flmul@prod^0,0,c
  3949  0010B0  EF5C  F008         	goto	u3921
  3950  0010B4  EF5E  F008         	goto	u3920
  3951  0010B8                     u3921:
  3952  0010B8  EF60  F008         	goto	l1309
  3953  0010BC                     u3920:
  3954  0010BC  EF53  F008         	goto	l4131
  3955  0010C0                     l1309:
  3956  0010C0  5020               	movf	___flmul@aexp^0,w,c
  3957  0010C2  B4D8               	btfsc	status,2,c
  3958  0010C4  EF66  F008         	goto	u3931
  3959  0010C8  EF68  F008         	goto	u3930
  3960  0010CC                     u3931:
  3961  0010CC  EF8C  F008         	goto	l4143
  3962  0010D0                     u3930:
  3963  0010D0  0E01               	movlw	1
  3964  0010D2  2622               	addwf	___flmul@prod^0,f,c
  3965  0010D4  0E00               	movlw	0
  3966  0010D6  2223               	addwfc	(___flmul@prod+1)^0,f,c
  3967  0010D8  2224               	addwfc	(___flmul@prod+2)^0,f,c
  3968  0010DA  2225               	addwfc	(___flmul@prod+3)^0,f,c
  3969  0010DC  A025               	btfss	(___flmul@prod+3)^0,0,c
  3970  0010DE  EF73  F008         	goto	u3941
  3971  0010E2  EF75  F008         	goto	u3940
  3972  0010E6                     u3941:
  3973  0010E6  EF8C  F008         	goto	l4143
  3974  0010EA                     u3940:
  3975  0010EA  C022  F017         	movff	___flmul@prod,??___flmul
  3976  0010EE  C023  F018         	movff	___flmul@prod+1,??___flmul+1
  3977  0010F2  C024  F019         	movff	___flmul@prod+2,??___flmul+2
  3978  0010F6  C025  F01A         	movff	___flmul@prod+3,??___flmul+3
  3979  0010FA  341A               	rlcf	(??___flmul+3)^0,w,c
  3980  0010FC  321A               	rrcf	(??___flmul+3)^0,f,c
  3981  0010FE  3219               	rrcf	(??___flmul+2)^0,f,c
  3982  001100  3218               	rrcf	(??___flmul+1)^0,f,c
  3983  001102  3217               	rrcf	??___flmul^0,f,c
  3984  001104  C017  F022         	movff	??___flmul,___flmul@prod
  3985  001108  C018  F023         	movff	??___flmul+1,___flmul@prod+1
  3986  00110C  C019  F024         	movff	??___flmul+2,___flmul@prod+2
  3987  001110  C01A  F025         	movff	??___flmul+3,___flmul@prod+3
  3988  001114  4A26               	infsnz	___flmul@temp^0,f,c
  3989  001116  2A27               	incf	(___flmul@temp+1)^0,f,c
  3990  001118                     l4143:
  3991  001118  BE27               	btfsc	(___flmul@temp+1)^0,7,c
  3992  00111A  EF97  F008         	goto	u3951
  3993  00111E  5027               	movf	(___flmul@temp+1)^0,w,c
  3994  001120  E108               	bnz	u3950
  3995  001122  2826               	incf	___flmul@temp^0,w,c
  3996  001124  A0D8               	btfss	status,0,c
  3997  001126  EF97  F008         	goto	u3951
  3998  00112A  EF99  F008         	goto	u3950
  3999  00112E                     u3951:
  4000  00112E  EFA3  F008         	goto	l4147
  4001  001132                     u3950:
  4002  001132  0E00               	movlw	0
  4003  001134  6E22               	movwf	___flmul@prod^0,c
  4004  001136  0E00               	movlw	0
  4005  001138  6E23               	movwf	(___flmul@prod+1)^0,c
  4006  00113A  0E80               	movlw	128
  4007  00113C  6E24               	movwf	(___flmul@prod+2)^0,c
  4008  00113E  0E7F               	movlw	127
  4009  001140  6E25               	movwf	(___flmul@prod+3)^0,c
  4010  001142  EFD1  F008         	goto	l4159
  4011  001146                     l4147:
  4012  001146  BE27               	btfsc	(___flmul@temp+1)^0,7,c
  4013  001148  EFB0  F008         	goto	u3960
  4014  00114C  5027               	movf	(___flmul@temp+1)^0,w,c
  4015  00114E  E106               	bnz	u3961
  4016  001150  0426               	decf	___flmul@temp^0,w,c
  4017  001152  B0D8               	btfsc	status,0,c
  4018  001154  EFAE  F008         	goto	u3961
  4019  001158  EFB0  F008         	goto	u3960
  4020  00115C                     u3961:
  4021  00115C  EFBC  F008         	goto	l1317
  4022  001160                     u3960:
  4023  001160  0E00               	movlw	0
  4024  001162  6E22               	movwf	___flmul@prod^0,c
  4025  001164  0E00               	movlw	0
  4026  001166  6E23               	movwf	(___flmul@prod+1)^0,c
  4027  001168  0E00               	movlw	0
  4028  00116A  6E24               	movwf	(___flmul@prod+2)^0,c
  4029  00116C  0E00               	movlw	0
  4030  00116E  6E25               	movwf	(___flmul@prod+3)^0,c
  4031  001170  0E00               	movlw	0
  4032  001172  6E1B               	movwf	___flmul@sign^0,c
  4033  001174  EFD1  F008         	goto	l4159
  4034  001178                     l1317:
  4035  001178  C026  F021         	movff	___flmul@temp,___flmul@bexp
  4036  00117C  0EFF               	movlw	255
  4037  00117E  1622               	andwf	___flmul@prod^0,f,c
  4038  001180  0EFF               	movlw	255
  4039  001182  1623               	andwf	(___flmul@prod+1)^0,f,c
  4040  001184  0E7F               	movlw	127
  4041  001186  1624               	andwf	(___flmul@prod+2)^0,f,c
  4042  001188  0E00               	movlw	0
  4043  00118A  1625               	andwf	(___flmul@prod+3)^0,f,c
  4044  00118C  A021               	btfss	___flmul@bexp^0,0,c
  4045  00118E  EFCB  F008         	goto	u3971
  4046  001192  EFCD  F008         	goto	u3970
  4047  001196                     u3971:
  4048  001196  EFCE  F008         	goto	l4157
  4049  00119A                     u3970:
  4050  00119A  8E24               	bsf	(___flmul@prod+2)^0,7,c
  4051  00119C                     l4157:
  4052  00119C  90D8               	bcf	status,0,c
  4053  00119E  3021               	rrcf	___flmul@bexp^0,w,c
  4054  0011A0  6E25               	movwf	(___flmul@prod+3)^0,c
  4055  0011A2                     l4159:
  4056  0011A2  501B               	movf	___flmul@sign^0,w,c
  4057  0011A4  1225               	iorwf	(___flmul@prod+3)^0,f,c
  4058  0011A6  C022  F00F         	movff	___flmul@prod,?___flmul
  4059  0011AA  C023  F010         	movff	___flmul@prod+1,?___flmul+1
  4060  0011AE  C024  F011         	movff	___flmul@prod+2,?___flmul+2
  4061  0011B2  C025  F012         	movff	___flmul@prod+3,?___flmul+3
  4062  0011B6                     l1304:
  4063  0011B6  0012               	return		;funcret
  4064  0011B8                     __end_of___flmul:
  4065                           	callstack 0
  4066                           
  4067 ;; *************** function _sensor_luz *****************
  4068 ;; Defined at:
  4069 ;;		line 91 in file "sensores.c"
  4070 ;; Parameters:    Size  Location     Type
  4071 ;;		None
  4072 ;; Auto vars:     Size  Location     Type
  4073 ;;		None
  4074 ;; Return value:  Size  Location     Type
  4075 ;;                  2   13[COMRAM] int 
  4076 ;; Registers used:
  4077 ;;		wreg, status,2, status,0, prodl, prodh, cstack
  4078 ;; Tracked objects:
  4079 ;;		On entry : 0/0
  4080 ;;		On exit  : 0/0
  4081 ;;		Unchanged: 0/0
  4082 ;; Data sizes:     COMRAM   BANK0   BANK1   BANK2   BANK3   BANK4   BANK5   BANK6   BANK7
  4083 ;;      Params:         2       0       0       0       0       0       0       0       0
  4084 ;;      Locals:         0       0       0       0       0       0       0       0       0
  4085 ;;      Temps:          1       0       0       0       0       0       0       0       0
  4086 ;;      Totals:         3       0       0       0       0       0       0       0       0
  4087 ;;Total ram usage:        3 bytes
  4088 ;; Hardware stack levels used: 1
  4089 ;; Hardware stack levels required when called: 2
  4090 ;; This function calls:
  4091 ;;		___lwdiv
  4092 ;;		___wmul
  4093 ;;		_adc_init10Bits
  4094 ;;		_adc_read10Bits
  4095 ;; This function is called by:
  4096 ;;		_principal
  4097 ;; This function uses a non-reentrant model
  4098 ;;
  4099                           
  4100                           	psect	text24
  4101  002E9A                     __ptext24:
  4102                           	callstack 0
  4103  002E9A                     _sensor_luz:
  4104                           	callstack 27
  4105  002E9A                     
  4106                           ;sensores.c: 93:     TRISAbits.TRISA1 = 1;
  4107  002E9A  8292               	bsf	146,1,c	;volatile
  4108  002E9C                     
  4109                           ;sensores.c: 95:     adc_init10Bits(1);
  4110  002E9C  0E00               	movlw	0
  4111  002E9E  6E04               	movwf	(adc_init10Bits@canal+1)^0,c
  4112  002EA0  0E01               	movlw	1
  4113  002EA2  6E03               	movwf	adc_init10Bits@canal^0,c
  4114  002EA4  ECA3  F01C         	call	_adc_init10Bits	;wreg free
  4115  002EA8                     
  4116                           ;sensores.c: 97:     val_intensidad = adc_read10Bits();
  4117  002EA8  ECDF  F01B         	call	_adc_read10Bits	;wreg free
  4118  002EAC  C001  F1DC         	movff	?_adc_read10Bits,_val_intensidad
  4119  002EB0  C002  F1DD         	movff	?_adc_read10Bits+1,_val_intensidad+1
  4120  002EB4                     
  4121                           ;sensores.c: 98:     val_intensidad = (val_intensidad * 5) / 1024;
  4122  002EB4  C1DC  F001         	movff	_val_intensidad,___wmul@multiplier
  4123  002EB8  C1DD  F002         	movff	_val_intensidad+1,___wmul@multiplier+1
  4124  002EBC  0E00               	movlw	0
  4125  002EBE  6E04               	movwf	(___wmul@multiplicand+1)^0,c
  4126  002EC0  0E05               	movlw	5
  4127  002EC2  6E03               	movwf	___wmul@multiplicand^0,c
  4128  002EC4  EC0A  F01C         	call	___wmul	;wreg free
  4129  002EC8  0E0A               	movlw	10
  4130  002ECA  6E10               	movwf	??_sensor_luz^0,c
  4131  002ECC                     u4225:
  4132  002ECC  90D8               	bcf	status,0,c
  4133  002ECE  3202               	rrcf	(?___wmul+1)^0,f,c
  4134  002ED0  3201               	rrcf	?___wmul^0,f,c
  4135  002ED2  2E10               	decfsz	??_sensor_luz^0,f,c
  4136  002ED4  EF66  F017         	goto	u4225
  4137  002ED8  C001  F1DC         	movff	?___wmul,_val_intensidad
  4138  002EDC  C002  F1DD         	movff	?___wmul+1,_val_intensidad+1
  4139  002EE0                     
  4140                           ;sensores.c: 99:     val_luminosidad = (val_intensidad * 100) / 5;
  4141  002EE0  C1DC  F001         	movff	_val_intensidad,___wmul@multiplier
  4142  002EE4  C1DD  F002         	movff	_val_intensidad+1,___wmul@multiplier+1
  4143  002EE8  0E00               	movlw	0
  4144  002EEA  6E04               	movwf	(___wmul@multiplicand+1)^0,c
  4145  002EEC  0E64               	movlw	100
  4146  002EEE  6E03               	movwf	___wmul@multiplicand^0,c
  4147  002EF0  EC0A  F01C         	call	___wmul	;wreg free
  4148  002EF4  C001  F007         	movff	?___wmul,___lwdiv@dividend
  4149  002EF8  C002  F008         	movff	?___wmul+1,___lwdiv@dividend+1
  4150  002EFC  0E00               	movlw	0
  4151  002EFE  6E0A               	movwf	(___lwdiv@divisor+1)^0,c
  4152  002F00  0E05               	movlw	5
  4153  002F02  6E09               	movwf	___lwdiv@divisor^0,c
  4154  002F04  EC08  F018         	call	___lwdiv	;wreg free
  4155  002F08  C007  F1DA         	movff	?___lwdiv,_val_luminosidad
  4156  002F0C  C008  F1DB         	movff	?___lwdiv+1,_val_luminosidad+1
  4157  002F10                     
  4158                           ;sensores.c: 101:     return val_luminosidad;
  4159  002F10  C1DA  F00E         	movff	_val_luminosidad,?_sensor_luz
  4160  002F14  C1DB  F00F         	movff	_val_luminosidad+1,?_sensor_luz+1
  4161  002F18  0012               	return		;funcret
  4162  002F1A                     __end_of_sensor_luz:
  4163                           	callstack 0
  4164                           
  4165 ;; *************** function _adc_read10Bits *****************
  4166 ;; Defined at:
  4167 ;;		line 54 in file "adc_lib.c"
  4168 ;; Parameters:    Size  Location     Type
  4169 ;;		None
  4170 ;; Auto vars:     Size  Location     Type
  4171 ;;  value_adc       2    4[COMRAM] unsigned int 
  4172 ;; Return value:  Size  Location     Type
  4173 ;;                  2    0[COMRAM] unsigned int 
  4174 ;; Registers used:
  4175 ;;		wreg, status,2
  4176 ;; Tracked objects:
  4177 ;;		On entry : 0/0
  4178 ;;		On exit  : 0/0
  4179 ;;		Unchanged: 0/0
  4180 ;; Data sizes:     COMRAM   BANK0   BANK1   BANK2   BANK3   BANK4   BANK5   BANK6   BANK7
  4181 ;;      Params:         2       0       0       0       0       0       0       0       0
  4182 ;;      Locals:         2       0       0       0       0       0       0       0       0
  4183 ;;      Temps:          2       0       0       0       0       0       0       0       0
  4184 ;;      Totals:         6       0       0       0       0       0       0       0       0
  4185 ;;Total ram usage:        6 bytes
  4186 ;; Hardware stack levels used: 1
  4187 ;; This function calls:
  4188 ;;		Nothing
  4189 ;; This function is called by:
  4190 ;;		_sensor_temperatura
  4191 ;;		_sensor_luz
  4192 ;; This function uses a non-reentrant model
  4193 ;;
  4194                           
  4195                           	psect	text25
  4196  0037BE                     __ptext25:
  4197                           	callstack 0
  4198  0037BE                     _adc_read10Bits:
  4199                           	callstack 28
  4200  0037BE                     
  4201                           ;adc_lib.c: 56:     ADCON0bits.GO_DONE = 1;
  4202  0037BE  82C2               	bsf	194,1,c	;volatile
  4203  0037C0                     l164:
  4204  0037C0  B2C2               	btfsc	194,1,c	;volatile
  4205  0037C2  EFE5  F01B         	goto	u3731
  4206  0037C6  EFE7  F01B         	goto	u3730
  4207  0037CA                     u3731:
  4208  0037CA  EFE0  F01B         	goto	l164
  4209  0037CE                     u3730:
  4210  0037CE                     
  4211                           ;adc_lib.c: 58:     value_adc = ADRESH;
  4212  0037CE  CFC4 F005          	movff	4036,adc_read10Bits@value_adc	;volatile
  4213  0037D2  6A06               	clrf	(adc_read10Bits@value_adc+1)^0,c
  4214  0037D4                     
  4215                           ;adc_lib.c: 59:     value_adc = (value_adc << 8) + ADRESL;
  4216  0037D4  5005               	movf	adc_read10Bits@value_adc^0,w,c
  4217  0037D6  6E03               	movwf	??_adc_read10Bits^0,c
  4218  0037D8  50C3               	movf	195,w,c	;volatile
  4219  0037DA  6E05               	movwf	adc_read10Bits@value_adc^0,c
  4220  0037DC  C003  F006         	movff	??_adc_read10Bits,adc_read10Bits@value_adc+1
  4221  0037E0                     
  4222                           ;adc_lib.c: 60:     return value_adc;
  4223  0037E0  C005  F001         	movff	adc_read10Bits@value_adc,?_adc_read10Bits
  4224  0037E4  C006  F002         	movff	adc_read10Bits@value_adc+1,?_adc_read10Bits+1
  4225  0037E8  0012               	return		;funcret
  4226  0037EA                     __end_of_adc_read10Bits:
  4227                           	callstack 0
  4228                           
  4229 ;; *************** function _adc_init10Bits *****************
  4230 ;; Defined at:
  4231 ;;		line 43 in file "adc_lib.c"
  4232 ;; Parameters:    Size  Location     Type
  4233 ;;  canal           2    2[COMRAM] int 
  4234 ;; Auto vars:     Size  Location     Type
  4235 ;;		None
  4236 ;; Return value:  Size  Location     Type
  4237 ;;                  1    wreg      void 
  4238 ;; Registers used:
  4239 ;;		wreg, status,2, status,0, cstack
  4240 ;; Tracked objects:
  4241 ;;		On entry : 0/0
  4242 ;;		On exit  : 0/0
  4243 ;;		Unchanged: 0/0
  4244 ;; Data sizes:     COMRAM   BANK0   BANK1   BANK2   BANK3   BANK4   BANK5   BANK6   BANK7
  4245 ;;      Params:         2       0       0       0       0       0       0       0       0
  4246 ;;      Locals:         0       0       0       0       0       0       0       0       0
  4247 ;;      Temps:          0       0       0       0       0       0       0       0       0
  4248 ;;      Totals:         2       0       0       0       0       0       0       0       0
  4249 ;;Total ram usage:        2 bytes
  4250 ;; Hardware stack levels used: 1
  4251 ;; Hardware stack levels required when called: 1
  4252 ;; This function calls:
  4253 ;;		_adc_config
  4254 ;; This function is called by:
  4255 ;;		_sensor_temperatura
  4256 ;;		_sensor_luz
  4257 ;; This function uses a non-reentrant model
  4258 ;;
  4259                           
  4260                           	psect	text26
  4261  003946                     __ptext26:
  4262                           	callstack 0
  4263  003946                     _adc_init10Bits:
  4264                           	callstack 27
  4265  003946                     
  4266                           ;adc_lib.c: 45:     adc_config(canal);
  4267  003946  C003  F001         	movff	adc_init10Bits@canal,adc_config@canal
  4268  00394A  C004  F002         	movff	adc_init10Bits@canal+1,adc_config@canal+1
  4269  00394E  EC07  F01A         	call	_adc_config	;wreg free
  4270  003952                     
  4271                           ;adc_lib.c: 46:     ADCON2bits.ADFM = 1;
  4272  003952  8EC0               	bsf	192,7,c	;volatile
  4273  003954  0012               	return		;funcret
  4274  003956                     __end_of_adc_init10Bits:
  4275                           	callstack 0
  4276                           
  4277 ;; *************** function _adc_config *****************
  4278 ;; Defined at:
  4279 ;;		line 28 in file "adc_lib.c"
  4280 ;; Parameters:    Size  Location     Type
  4281 ;;  canal           2    0[COMRAM] int 
  4282 ;; Auto vars:     Size  Location     Type
  4283 ;;		None
  4284 ;; Return value:  Size  Location     Type
  4285 ;;                  1    wreg      void 
  4286 ;; Registers used:
  4287 ;;		wreg, status,2, status,0
  4288 ;; Tracked objects:
  4289 ;;		On entry : 0/0
  4290 ;;		On exit  : 0/0
  4291 ;;		Unchanged: 0/0
  4292 ;; Data sizes:     COMRAM   BANK0   BANK1   BANK2   BANK3   BANK4   BANK5   BANK6   BANK7
  4293 ;;      Params:         2       0       0       0       0       0       0       0       0
  4294 ;;      Locals:         0       0       0       0       0       0       0       0       0
  4295 ;;      Temps:          0       0       0       0       0       0       0       0       0
  4296 ;;      Totals:         2       0       0       0       0       0       0       0       0
  4297 ;;Total ram usage:        2 bytes
  4298 ;; Hardware stack levels used: 1
  4299 ;; This function calls:
  4300 ;;		Nothing
  4301 ;; This function is called by:
  4302 ;;		_adc_init10Bits
  4303 ;; This function uses a non-reentrant model
  4304 ;;
  4305                           
  4306                           	psect	text27
  4307  00340E                     __ptext27:
  4308                           	callstack 0
  4309  00340E                     _adc_config:
  4310                           	callstack 27
  4311  00340E                     
  4312                           ;adc_lib.c: 29:     ADCON1bits.PCFG = 0b1101;
  4313  00340E  50C1               	movf	193,w,c	;volatile
  4314  003410  0BF0               	andlw	-16
  4315  003412  090D               	iorlw	13
  4316  003414  6EC1               	movwf	193,c	;volatile
  4317                           
  4318                           ;adc_lib.c: 30:     ADCON1bits.VCFG = 0b00;
  4319  003416  0ECF               	movlw	-49
  4320  003418  16C1               	andwf	193,f,c	;volatile
  4321  00341A                     
  4322                           ;adc_lib.c: 31:     if(canal == 0) { ADCON0bits.CHS = 0b0000; } else{ ADCON0bits.CHS = 0
      +                          b0001;};
  4323  00341A  5001               	movf	adc_config@canal^0,w,c
  4324  00341C  1002               	iorwf	(adc_config@canal+1)^0,w,c
  4325  00341E  A4D8               	btfss	status,2,c
  4326  003420  EF14  F01A         	goto	u3671
  4327  003424  EF16  F01A         	goto	u3670
  4328  003428                     u3671:
  4329  003428  EF1A  F01A         	goto	l3909
  4330  00342C                     u3670:
  4331  00342C  0EC3               	movlw	-61
  4332  00342E  16C2               	andwf	194,f,c	;volatile
  4333  003430  EF1E  F01A         	goto	l157
  4334  003434                     l3909:
  4335  003434  50C2               	movf	194,w,c	;volatile
  4336  003436  0BC3               	andlw	-61
  4337  003438  0904               	iorlw	4
  4338  00343A  6EC2               	movwf	194,c	;volatile
  4339  00343C                     l157:
  4340                           
  4341                           ;adc_lib.c: 32:     ADCON2bits.ACQT = 0b010;
  4342  00343C  50C0               	movf	192,w,c	;volatile
  4343  00343E  0BC7               	andlw	-57
  4344  003440  0910               	iorlw	16
  4345  003442  6EC0               	movwf	192,c	;volatile
  4346                           
  4347                           ;adc_lib.c: 33:     ADCON2bits.ADCS = 0b001;
  4348  003444  50C0               	movf	192,w,c	;volatile
  4349  003446  0BF8               	andlw	-8
  4350  003448  0901               	iorlw	1
  4351  00344A  6EC0               	movwf	192,c	;volatile
  4352  00344C                     
  4353                           ;adc_lib.c: 34:     ADCON0bits.ADON = 1;
  4354  00344C  80C2               	bsf	194,0,c	;volatile
  4355  00344E  0012               	return		;funcret
  4356  003450                     __end_of_adc_config:
  4357                           	callstack 0
  4358                           
  4359 ;; *************** function ___wmul *****************
  4360 ;; Defined at:
  4361 ;;		line 15 in file "D:\mplab\pic\sources\c99\common\Umul16.c"
  4362 ;; Parameters:    Size  Location     Type
  4363 ;;  multiplier      2    0[COMRAM] unsigned int 
  4364 ;;  multiplicand    2    2[COMRAM] unsigned int 
  4365 ;; Auto vars:     Size  Location     Type
  4366 ;;  product         2    4[COMRAM] unsigned int 
  4367 ;; Return value:  Size  Location     Type
  4368 ;;                  2    0[COMRAM] unsigned int 
  4369 ;; Registers used:
  4370 ;;		wreg, status,2, status,0, prodl, prodh
  4371 ;; Tracked objects:
  4372 ;;		On entry : 0/0
  4373 ;;		On exit  : 0/0
  4374 ;;		Unchanged: 0/0
  4375 ;; Data sizes:     COMRAM   BANK0   BANK1   BANK2   BANK3   BANK4   BANK5   BANK6   BANK7
  4376 ;;      Params:         4       0       0       0       0       0       0       0       0
  4377 ;;      Locals:         2       0       0       0       0       0       0       0       0
  4378 ;;      Temps:          0       0       0       0       0       0       0       0       0
  4379 ;;      Totals:         6       0       0       0       0       0       0       0       0
  4380 ;;Total ram usage:        6 bytes
  4381 ;; Hardware stack levels used: 1
  4382 ;; This function calls:
  4383 ;;		Nothing
  4384 ;; This function is called by:
  4385 ;;		_sensor_luz
  4386 ;; This function uses a non-reentrant model
  4387 ;;
  4388                           
  4389                           	psect	text28
  4390  003814                     __ptext28:
  4391                           	callstack 0
  4392  003814                     ___wmul:
  4393                           	callstack 28
  4394  003814  5001               	movf	___wmul@multiplier^0,w,c
  4395  003816  0203               	mulwf	___wmul@multiplicand^0,c
  4396  003818  CFF3 F005          	movff	prodl,___wmul@product
  4397  00381C  CFF4 F006          	movff	prodh,___wmul@product+1
  4398  003820  5001               	movf	___wmul@multiplier^0,w,c
  4399  003822  0204               	mulwf	(___wmul@multiplicand+1)^0,c
  4400  003824  50F3               	movf	243,w,c
  4401  003826  2606               	addwf	(___wmul@product+1)^0,f,c
  4402  003828  5002               	movf	(___wmul@multiplier+1)^0,w,c
  4403  00382A  0203               	mulwf	___wmul@multiplicand^0,c
  4404  00382C  50F3               	movf	243,w,c
  4405  00382E  2606               	addwf	(___wmul@product+1)^0,f,c
  4406  003830  C005  F001         	movff	___wmul@product,?___wmul
  4407  003834  C006  F002         	movff	___wmul@product+1,?___wmul+1
  4408  003838  0012               	return		;funcret
  4409  00383A                     __end_of___wmul:
  4410                           	callstack 0
  4411                           
  4412 ;; *************** function ___lwdiv *****************
  4413 ;; Defined at:
  4414 ;;		line 7 in file "D:\mplab\pic\sources\c99\common\lwdiv.c"
  4415 ;; Parameters:    Size  Location     Type
  4416 ;;  dividend        2    6[COMRAM] unsigned int 
  4417 ;;  divisor         2    8[COMRAM] unsigned int 
  4418 ;; Auto vars:     Size  Location     Type
  4419 ;;  quotient        2   10[COMRAM] unsigned int 
  4420 ;;  counter         1   12[COMRAM] unsigned char 
  4421 ;; Return value:  Size  Location     Type
  4422 ;;                  2    6[COMRAM] unsigned int 
  4423 ;; Registers used:
  4424 ;;		wreg, status,2, status,0
  4425 ;; Tracked objects:
  4426 ;;		On entry : 0/0
  4427 ;;		On exit  : 0/0
  4428 ;;		Unchanged: 0/0
  4429 ;; Data sizes:     COMRAM   BANK0   BANK1   BANK2   BANK3   BANK4   BANK5   BANK6   BANK7
  4430 ;;      Params:         4       0       0       0       0       0       0       0       0
  4431 ;;      Locals:         3       0       0       0       0       0       0       0       0
  4432 ;;      Temps:          0       0       0       0       0       0       0       0       0
  4433 ;;      Totals:         7       0       0       0       0       0       0       0       0
  4434 ;;Total ram usage:        7 bytes
  4435 ;; Hardware stack levels used: 1
  4436 ;; This function calls:
  4437 ;;		Nothing
  4438 ;; This function is called by:
  4439 ;;		_sensor_luz
  4440 ;; This function uses a non-reentrant model
  4441 ;;
  4442                           
  4443                           	psect	text29
  4444  003010                     __ptext29:
  4445                           	callstack 0
  4446  003010                     ___lwdiv:
  4447                           	callstack 28
  4448  003010  0E00               	movlw	0
  4449  003012  6E0C               	movwf	(___lwdiv@quotient+1)^0,c
  4450  003014  0E00               	movlw	0
  4451  003016  6E0B               	movwf	___lwdiv@quotient^0,c
  4452  003018  5009               	movf	___lwdiv@divisor^0,w,c
  4453  00301A  100A               	iorwf	(___lwdiv@divisor+1)^0,w,c
  4454  00301C  B4D8               	btfsc	status,2,c
  4455  00301E  EF13  F018         	goto	u4051
  4456  003022  EF15  F018         	goto	u4050
  4457  003026                     u4051:
  4458  003026  EF3D  F018         	goto	l1177
  4459  00302A                     u4050:
  4460  00302A  0E01               	movlw	1
  4461  00302C  6E0D               	movwf	___lwdiv@counter^0,c
  4462  00302E  EF1D  F018         	goto	l4217
  4463  003032                     l4215:
  4464  003032  90D8               	bcf	status,0,c
  4465  003034  3609               	rlcf	___lwdiv@divisor^0,f,c
  4466  003036  360A               	rlcf	(___lwdiv@divisor+1)^0,f,c
  4467  003038  2A0D               	incf	___lwdiv@counter^0,f,c
  4468  00303A                     l4217:
  4469  00303A  AE0A               	btfss	(___lwdiv@divisor+1)^0,7,c
  4470  00303C  EF22  F018         	goto	u4061
  4471  003040  EF24  F018         	goto	u4060
  4472  003044                     u4061:
  4473  003044  EF19  F018         	goto	l4215
  4474  003048                     u4060:
  4475  003048                     l4219:
  4476  003048  90D8               	bcf	status,0,c
  4477  00304A  360B               	rlcf	___lwdiv@quotient^0,f,c
  4478  00304C  360C               	rlcf	(___lwdiv@quotient+1)^0,f,c
  4479  00304E  5009               	movf	___lwdiv@divisor^0,w,c
  4480  003050  5C07               	subwf	___lwdiv@dividend^0,w,c
  4481  003052  500A               	movf	(___lwdiv@divisor+1)^0,w,c
  4482  003054  5808               	subwfb	(___lwdiv@dividend+1)^0,w,c
  4483  003056  A0D8               	btfss	status,0,c
  4484  003058  EF30  F018         	goto	u4071
  4485  00305C  EF32  F018         	goto	u4070
  4486  003060                     u4071:
  4487  003060  EF37  F018         	goto	l4227
  4488  003064                     u4070:
  4489  003064  5009               	movf	___lwdiv@divisor^0,w,c
  4490  003066  5E07               	subwf	___lwdiv@dividend^0,f,c
  4491  003068  500A               	movf	(___lwdiv@divisor+1)^0,w,c
  4492  00306A  5A08               	subwfb	(___lwdiv@dividend+1)^0,f,c
  4493  00306C  800B               	bsf	___lwdiv@quotient^0,0,c
  4494  00306E                     l4227:
  4495  00306E  90D8               	bcf	status,0,c
  4496  003070  320A               	rrcf	(___lwdiv@divisor+1)^0,f,c
  4497  003072  3209               	rrcf	___lwdiv@divisor^0,f,c
  4498  003074  2E0D               	decfsz	___lwdiv@counter^0,f,c
  4499  003076  EF24  F018         	goto	l4219
  4500  00307A                     l1177:
  4501  00307A  C00B  F007         	movff	___lwdiv@quotient,?___lwdiv
  4502  00307E  C00C  F008         	movff	___lwdiv@quotient+1,?___lwdiv+1
  4503  003082  0012               	return		;funcret
  4504  003084                     __end_of___lwdiv:
  4505                           	callstack 0
  4506                           
  4507 ;; *************** function _sensor_distancia *****************
  4508 ;; Defined at:
  4509 ;;		line 27 in file "sensores.c"
  4510 ;; Parameters:    Size  Location     Type
  4511 ;;		None
  4512 ;; Auto vars:     Size  Location     Type
  4513 ;;		None
  4514 ;; Return value:  Size  Location     Type
  4515 ;;                  2    4[COMRAM] int 
  4516 ;; Registers used:
  4517 ;;		wreg, status,2, status,0, cstack
  4518 ;; Tracked objects:
  4519 ;;		On entry : 0/0
  4520 ;;		On exit  : 0/0
  4521 ;;		Unchanged: 0/0
  4522 ;; Data sizes:     COMRAM   BANK0   BANK1   BANK2   BANK3   BANK4   BANK5   BANK6   BANK7
  4523 ;;      Params:         2       0       0       0       0       0       0       0       0
  4524 ;;      Locals:         0       0       0       0       0       0       0       0       0
  4525 ;;      Temps:          0       0       0       0       0       0       0       0       0
  4526 ;;      Totals:         2       0       0       0       0       0       0       0       0
  4527 ;;Total ram usage:        2 bytes
  4528 ;; Hardware stack levels used: 1
  4529 ;; Hardware stack levels required when called: 1
  4530 ;; This function calls:
  4531 ;;		_init_ports
  4532 ;;		_obtener_distancia
  4533 ;; This function is called by:
  4534 ;;		_principal
  4535 ;; This function uses a non-reentrant model
  4536 ;;
  4537                           
  4538                           	psect	text30
  4539  002D04                     __ptext30:
  4540                           	callstack 0
  4541  002D04                     _sensor_distancia:
  4542                           	callstack 28
  4543  002D04                     
  4544                           ;sensores.c: 28:     init_ports();
  4545  002D04  ECAB  F01C         	call	_init_ports	;wreg free
  4546  002D08                     
  4547                           ;sensores.c: 29:     val_distancia = obtener_distancia();
  4548  002D08  EC9C  F019         	call	_obtener_distancia	;wreg free
  4549  002D0C  C001  F1E2         	movff	?_obtener_distancia,_val_distancia
  4550  002D10  C002  F1E3         	movff	?_obtener_distancia+1,_val_distancia+1
  4551  002D14                     
  4552                           ;sensores.c: 30:     if (val_distancia <= 38 && val_distancia > 12)
  4553  002D14  0101               	movlb	1	; () banked
  4554  002D16  51E3               	movf	(_val_distancia+1)& (0+255),w,b
  4555  002D18  E107               	bnz	u4181
  4556  002D1A  0E27               	movlw	39
  4557  002D1C  5DE2               	subwf	_val_distancia& (0+255),w,b
  4558  002D1E  B0D8               	btfsc	status,0,c
  4559  002D20  EF94  F016         	goto	u4181
  4560  002D24  EF96  F016         	goto	u4180
  4561  002D28                     u4181:
  4562  002D28  EFA7  F016         	goto	l4287
  4563  002D2C                     u4180:
  4564  002D2C                     
  4565                           ; BSR set to: 1
  4566  002D2C  51E3               	movf	(_val_distancia+1)& (0+255),w,b
  4567  002D2E  E109               	bnz	u4190
  4568  002D30  0E0D               	movlw	13
  4569  002D32  5DE2               	subwf	_val_distancia& (0+255),w,b
  4570  002D34  A0D8               	btfss	status,0,c
  4571  002D36  EF9F  F016         	goto	u4191
  4572  002D3A  EFA1  F016         	goto	u4190
  4573  002D3E                     u4191:
  4574  002D3E  EFA7  F016         	goto	l4287
  4575  002D42                     u4190:
  4576  002D42                     
  4577                           ; BSR set to: 1
  4578                           ;sensores.c: 31:         val_distancia += 2;
  4579  002D42  0E02               	movlw	2
  4580  002D44  27E2               	addwf	_val_distancia& (0+255),f,b
  4581  002D46  0E00               	movlw	0
  4582  002D48  23E3               	addwfc	(_val_distancia+1)& (0+255),f,b
  4583  002D4A  EFC6  F016         	goto	l4295
  4584  002D4E                     l4287:
  4585                           
  4586                           ; BSR set to: 1
  4587  002D4E  51E3               	movf	(_val_distancia+1)& (0+255),w,b
  4588  002D50  E109               	bnz	u4200
  4589  002D52  0E27               	movlw	39
  4590  002D54  5DE2               	subwf	_val_distancia& (0+255),w,b
  4591  002D56  A0D8               	btfss	status,0,c
  4592  002D58  EFB0  F016         	goto	u4201
  4593  002D5C  EFB2  F016         	goto	u4200
  4594  002D60                     u4201:
  4595  002D60  EFB8  F016         	goto	l4291
  4596  002D64                     u4200:
  4597  002D64                     
  4598                           ; BSR set to: 1
  4599                           ;sensores.c: 33:         val_distancia += 3;
  4600  002D64  0E03               	movlw	3
  4601  002D66  27E2               	addwf	_val_distancia& (0+255),f,b
  4602  002D68  0E00               	movlw	0
  4603  002D6A  23E3               	addwfc	(_val_distancia+1)& (0+255),f,b
  4604  002D6C  EFC6  F016         	goto	l4295
  4605  002D70                     l4291:
  4606                           
  4607                           ; BSR set to: 1
  4608  002D70  51E3               	movf	(_val_distancia+1)& (0+255),w,b
  4609  002D72  E107               	bnz	u4211
  4610  002D74  0E0D               	movlw	13
  4611  002D76  5DE2               	subwf	_val_distancia& (0+255),w,b
  4612  002D78  B0D8               	btfsc	status,0,c
  4613  002D7A  EFC1  F016         	goto	u4211
  4614  002D7E  EFC3  F016         	goto	u4210
  4615  002D82                     u4211:
  4616  002D82  EFC6  F016         	goto	l4295
  4617  002D86                     u4210:
  4618  002D86                     
  4619                           ; BSR set to: 1
  4620                           ;sensores.c: 35:         val_distancia--;
  4621  002D86  07E2               	decf	_val_distancia& (0+255),f,b
  4622  002D88  A0D8               	btfss	status,0,c
  4623  002D8A  07E3               	decf	(_val_distancia+1)& (0+255),f,b
  4624  002D8C                     l4295:
  4625                           
  4626                           ; BSR set to: 1
  4627                           ;sensores.c: 36:     return (int) val_distancia;
  4628  002D8C  C1E2  F005         	movff	_val_distancia,?_sensor_distancia
  4629  002D90  C1E3  F006         	movff	_val_distancia+1,?_sensor_distancia+1
  4630  002D94                     
  4631                           ; BSR set to: 1
  4632  002D94  0012               	return		;funcret
  4633  002D96                     __end_of_sensor_distancia:
  4634                           	callstack 0
  4635                           
  4636 ;; *************** function _obtener_distancia *****************
  4637 ;; Defined at:
  4638 ;;		line 57 in file "sensores.c"
  4639 ;; Parameters:    Size  Location     Type
  4640 ;;		None
  4641 ;; Auto vars:     Size  Location     Type
  4642 ;;  cm              2    2[COMRAM] unsigned int 
  4643 ;; Return value:  Size  Location     Type
  4644 ;;                  2    0[COMRAM] unsigned int 
  4645 ;; Registers used:
  4646 ;;		wreg, status,2, status,0
  4647 ;; Tracked objects:
  4648 ;;		On entry : 0/0
  4649 ;;		On exit  : 0/0
  4650 ;;		Unchanged: 0/0
  4651 ;; Data sizes:     COMRAM   BANK0   BANK1   BANK2   BANK3   BANK4   BANK5   BANK6   BANK7
  4652 ;;      Params:         2       0       0       0       0       0       0       0       0
  4653 ;;      Locals:         2       0       0       0       0       0       0       0       0
  4654 ;;      Temps:          0       0       0       0       0       0       0       0       0
  4655 ;;      Totals:         4       0       0       0       0       0       0       0       0
  4656 ;;Total ram usage:        4 bytes
  4657 ;; Hardware stack levels used: 1
  4658 ;; This function calls:
  4659 ;;		Nothing
  4660 ;; This function is called by:
  4661 ;;		_sensor_distancia
  4662 ;; This function uses a non-reentrant model
  4663 ;;
  4664                           
  4665                           	psect	text31
  4666  003338                     __ptext31:
  4667                           	callstack 0
  4668  003338                     _obtener_distancia:
  4669                           	callstack 28
  4670  003338                     
  4671                           ;sensores.c: 58:     unsigned int cm = 0;
  4672  003338  0E00               	movlw	0
  4673  00333A  6E04               	movwf	(obtener_distancia@cm+1)^0,c
  4674  00333C  0E00               	movlw	0
  4675  00333E  6E03               	movwf	obtener_distancia@cm^0,c
  4676  003340                     
  4677                           ;sensores.c: 59:     LATCbits.LATC0 = 1;
  4678  003340  808B               	bsf	139,0,c	;volatile
  4679  003342                     
  4680                           ;sensores.c: 60:     _delay((unsigned long)((10)*(8000000/4000000.0)));
  4681  003342  0E06               	movlw	6
  4682  003344                     u5507:
  4683  003344  2EE8               	decfsz	wreg,f,c
  4684  003346  D7FE               	bra	u5507
  4685  003348  D000               	nop2	
  4686  00334A                     
  4687                           ;sensores.c: 61:     LATCbits.LATC0 = 0;
  4688  00334A  908B               	bcf	139,0,c	;volatile
  4689  00334C                     l262:
  4690                           
  4691                           ;sensores.c: 62:     while (PORTCbits.RC1 == 0) {
  4692  00334C  A282               	btfss	130,1,c	;volatile
  4693  00334E  EFAB  F019         	goto	u3741
  4694  003352  EFAD  F019         	goto	u3740
  4695  003356                     u3741:
  4696  003356  EFA6  F019         	goto	l262
  4697  00335A                     u3740:
  4698  00335A  EFB5  F019         	goto	l4009
  4699  00335E                     l4005:
  4700                           
  4701                           ;sensores.c: 65:         cm++;
  4702  00335E  4A03               	infsnz	obtener_distancia@cm^0,f,c
  4703  003360  2A04               	incf	(obtener_distancia@cm+1)^0,f,c
  4704  003362                     
  4705                           ;sensores.c: 66:         _delay((unsigned long)((58)*(8000000/4000000.0)));
  4706  003362  0E26               	movlw	38
  4707  003364                     u5517:
  4708  003364  2EE8               	decfsz	wreg,f,c
  4709  003366  D7FE               	bra	u5517
  4710  003368  D000               	nop2	
  4711  00336A                     l4009:
  4712                           
  4713                           ;sensores.c: 64:     while (PORTCbits.RC1 == 1) {
  4714  00336A  B282               	btfsc	130,1,c	;volatile
  4715  00336C  EFBA  F019         	goto	u3751
  4716  003370  EFBC  F019         	goto	u3750
  4717  003374                     u3751:
  4718  003374  EFAF  F019         	goto	l4005
  4719  003378                     u3750:
  4720  003378                     
  4721                           ;sensores.c: 68:     return cm;
  4722  003378  C003  F001         	movff	obtener_distancia@cm,?_obtener_distancia
  4723  00337C  C004  F002         	movff	obtener_distancia@cm+1,?_obtener_distancia+1
  4724  003380  0012               	return		;funcret
  4725  003382                     __end_of_obtener_distancia:
  4726                           	callstack 0
  4727                           
  4728 ;; *************** function _init_ports *****************
  4729 ;; Defined at:
  4730 ;;		line 44 in file "sensores.c"
  4731 ;; Parameters:    Size  Location     Type
  4732 ;;		None
  4733 ;; Auto vars:     Size  Location     Type
  4734 ;;		None
  4735 ;; Return value:  Size  Location     Type
  4736 ;;                  1    wreg      void 
  4737 ;; Registers used:
  4738 ;;		wreg, status,2
  4739 ;; Tracked objects:
  4740 ;;		On entry : 0/0
  4741 ;;		On exit  : 0/0
  4742 ;;		Unchanged: 0/0
  4743 ;; Data sizes:     COMRAM   BANK0   BANK1   BANK2   BANK3   BANK4   BANK5   BANK6   BANK7
  4744 ;;      Params:         0       0       0       0       0       0       0       0       0
  4745 ;;      Locals:         0       0       0       0       0       0       0       0       0
  4746 ;;      Temps:          0       0       0       0       0       0       0       0       0
  4747 ;;      Totals:         0       0       0       0       0       0       0       0       0
  4748 ;;Total ram usage:        0 bytes
  4749 ;; Hardware stack levels used: 1
  4750 ;; This function calls:
  4751 ;;		Nothing
  4752 ;; This function is called by:
  4753 ;;		_sensor_distancia
  4754 ;; This function uses a non-reentrant model
  4755 ;;
  4756                           
  4757                           	psect	text32
  4758  003956                     __ptext32:
  4759                           	callstack 0
  4760  003956                     _init_ports:
  4761                           	callstack 28
  4762  003956                     
  4763                           ;sensores.c: 45:     ADCON1bits.PCFG = 0xF;
  4764  003956  0E0F               	movlw	15
  4765  003958  12C1               	iorwf	193,f,c	;volatile
  4766  00395A                     
  4767                           ;sensores.c: 46:     LATCbits.LATC1 = 0;
  4768  00395A  928B               	bcf	139,1,c	;volatile
  4769  00395C                     
  4770                           ;sensores.c: 47:     LATCbits.LATC0 = 0;
  4771  00395C  908B               	bcf	139,0,c	;volatile
  4772  00395E                     
  4773                           ;sensores.c: 48:     TRISCbits.RC1 = 1;
  4774  00395E  8294               	bsf	148,1,c	;volatile
  4775  003960                     
  4776                           ;sensores.c: 49:     TRISCbits.RC0 = 0;
  4777  003960  9094               	bcf	148,0,c	;volatile
  4778  003962  0012               	return		;funcret
  4779  003964                     __end_of_init_ports:
  4780                           	callstack 0
  4781                           
  4782 ;; *************** function _imprimir *****************
  4783 ;; Defined at:
  4784 ;;		line 168 in file "Principal.c"
  4785 ;; Parameters:    Size  Location     Type
  4786 ;;  dist            2   26[BANK0 ] int 
  4787 ;;  temp            2   28[BANK0 ] int 
  4788 ;;  luz             2   30[BANK0 ] int 
  4789 ;; Auto vars:     Size  Location     Type
  4790 ;;  aux_luz        16   66[BANK0 ] unsigned char [16]
  4791 ;;  aux_temp       16   50[BANK0 ] unsigned char [16]
  4792 ;;  aux_dist       16   34[BANK0 ] unsigned char [16]
  4793 ;; Return value:  Size  Location     Type
  4794 ;;                  1    wreg      void 
  4795 ;; Registers used:
  4796 ;;		wreg, fsr0l, fsr0h, fsr1l, fsr1h, fsr2l, fsr2h, status,2, status,0, tblptrl, tblptrh, tblptru, cstack
  4797 ;; Tracked objects:
  4798 ;;		On entry : 0/0
  4799 ;;		On exit  : 0/0
  4800 ;;		Unchanged: 0/0
  4801 ;; Data sizes:     COMRAM   BANK0   BANK1   BANK2   BANK3   BANK4   BANK5   BANK6   BANK7
  4802 ;;      Params:         0       6       0       0       0       0       0       0       0
  4803 ;;      Locals:         0      48       0       0       0       0       0       0       0
  4804 ;;      Temps:          0       2       0       0       0       0       0       0       0
  4805 ;;      Totals:         0      56       0       0       0       0       0       0       0
  4806 ;;Total ram usage:       56 bytes
  4807 ;; Hardware stack levels used: 1
  4808 ;; Hardware stack levels required when called: 8
  4809 ;; This function calls:
  4810 ;;		_LCD_Clear
  4811 ;;		_LCD_Command
  4812 ;;		_LCD_String_xy
  4813 ;;		_sprintf
  4814 ;; This function is called by:
  4815 ;;		_principal
  4816 ;; This function uses a non-reentrant model
  4817 ;;
  4818                           
  4819                           	psect	text33
  4820  002846                     __ptext33:
  4821                           	callstack 0
  4822  002846                     _imprimir:
  4823                           	callstack 21
  4824  002846                     
  4825                           ;Principal.c: 171:     LCD_String_xy(0, 0, "D:T:L:");
  4826  002846  0E00               	movlw	0
  4827  002848  6E05               	movwf	LCD_String_xy@pos^0,c
  4828  00284A  0EB2               	movlw	low STR_1
  4829  00284C  6E06               	movwf	LCD_String_xy@msg^0,c
  4830  00284E  0E08               	movlw	high STR_1
  4831  002850  6E07               	movwf	(LCD_String_xy@msg+1)^0,c
  4832  002852  0E00               	movlw	0
  4833  002854  EC48  F01A         	call	_LCD_String_xy
  4834  002858                     
  4835                           ;Principal.c: 173:     char aux_dist[16] = "";
  4836  002858  EE20  F082         	lfsr	2,imprimir@aux_dist
  4837  00285C  0E0F               	movlw	15
  4838  00285E                     u4231:
  4839  00285E  6ADE               	clrf	postinc2,c
  4840  002860  06E8               	decf	wreg,f,c
  4841  002862  E2FD               	bc	u4231
  4842  002864                     
  4843                           ;Principal.c: 174:     sprintf(aux_dist, "%dcm", dist);
  4844  002864  0E82               	movlw	low imprimir@aux_dist
  4845  002866  0100               	movlb	0	; () banked
  4846  002868  6F68               	movwf	sprintf@s& (0+255),b
  4847  00286A  0E00               	movlw	high imprimir@aux_dist
  4848  00286C  6F69               	movwf	(sprintf@s+1)& (0+255),b
  4849  00286E  0EB9               	movlw	low STR_2
  4850  002870  6F6A               	movwf	sprintf@fmt& (0+255),b
  4851  002872  0E08               	movlw	high STR_2
  4852  002874  6F6B               	movwf	(sprintf@fmt+1)& (0+255),b
  4853  002876  C07A  F06C         	movff	imprimir@dist,?_sprintf+4
  4854  00287A  C07B  F06D         	movff	imprimir@dist+1,?_sprintf+5
  4855  00287E  ECFE  F018         	call	_sprintf	;wreg free
  4856  002882                     
  4857                           ;Principal.c: 176:     char aux_temp[16] = "";
  4858  002882  EE20  F092         	lfsr	2,imprimir@aux_temp
  4859  002886  0E0F               	movlw	15
  4860  002888                     u4241:
  4861  002888  6ADE               	clrf	postinc2,c
  4862  00288A  06E8               	decf	wreg,f,c
  4863  00288C  E2FD               	bc	u4241
  4864  00288E                     
  4865                           ;Principal.c: 177:     sprintf(aux_temp, "%dG", temp);
  4866  00288E  0E92               	movlw	low imprimir@aux_temp
  4867  002890  0100               	movlb	0	; () banked
  4868  002892  6F68               	movwf	sprintf@s& (0+255),b
  4869  002894  0E00               	movlw	high imprimir@aux_temp
  4870  002896  6F69               	movwf	(sprintf@s+1)& (0+255),b
  4871  002898  0EBE               	movlw	low STR_3
  4872  00289A  6F6A               	movwf	sprintf@fmt& (0+255),b
  4873  00289C  0E08               	movlw	high STR_3
  4874  00289E  6F6B               	movwf	(sprintf@fmt+1)& (0+255),b
  4875  0028A0  C07C  F06C         	movff	imprimir@temp,?_sprintf+4
  4876  0028A4  C07D  F06D         	movff	imprimir@temp+1,?_sprintf+5
  4877  0028A8  ECFE  F018         	call	_sprintf	;wreg free
  4878  0028AC                     
  4879                           ;Principal.c: 179:     char aux_luz[16] = "";
  4880  0028AC  EE20  F0A2         	lfsr	2,imprimir@aux_luz
  4881  0028B0  0E0F               	movlw	15
  4882  0028B2                     u4251:
  4883  0028B2  6ADE               	clrf	postinc2,c
  4884  0028B4  06E8               	decf	wreg,f,c
  4885  0028B6  E2FD               	bc	u4251
  4886  0028B8                     
  4887                           ;Principal.c: 180:     sprintf(aux_luz, "%dP", luz);
  4888  0028B8  0EA2               	movlw	low imprimir@aux_luz
  4889  0028BA  0100               	movlb	0	; () banked
  4890  0028BC  6F68               	movwf	sprintf@s& (0+255),b
  4891  0028BE  0E00               	movlw	high imprimir@aux_luz
  4892  0028C0  6F69               	movwf	(sprintf@s+1)& (0+255),b
  4893  0028C2  0EC2               	movlw	low STR_4
  4894  0028C4  6F6A               	movwf	sprintf@fmt& (0+255),b
  4895  0028C6  0E08               	movlw	high STR_4
  4896  0028C8  6F6B               	movwf	(sprintf@fmt+1)& (0+255),b
  4897  0028CA  C07E  F06C         	movff	imprimir@luz,?_sprintf+4
  4898  0028CE  C07F  F06D         	movff	imprimir@luz+1,?_sprintf+5
  4899  0028D2  ECFE  F018         	call	_sprintf	;wreg free
  4900  0028D6                     
  4901                           ;Principal.c: 182:     LCD_Command(0xC0);
  4902  0028D6  0EC0               	movlw	192
  4903  0028D8  EC27  F019         	call	_LCD_Command
  4904  0028DC                     
  4905                           ;Principal.c: 183:     LCD_String_xy(3, 0, aux_dist);
  4906  0028DC  0E00               	movlw	0
  4907  0028DE  6E05               	movwf	LCD_String_xy@pos^0,c
  4908  0028E0  0E82               	movlw	low imprimir@aux_dist
  4909  0028E2  6E06               	movwf	LCD_String_xy@msg^0,c
  4910  0028E4  0E00               	movlw	high imprimir@aux_dist
  4911  0028E6  6E07               	movwf	(LCD_String_xy@msg+1)^0,c
  4912  0028E8  0E03               	movlw	3
  4913  0028EA  EC48  F01A         	call	_LCD_String_xy
  4914  0028EE                     
  4915                           ;Principal.c: 184:     LCD_String_xy(3, 6, aux_temp);
  4916  0028EE  0E06               	movlw	6
  4917  0028F0  6E05               	movwf	LCD_String_xy@pos^0,c
  4918  0028F2  0E92               	movlw	low imprimir@aux_temp
  4919  0028F4  6E06               	movwf	LCD_String_xy@msg^0,c
  4920  0028F6  0E00               	movlw	high imprimir@aux_temp
  4921  0028F8  6E07               	movwf	(LCD_String_xy@msg+1)^0,c
  4922  0028FA  0E03               	movlw	3
  4923  0028FC  EC48  F01A         	call	_LCD_String_xy
  4924  002900                     
  4925                           ;Principal.c: 185:     LCD_String_xy(3, 11, aux_luz);
  4926  002900  0E0B               	movlw	11
  4927  002902  6E05               	movwf	LCD_String_xy@pos^0,c
  4928  002904  0EA2               	movlw	low imprimir@aux_luz
  4929  002906  6E06               	movwf	LCD_String_xy@msg^0,c
  4930  002908  0E00               	movlw	high imprimir@aux_luz
  4931  00290A  6E07               	movwf	(LCD_String_xy@msg+1)^0,c
  4932  00290C  0E03               	movlw	3
  4933  00290E  EC48  F01A         	call	_LCD_String_xy
  4934  002912                     
  4935                           ;Principal.c: 186:     _delay((unsigned long)((900)*(8000000/4000.0)));
  4936  002912  0E0A               	movlw	10
  4937  002914  0100               	movlb	0	; () banked
  4938  002916  6F81               	movwf	(??_imprimir+1)& (0+255),b
  4939  002918  0E22               	movlw	34
  4940  00291A  6F80               	movwf	??_imprimir& (0+255),b
  4941  00291C  0EA1               	movlw	161
  4942  00291E                     u5527:
  4943  00291E  2EE8               	decfsz	wreg,f,c
  4944  002920  D7FE               	bra	u5527
  4945  002922  2F80               	decfsz	??_imprimir& (0+255),f,b
  4946  002924  D7FC               	bra	u5527
  4947  002926  2F81               	decfsz	(??_imprimir+1)& (0+255),f,b
  4948  002928  D7FA               	bra	u5527
  4949  00292A                     
  4950                           ;Principal.c: 187:     LCD_Clear();
  4951  00292A  ECB7  F01C         	call	_LCD_Clear	;wreg free
  4952  00292E  0012               	return		;funcret
  4953  002930                     __end_of_imprimir:
  4954                           	callstack 0
  4955                           
  4956 ;; *************** function _sprintf *****************
  4957 ;; Defined at:
  4958 ;;		line 9 in file "D:\mplab\pic\sources\c99\common\nf_sprintf.c"
  4959 ;; Parameters:    Size  Location     Type
  4960 ;;  s               2    8[BANK0 ] PTR unsigned char 
  4961 ;;		 -> date(60), time(60), mostrar_estadistica@mensaje_usart_840(100), mostrar_estadistica@mensaje_usart_838(100), 
  4962 ;;		 -> mostrar_estadistica@mensaje_usart(100), validar@valor_usart_831(30), validar@valor_usart_829(30), validar@valor_
      +usart(30), 
  4963 ;;		 -> imprimir@aux_luz(16), imprimir@aux_temp(16), imprimir@aux_dist(16), 
  4964 ;;  fmt             2   10[BANK0 ] PTR const unsigned char 
  4965 ;;		 -> STR_14(16), STR_13(16), STR_12(18), STR_11(18), 
  4966 ;;		 -> STR_10(42), STR_9(33), STR_8(34), STR_7(3), 
  4967 ;;		 -> STR_6(3), STR_5(3), STR_4(4), STR_3(4), 
  4968 ;;		 -> STR_2(5), 
  4969 ;; Auto vars:     Size  Location     Type
  4970 ;;  f               6   20[BANK0 ] struct _IO_FILE
  4971 ;;  ap              2   18[BANK0 ] PTR void [1]
  4972 ;;		 -> ?_sprintf(2), 
  4973 ;;  ret             2    0        int 
  4974 ;; Return value:  Size  Location     Type
  4975 ;;                  2    8[BANK0 ] int 
  4976 ;; Registers used:
  4977 ;;		wreg, fsr1l, fsr1h, fsr2l, fsr2h, status,2, status,0, tblptrl, tblptrh, tblptru, cstack
  4978 ;; Tracked objects:
  4979 ;;		On entry : 0/0
  4980 ;;		On exit  : 0/0
  4981 ;;		Unchanged: 0/0
  4982 ;; Data sizes:     COMRAM   BANK0   BANK1   BANK2   BANK3   BANK4   BANK5   BANK6   BANK7
  4983 ;;      Params:         0      10       0       0       0       0       0       0       0
  4984 ;;      Locals:         0       8       0       0       0       0       0       0       0
  4985 ;;      Temps:          0       0       0       0       0       0       0       0       0
  4986 ;;      Totals:         0      18       0       0       0       0       0       0       0
  4987 ;;Total ram usage:       18 bytes
  4988 ;; Hardware stack levels used: 1
  4989 ;; Hardware stack levels required when called: 7
  4990 ;; This function calls:
  4991 ;;		_vfprintf
  4992 ;; This function is called by:
  4993 ;;		_imprimir
  4994 ;;		_validar
  4995 ;;		_mostrar_estadistica
  4996 ;;		_RTC_obtener_hora
  4997 ;;		_RTC_obtener_fecha
  4998 ;; This function uses a non-reentrant model
  4999 ;;
  5000                           
  5001                           	psect	text34
  5002  0031FC                     __ptext34:
  5003                           	callstack 0
  5004  0031FC                     _sprintf:
  5005                           	callstack 21
  5006  0031FC  0E6C               	movlw	low (?_sprintf+4)
  5007  0031FE  0100               	movlb	0	; () banked
  5008  003200  6F72               	movwf	sprintf@ap& (0+255),b
  5009  003202  0E00               	movlw	high (?_sprintf+4)
  5010  003204  6F73               	movwf	(sprintf@ap+1)& (0+255),b
  5011  003206  C068  F074         	movff	sprintf@s,sprintf@f
  5012  00320A  C069  F075         	movff	sprintf@s+1,sprintf@f+1
  5013  00320E                     
  5014                           ; BSR set to: 0
  5015  00320E  0E00               	movlw	0
  5016  003210  6F77               	movwf	(sprintf@f+3)& (0+255),b
  5017  003212  0E00               	movlw	0
  5018  003214  6F76               	movwf	(sprintf@f+2)& (0+255),b
  5019  003216                     
  5020                           ; BSR set to: 0
  5021  003216  0E00               	movlw	0
  5022  003218  6F79               	movwf	(sprintf@f+5)& (0+255),b
  5023  00321A  0E00               	movlw	0
  5024  00321C  6F78               	movwf	(sprintf@f+4)& (0+255),b
  5025  00321E                     
  5026                           ; BSR set to: 0
  5027  00321E  0E74               	movlw	low sprintf@f
  5028  003220  6F60               	movwf	vfprintf@fp& (0+255),b
  5029  003222  0E00               	movlw	high sprintf@f
  5030  003224  6F61               	movwf	(vfprintf@fp+1)& (0+255),b
  5031  003226  C06A  F062         	movff	sprintf@fmt,vfprintf@fmt
  5032  00322A  C06B  F063         	movff	sprintf@fmt+1,vfprintf@fmt+1
  5033  00322E  0E72               	movlw	low sprintf@ap
  5034  003230  6F64               	movwf	vfprintf@ap& (0+255),b
  5035  003232  0E00               	movlw	high sprintf@ap
  5036  003234  6F65               	movwf	(vfprintf@ap+1)& (0+255),b
  5037  003236  EC42  F018         	call	_vfprintf	;wreg free
  5038  00323A  0100               	movlb	0	; () banked
  5039  00323C  5176               	movf	(sprintf@f+2)& (0+255),w,b
  5040  00323E  2568               	addwf	sprintf@s& (0+255),w,b
  5041  003240  6ED9               	movwf	fsr2l,c
  5042  003242  5177               	movf	(sprintf@f+3)& (0+255),w,b
  5043  003244  2169               	addwfc	(sprintf@s+1)& (0+255),w,b
  5044  003246  6EDA               	movwf	fsr2h,c
  5045  003248  0E00               	movlw	0
  5046  00324A  6EDF               	movwf	indf2,c
  5047  00324C                     
  5048                           ; BSR set to: 0
  5049  00324C  0012               	return		;funcret
  5050  00324E                     __end_of_sprintf:
  5051                           	callstack 0
  5052                           
  5053 ;; *************** function _vfprintf *****************
  5054 ;; Defined at:
  5055 ;;		line 1390 in file "D:\mplab\pic\sources\c99\common\doprnt.c"
  5056 ;; Parameters:    Size  Location     Type
  5057 ;;  fp              2    0[BANK0 ] PTR struct _IO_FILE
  5058 ;;		 -> sprintf@f(6), 
  5059 ;;  fmt             2    2[BANK0 ] PTR const unsigned char 
  5060 ;;		 -> STR_14(16), STR_13(16), STR_12(18), STR_11(18), 
  5061 ;;		 -> STR_10(42), STR_9(33), STR_8(34), STR_7(3), 
  5062 ;;		 -> STR_6(3), STR_5(3), STR_4(4), STR_3(4), 
  5063 ;;		 -> STR_2(5), 
  5064 ;;  ap              2    4[BANK0 ] PTR PTR void 
  5065 ;;		 -> sprintf@ap(2), 
  5066 ;; Auto vars:     Size  Location     Type
  5067 ;;  cfmt            2    6[BANK0 ] PTR unsigned char 
  5068 ;;		 -> STR_14(16), STR_13(16), STR_12(18), STR_11(18), 
  5069 ;;		 -> STR_10(42), STR_9(33), STR_8(34), STR_7(3), 
  5070 ;;		 -> STR_6(3), STR_5(3), STR_4(4), STR_3(4), 
  5071 ;;		 -> STR_2(5), 
  5072 ;; Return value:  Size  Location     Type
  5073 ;;                  2    0[BANK0 ] int 
  5074 ;; Registers used:
  5075 ;;		wreg, fsr1l, fsr1h, fsr2l, fsr2h, status,2, status,0, tblptrl, tblptrh, tblptru, cstack
  5076 ;; Tracked objects:
  5077 ;;		On entry : 0/0
  5078 ;;		On exit  : 0/0
  5079 ;;		Unchanged: 0/0
  5080 ;; Data sizes:     COMRAM   BANK0   BANK1   BANK2   BANK3   BANK4   BANK5   BANK6   BANK7
  5081 ;;      Params:         0       6       0       0       0       0       0       0       0
  5082 ;;      Locals:         0       2       0       0       0       0       0       0       0
  5083 ;;      Temps:          0       0       0       0       0       0       0       0       0
  5084 ;;      Totals:         0       8       0       0       0       0       0       0       0
  5085 ;;Total ram usage:        8 bytes
  5086 ;; Hardware stack levels used: 1
  5087 ;; Hardware stack levels required when called: 6
  5088 ;; This function calls:
  5089 ;;		_vfpfcnvrt
  5090 ;; This function is called by:
  5091 ;;		_sprintf
  5092 ;; This function uses a non-reentrant model
  5093 ;;
  5094                           
  5095                           	psect	text35
  5096  003084                     __ptext35:
  5097                           	callstack 0
  5098  003084                     _vfprintf:
  5099                           	callstack 21
  5100  003084                     
  5101                           ;D:\mplab\pic\sources\c99\common\doprnt.c: 1390: int vfprintf(FILE *fp, const char *fmt,
      +                           va_list ap);D:\mplab\pic\sources\c99\common\doprnt.c: 1391: {;D:\mplab\pic\sources\c99\
      +                          common\doprnt.c: 1393:     char *cfmt;;D:\mplab\pic\sources\c99\common\doprnt.c: 1395:  
      +                             cfmt = (char *)fmt;
  5102  003084  C062  F066         	movff	vfprintf@fmt,vfprintf@cfmt
  5103  003088  C063  F067         	movff	vfprintf@fmt+1,vfprintf@cfmt+1
  5104  00308C                     
  5105                           ;D:\mplab\pic\sources\c99\common\doprnt.c: 1396:     nout = 0;
  5106  00308C  0E00               	movlw	0
  5107  00308E  0101               	movlb	1	; () banked
  5108  003090  6FC9               	movwf	(_nout+1)& (0+255),b
  5109  003092  0E00               	movlw	0
  5110  003094  6FC8               	movwf	_nout& (0+255),b
  5111                           
  5112                           ;D:\mplab\pic\sources\c99\common\doprnt.c: 1397:     while (*cfmt) {
  5113  003096  EF60  F018         	goto	l3781
  5114  00309A                     l3779:
  5115                           
  5116                           ; BSR set to: 1
  5117                           ;D:\mplab\pic\sources\c99\common\doprnt.c: 1398:         nout += vfpfcnvrt(fp, &cfmt, ap
      +                          );
  5118  00309A  C060  F043         	movff	vfprintf@fp,vfpfcnvrt@fp
  5119  00309E  C061  F044         	movff	vfprintf@fp+1,vfpfcnvrt@fp+1
  5120  0030A2  0E66               	movlw	low vfprintf@cfmt
  5121  0030A4  6E45               	movwf	vfpfcnvrt@fmt^0,c
  5122  0030A6  0E00               	movlw	high vfprintf@cfmt
  5123  0030A8  6E46               	movwf	(vfpfcnvrt@fmt+1)^0,c
  5124  0030AA  C064  F047         	movff	vfprintf@ap,vfpfcnvrt@ap
  5125  0030AE  C065  F048         	movff	vfprintf@ap+1,vfpfcnvrt@ap+1
  5126  0030B2  ECA9  F00A         	call	_vfpfcnvrt	;wreg free
  5127  0030B6  5043               	movf	?_vfpfcnvrt^0,w,c
  5128  0030B8  0101               	movlb	1	; () banked
  5129  0030BA  27C8               	addwf	_nout& (0+255),f,b
  5130  0030BC  5044               	movf	(?_vfpfcnvrt+1)^0,w,c
  5131  0030BE  23C9               	addwfc	(_nout+1)& (0+255),f,b
  5132  0030C0                     l3781:
  5133                           
  5134                           ; BSR set to: 1
  5135                           ;D:\mplab\pic\sources\c99\common\doprnt.c: 1397:     while (*cfmt) {
  5136  0030C0  C066  FFF6         	movff	vfprintf@cfmt,tblptrl
  5137  0030C4  C067  FFF7         	movff	vfprintf@cfmt+1,tblptrh
  5138  0030C8                     	if	0	;tblptru may be non-zero
  5139  0030C8                     	endif
  5140  0030C8                     	if	0	;tblptru may be non-zero
  5141  0030C8                     	endif
  5142  0030C8  0008               	tblrd		*
  5143  0030CA  50F5               	movf	tablat,w,c
  5144  0030CC  0900               	iorlw	0
  5145  0030CE  A4D8               	btfss	status,2,c
  5146  0030D0  EF6C  F018         	goto	u3621
  5147  0030D4  EF6E  F018         	goto	u3620
  5148  0030D8                     u3621:
  5149  0030D8  EF4D  F018         	goto	l3779
  5150  0030DC                     u3620:
  5151  0030DC                     
  5152                           ; BSR set to: 1
  5153                           ;D:\mplab\pic\sources\c99\common\doprnt.c: 1400:     return nout;
  5154  0030DC  C1C8  F060         	movff	_nout,?_vfprintf
  5155  0030E0  C1C9  F061         	movff	_nout+1,?_vfprintf+1
  5156  0030E4                     
  5157                           ; BSR set to: 1
  5158  0030E4  0012               	return		;funcret
  5159  0030E6                     __end_of_vfprintf:
  5160                           	callstack 0
  5161                           
  5162 ;; *************** function _vfpfcnvrt *****************
  5163 ;; Defined at:
  5164 ;;		line 692 in file "D:\mplab\pic\sources\c99\common\doprnt.c"
  5165 ;; Parameters:    Size  Location     Type
  5166 ;;  fp              2   66[COMRAM] PTR struct _IO_FILE
  5167 ;;		 -> sprintf@f(6), 
  5168 ;;  fmt             2   68[COMRAM] PTR PTR unsigned char 
  5169 ;;		 -> vfprintf@cfmt(2), 
  5170 ;;  ap              2   70[COMRAM] PTR PTR void 
  5171 ;;		 -> sprintf@ap(2), 
  5172 ;; Auto vars:     Size  Location     Type
  5173 ;;  llu             8   84[COMRAM] unsigned long long 
  5174 ;;  ll              8   76[COMRAM] long long 
  5175 ;;  f               4    0        long long 
  5176 ;;  vp              3    0        PTR void 
  5177 ;;  ct              3    0        unsigned char [3]
  5178 ;;  cp              2   92[COMRAM] PTR unsigned char 
  5179 ;;		 -> ?_sprintf(2), date(60), validar@valor_usart_831(30), validar@valor_usart_829(30), 
  5180 ;;		 -> validar@valor_usart(30), 
  5181 ;;  i               2    0        int 
  5182 ;;  done            2    0        int 
  5183 ;;  c               1   94[COMRAM] unsigned char 
  5184 ;; Return value:  Size  Location     Type
  5185 ;;                  2   66[COMRAM] int 
  5186 ;; Registers used:
  5187 ;;		wreg, fsr1l, fsr1h, fsr2l, fsr2h, status,2, status,0, tblptrl, tblptrh, tblptru, cstack
  5188 ;; Tracked objects:
  5189 ;;		On entry : 0/0
  5190 ;;		On exit  : 0/0
  5191 ;;		Unchanged: 0/0
  5192 ;; Data sizes:     COMRAM   BANK0   BANK1   BANK2   BANK3   BANK4   BANK5   BANK6   BANK7
  5193 ;;      Params:         6       0       0       0       0       0       0       0       0
  5194 ;;      Locals:        19       0       0       0       0       0       0       0       0
  5195 ;;      Temps:          4       0       0       0       0       0       0       0       0
  5196 ;;      Totals:        29       0       0       0       0       0       0       0       0
  5197 ;;Total ram usage:       29 bytes
  5198 ;; Hardware stack levels used: 1
  5199 ;; Hardware stack levels required when called: 5
  5200 ;; This function calls:
  5201 ;;		_dtoa
  5202 ;;		_fputc
  5203 ;;		_stoa
  5204 ;;		_xtoa
  5205 ;; This function is called by:
  5206 ;;		_vfprintf
  5207 ;; This function uses a non-reentrant model
  5208 ;;
  5209                           
  5210                           	psect	text36
  5211  001552                     __ptext36:
  5212                           	callstack 0
  5213  001552                     _vfpfcnvrt:
  5214                           	callstack 21
  5215  001552                     
  5216                           ;D:\mplab\pic\sources\c99\common\doprnt.c: 692: static int vfpfcnvrt(FILE *fp, char *fmt
      +                          [], va_list ap);D:\mplab\pic\sources\c99\common\doprnt.c: 693: {;D:\mplab\pic\sources\c9
      +                          9\common\doprnt.c: 694:     char c, *cp, ct[3];;D:\mplab\pic\sources\c99\common\doprnt.c
      +                          : 695:     int done, i;;D:\mplab\pic\sources\c99\common\doprnt.c: 696:     long long ll;
      +                          ;D:\mplab\pic\sources\c99\common\doprnt.c: 697:     unsigned long long llu;;D:\mplab\pic
      +                          \sources\c99\common\doprnt.c: 698:     long double f;;D:\mplab\pic\sources\c99\common\do
      +                          prnt.c: 699:     void *vp;
  5217  001552  C045  FFD9         	movff	vfpfcnvrt@fmt,fsr2l
  5218  001556  C046  FFDA         	movff	vfpfcnvrt@fmt+1,fsr2h
  5219  00155A  CFDE FFF6          	movff	postinc2,tblptrl
  5220  00155E  CFDD FFF7          	movff	postdec2,tblptrh
  5221  001562                     	if	0	;tblptru may be non-zero
  5222  001562                     	endif
  5223  001562                     	if	0	;tblptru may be non-zero
  5224  001562                     	endif
  5225  001562  0008               	tblrd		*
  5226  001564  50F5               	movf	tablat,w,c
  5227  001566  0A25               	xorlw	37
  5228  001568  A4D8               	btfss	status,2,c
  5229  00156A  EFB9  F00A         	goto	u3481
  5230  00156E  EFBB  F00A         	goto	u3480
  5231  001572                     u3481:
  5232  001572  EF16  F00C         	goto	l3733
  5233  001576                     u3480:
  5234  001576                     
  5235                           ;D:\mplab\pic\sources\c99\common\doprnt.c: 703:         ++*fmt;
  5236  001576  C045  FFD9         	movff	vfpfcnvrt@fmt,fsr2l
  5237  00157A  C046  FFDA         	movff	vfpfcnvrt@fmt+1,fsr2h
  5238  00157E  2ADE               	incf	postinc2,f,c
  5239  001580  0E00               	movlw	0
  5240  001582  22DD               	addwfc	postdec2,f,c
  5241  001584                     
  5242                           ;D:\mplab\pic\sources\c99\common\doprnt.c: 705:         flags = width = 0;
  5243  001584  0E00               	movlw	0
  5244  001586  0101               	movlb	1	; () banked
  5245  001588  6FCB               	movwf	(_width+1)& (0+255),b
  5246  00158A  0E00               	movlw	0
  5247  00158C  6FCA               	movwf	_width& (0+255),b
  5248  00158E  C1CA  F0F7         	movff	_width,_flags
  5249  001592  C1CB  F0F8         	movff	_width+1,_flags+1
  5250  001596                     
  5251                           ; BSR set to: 1
  5252                           ;D:\mplab\pic\sources\c99\common\doprnt.c: 706:         prec = -1;
  5253  001596  69CC               	setf	_prec& (0+255),b
  5254  001598  69CD               	setf	(_prec+1)& (0+255),b
  5255  00159A                     
  5256                           ; BSR set to: 1
  5257                           ;D:\mplab\pic\sources\c99\common\doprnt.c: 847:         if ((*fmt[0] == 'd') || (*fmt[0]
      +                           == 'i')) {
  5258  00159A  C045  FFD9         	movff	vfpfcnvrt@fmt,fsr2l
  5259  00159E  C046  FFDA         	movff	vfpfcnvrt@fmt+1,fsr2h
  5260  0015A2  CFDE FFF6          	movff	postinc2,tblptrl
  5261  0015A6  CFDD FFF7          	movff	postdec2,tblptrh
  5262  0015AA                     	if	0	;tblptru may be non-zero
  5263  0015AA                     	endif
  5264  0015AA                     	if	0	;tblptru may be non-zero
  5265  0015AA                     	endif
  5266  0015AA  0008               	tblrd		*
  5267  0015AC  50F5               	movf	tablat,w,c
  5268  0015AE  0A64               	xorlw	100
  5269  0015B0  B4D8               	btfsc	status,2,c
  5270  0015B2  EFDD  F00A         	goto	u3491
  5271  0015B6  EFDF  F00A         	goto	u3490
  5272  0015BA                     u3491:
  5273  0015BA  EFF1  F00A         	goto	l3689
  5274  0015BE                     u3490:
  5275  0015BE                     
  5276                           ; BSR set to: 1
  5277  0015BE  C045  FFD9         	movff	vfpfcnvrt@fmt,fsr2l
  5278  0015C2  C046  FFDA         	movff	vfpfcnvrt@fmt+1,fsr2h
  5279  0015C6  CFDE FFF6          	movff	postinc2,tblptrl
  5280  0015CA  CFDD FFF7          	movff	postdec2,tblptrh
  5281  0015CE                     	if	0	;tblptru may be non-zero
  5282  0015CE                     	endif
  5283  0015CE                     	if	0	;tblptru may be non-zero
  5284  0015CE                     	endif
  5285  0015CE  0008               	tblrd		*
  5286  0015D0  50F5               	movf	tablat,w,c
  5287  0015D2  0A69               	xorlw	105
  5288  0015D4  A4D8               	btfss	status,2,c
  5289  0015D6  EFEF  F00A         	goto	u3501
  5290  0015DA  EFF1  F00A         	goto	u3500
  5291  0015DE                     u3501:
  5292  0015DE  EF31  F00B         	goto	l3695
  5293  0015E2                     u3500:
  5294  0015E2                     l3689:
  5295                           
  5296                           ; BSR set to: 1
  5297                           ;D:\mplab\pic\sources\c99\common\doprnt.c: 849:             ++*fmt;
  5298  0015E2  C045  FFD9         	movff	vfpfcnvrt@fmt,fsr2l
  5299  0015E6  C046  FFDA         	movff	vfpfcnvrt@fmt+1,fsr2h
  5300  0015EA  2ADE               	incf	postinc2,f,c
  5301  0015EC  0E00               	movlw	0
  5302  0015EE  22DD               	addwfc	postdec2,f,c
  5303                           
  5304                           ;D:\mplab\pic\sources\c99\common\doprnt.c: 850:             ll = (long long)(*(int *)__v
      +                          a_arg(*(int **)ap, (int)0));
  5305  0015F0  C047  FFD9         	movff	vfpfcnvrt@ap,fsr2l
  5306  0015F4  C048  FFDA         	movff	vfpfcnvrt@ap+1,fsr2h
  5307  0015F8  CFDF F049          	movff	indf2,??_vfpfcnvrt
  5308  0015FC  0E02               	movlw	2
  5309  0015FE  26DE               	addwf	postinc2,f,c
  5310  001600  CFDF F04A          	movff	indf2,??_vfpfcnvrt+1
  5311  001604  0E00               	movlw	0
  5312  001606  22DD               	addwfc	postdec2,f,c
  5313  001608  C049  FFD9         	movff	??_vfpfcnvrt,fsr2l
  5314  00160C  C04A  FFDA         	movff	??_vfpfcnvrt+1,fsr2h
  5315  001610  CFDE F04D          	movff	postinc2,vfpfcnvrt@ll
  5316  001614  CFDD F04E          	movff	postdec2,vfpfcnvrt@ll+1
  5317  001618  0E00               	movlw	0
  5318  00161A  BE4E               	btfsc	(vfpfcnvrt@ll+1)^0,7,c
  5319  00161C  0EFF               	movlw	-1
  5320  00161E  6E4F               	movwf	(vfpfcnvrt@ll+2)^0,c
  5321  001620  6E50               	movwf	(vfpfcnvrt@ll+3)^0,c
  5322  001622  6E51               	movwf	(vfpfcnvrt@ll+4)^0,c
  5323  001624  6E52               	movwf	(vfpfcnvrt@ll+5)^0,c
  5324  001626  6E53               	movwf	(vfpfcnvrt@ll+6)^0,c
  5325  001628  6E54               	movwf	(vfpfcnvrt@ll+7)^0,c
  5326  00162A                     
  5327                           ; BSR set to: 1
  5328                           ;D:\mplab\pic\sources\c99\common\doprnt.c: 852:             return dtoa(fp, ll);
  5329  00162A  C043  F01C         	movff	vfpfcnvrt@fp,dtoa@fp
  5330  00162E  C044  F01D         	movff	vfpfcnvrt@fp+1,dtoa@fp+1
  5331  001632  C04D  F01E         	movff	vfpfcnvrt@ll,dtoa@d
  5332  001636  C04E  F01F         	movff	vfpfcnvrt@ll+1,dtoa@d+1
  5333  00163A  C04F  F020         	movff	vfpfcnvrt@ll+2,dtoa@d+2
  5334  00163E  C050  F021         	movff	vfpfcnvrt@ll+3,dtoa@d+3
  5335  001642  C051  F022         	movff	vfpfcnvrt@ll+4,dtoa@d+4
  5336  001646  C052  F023         	movff	vfpfcnvrt@ll+5,dtoa@d+5
  5337  00164A  C053  F024         	movff	vfpfcnvrt@ll+6,dtoa@d+6
  5338  00164E  C054  F025         	movff	vfpfcnvrt@ll+7,dtoa@d+7
  5339  001652  EC32  F00C         	call	_dtoa	;wreg free
  5340  001656  C01C  F043         	movff	?_dtoa,?_vfpfcnvrt
  5341  00165A  C01D  F044         	movff	?_dtoa+1,?_vfpfcnvrt+1
  5342  00165E  EF31  F00C         	goto	l1488
  5343  001662                     l3695:
  5344                           
  5345                           ; BSR set to: 1
  5346                           ;D:\mplab\pic\sources\c99\common\doprnt.c: 1171:         if (*fmt[0] == 's') {
  5347  001662  C045  FFD9         	movff	vfpfcnvrt@fmt,fsr2l
  5348  001666  C046  FFDA         	movff	vfpfcnvrt@fmt+1,fsr2h
  5349  00166A  CFDE FFF6          	movff	postinc2,tblptrl
  5350  00166E  CFDD FFF7          	movff	postdec2,tblptrh
  5351  001672                     	if	0	;tblptru may be non-zero
  5352  001672                     	endif
  5353  001672                     	if	0	;tblptru may be non-zero
  5354  001672                     	endif
  5355  001672  0008               	tblrd		*
  5356  001674  50F5               	movf	tablat,w,c
  5357  001676  0A73               	xorlw	115
  5358  001678  A4D8               	btfss	status,2,c
  5359  00167A  EF41  F00B         	goto	u3511
  5360  00167E  EF43  F00B         	goto	u3510
  5361  001682                     u3511:
  5362  001682  EF6E  F00B         	goto	l3703
  5363  001686                     u3510:
  5364  001686                     
  5365                           ; BSR set to: 1
  5366                           ;D:\mplab\pic\sources\c99\common\doprnt.c: 1173:             ++*fmt;
  5367  001686  C045  FFD9         	movff	vfpfcnvrt@fmt,fsr2l
  5368  00168A  C046  FFDA         	movff	vfpfcnvrt@fmt+1,fsr2h
  5369  00168E  2ADE               	incf	postinc2,f,c
  5370  001690  0E00               	movlw	0
  5371  001692  22DD               	addwfc	postdec2,f,c
  5372                           
  5373                           ;D:\mplab\pic\sources\c99\common\doprnt.c: 1174:             cp = (*(char * *)__va_arg(*
      +                          (char * **)ap, (char *)0));
  5374  001694  C047  FFD9         	movff	vfpfcnvrt@ap,fsr2l
  5375  001698  C048  FFDA         	movff	vfpfcnvrt@ap+1,fsr2h
  5376  00169C  CFDF F049          	movff	indf2,??_vfpfcnvrt
  5377  0016A0  0E02               	movlw	2
  5378  0016A2  26DE               	addwf	postinc2,f,c
  5379  0016A4  CFDF F04A          	movff	indf2,??_vfpfcnvrt+1
  5380  0016A8  0E00               	movlw	0
  5381  0016AA  22DD               	addwfc	postdec2,f,c
  5382  0016AC  C049  FFD9         	movff	??_vfpfcnvrt,fsr2l
  5383  0016B0  C04A  FFDA         	movff	??_vfpfcnvrt+1,fsr2h
  5384  0016B4  CFDE F05D          	movff	postinc2,vfpfcnvrt@cp
  5385  0016B8  CFDD F05E          	movff	postdec2,vfpfcnvrt@cp+1
  5386  0016BC                     
  5387                           ; BSR set to: 1
  5388                           ;D:\mplab\pic\sources\c99\common\doprnt.c: 1176:             return stoa(fp, cp);
  5389  0016BC  C043  F00A         	movff	vfpfcnvrt@fp,stoa@fp
  5390  0016C0  C044  F00B         	movff	vfpfcnvrt@fp+1,stoa@fp+1
  5391  0016C4  C05D  F00C         	movff	vfpfcnvrt@cp,stoa@s
  5392  0016C8  C05E  F00D         	movff	vfpfcnvrt@cp+1,stoa@s+1
  5393  0016CC  ECAD  F011         	call	_stoa	;wreg free
  5394  0016D0  C00A  F043         	movff	?_stoa,?_vfpfcnvrt
  5395  0016D4  C00B  F044         	movff	?_stoa+1,?_vfpfcnvrt+1
  5396  0016D8  EF31  F00C         	goto	l1488
  5397  0016DC                     l3703:
  5398                           
  5399                           ; BSR set to: 1
  5400                           ;D:\mplab\pic\sources\c99\common\doprnt.c: 1296:         if ((*fmt[0] == 'x') || (*fmt[0
      +                          ] == 'X')) {
  5401  0016DC  C045  FFD9         	movff	vfpfcnvrt@fmt,fsr2l
  5402  0016E0  C046  FFDA         	movff	vfpfcnvrt@fmt+1,fsr2h
  5403  0016E4  CFDE FFF6          	movff	postinc2,tblptrl
  5404  0016E8  CFDD FFF7          	movff	postdec2,tblptrh
  5405  0016EC                     	if	0	;tblptru may be non-zero
  5406  0016EC                     	endif
  5407  0016EC                     	if	0	;tblptru may be non-zero
  5408  0016EC                     	endif
  5409  0016EC  0008               	tblrd		*
  5410  0016EE  50F5               	movf	tablat,w,c
  5411  0016F0  0A78               	xorlw	120
  5412  0016F2  B4D8               	btfsc	status,2,c
  5413  0016F4  EF7E  F00B         	goto	u3521
  5414  0016F8  EF80  F00B         	goto	u3520
  5415  0016FC                     u3521:
  5416  0016FC  EF92  F00B         	goto	l3707
  5417  001700                     u3520:
  5418  001700                     
  5419                           ; BSR set to: 1
  5420  001700  C045  FFD9         	movff	vfpfcnvrt@fmt,fsr2l
  5421  001704  C046  FFDA         	movff	vfpfcnvrt@fmt+1,fsr2h
  5422  001708  CFDE FFF6          	movff	postinc2,tblptrl
  5423  00170C  CFDD FFF7          	movff	postdec2,tblptrh
  5424  001710                     	if	0	;tblptru may be non-zero
  5425  001710                     	endif
  5426  001710                     	if	0	;tblptru may be non-zero
  5427  001710                     	endif
  5428  001710  0008               	tblrd		*
  5429  001712  50F5               	movf	tablat,w,c
  5430  001714  0A58               	xorlw	88
  5431  001716  A4D8               	btfss	status,2,c
  5432  001718  EF90  F00B         	goto	u3531
  5433  00171C  EF92  F00B         	goto	u3530
  5434  001720                     u3531:
  5435  001720  EFE0  F00B         	goto	l3717
  5436  001724                     u3530:
  5437  001724                     l3707:
  5438                           
  5439                           ; BSR set to: 1
  5440                           ;D:\mplab\pic\sources\c99\common\doprnt.c: 1298:             c = (*fmt)[0];
  5441  001724  C045  FFD9         	movff	vfpfcnvrt@fmt,fsr2l
  5442  001728  C046  FFDA         	movff	vfpfcnvrt@fmt+1,fsr2h
  5443  00172C  CFDE FFF6          	movff	postinc2,tblptrl
  5444  001730  CFDD FFF7          	movff	postdec2,tblptrh
  5445  001734                     	if	0	;tblptru may be non-zero
  5446  001734                     	endif
  5447  001734                     	if	0	;tblptru may be non-zero
  5448  001734                     	endif
  5449  001734  0008               	tblrd		*
  5450  001736  CFF5 F05F          	movff	tablat,vfpfcnvrt@c
  5451  00173A                     
  5452                           ; BSR set to: 1
  5453                           ;D:\mplab\pic\sources\c99\common\doprnt.c: 1299:             ++*fmt;
  5454  00173A  C045  FFD9         	movff	vfpfcnvrt@fmt,fsr2l
  5455  00173E  C046  FFDA         	movff	vfpfcnvrt@fmt+1,fsr2h
  5456  001742  2ADE               	incf	postinc2,f,c
  5457  001744  0E00               	movlw	0
  5458  001746  22DD               	addwfc	postdec2,f,c
  5459  001748                     
  5460                           ; BSR set to: 1
  5461                           ;D:\mplab\pic\sources\c99\common\doprnt.c: 1300:             llu = (unsigned long long)(
      +                          *(unsigned int *)__va_arg(*(unsigned int **)ap, (unsigned int)0));
  5462  001748  C047  FFD9         	movff	vfpfcnvrt@ap,fsr2l
  5463  00174C  C048  FFDA         	movff	vfpfcnvrt@ap+1,fsr2h
  5464  001750  CFDF F049          	movff	indf2,??_vfpfcnvrt
  5465  001754  0E02               	movlw	2
  5466  001756  26DE               	addwf	postinc2,f,c
  5467  001758  CFDF F04A          	movff	indf2,??_vfpfcnvrt+1
  5468  00175C  0E00               	movlw	0
  5469  00175E  22DD               	addwfc	postdec2,f,c
  5470  001760  C049  FFD9         	movff	??_vfpfcnvrt,fsr2l
  5471  001764  C04A  FFDA         	movff	??_vfpfcnvrt+1,fsr2h
  5472  001768  CFDE F04B          	movff	postinc2,??_vfpfcnvrt+2
  5473  00176C  CFDD F04C          	movff	postdec2,??_vfpfcnvrt+3
  5474  001770  C04B  F055         	movff	??_vfpfcnvrt+2,vfpfcnvrt@llu
  5475  001774  C04C  F056         	movff	??_vfpfcnvrt+3,vfpfcnvrt@llu+1
  5476  001778  6A57               	clrf	(vfpfcnvrt@llu+2)^0,c
  5477  00177A  6A58               	clrf	(vfpfcnvrt@llu+3)^0,c
  5478  00177C  6A59               	clrf	(vfpfcnvrt@llu+4)^0,c
  5479  00177E  6A5A               	clrf	(vfpfcnvrt@llu+5)^0,c
  5480  001780  6A5B               	clrf	(vfpfcnvrt@llu+6)^0,c
  5481  001782  6A5C               	clrf	(vfpfcnvrt@llu+7)^0,c
  5482  001784                     
  5483                           ; BSR set to: 1
  5484                           ;D:\mplab\pic\sources\c99\common\doprnt.c: 1302:             return xtoa(fp, llu, c);
  5485  001784  C043  F01C         	movff	vfpfcnvrt@fp,xtoa@fp
  5486  001788  C044  F01D         	movff	vfpfcnvrt@fp+1,xtoa@fp+1
  5487  00178C  C055  F01E         	movff	vfpfcnvrt@llu,xtoa@d
  5488  001790  C056  F01F         	movff	vfpfcnvrt@llu+1,xtoa@d+1
  5489  001794  C057  F020         	movff	vfpfcnvrt@llu+2,xtoa@d+2
  5490  001798  C058  F021         	movff	vfpfcnvrt@llu+3,xtoa@d+3
  5491  00179C  C059  F022         	movff	vfpfcnvrt@llu+4,xtoa@d+4
  5492  0017A0  C05A  F023         	movff	vfpfcnvrt@llu+5,xtoa@d+5
  5493  0017A4  C05B  F024         	movff	vfpfcnvrt@llu+6,xtoa@d+6
  5494  0017A8  C05C  F025         	movff	vfpfcnvrt@llu+7,xtoa@d+7
  5495  0017AC  C05F  F026         	movff	vfpfcnvrt@c,xtoa@x
  5496  0017B0  ECA7  F00D         	call	_xtoa	;wreg free
  5497  0017B4  C01C  F043         	movff	?_xtoa,?_vfpfcnvrt
  5498  0017B8  C01D  F044         	movff	?_xtoa+1,?_vfpfcnvrt+1
  5499  0017BC  EF31  F00C         	goto	l1488
  5500  0017C0                     l3717:
  5501                           
  5502                           ; BSR set to: 1
  5503                           ;D:\mplab\pic\sources\c99\common\doprnt.c: 1372:         if ((*fmt)[0] == '%') {
  5504  0017C0  C045  FFD9         	movff	vfpfcnvrt@fmt,fsr2l
  5505  0017C4  C046  FFDA         	movff	vfpfcnvrt@fmt+1,fsr2h
  5506  0017C8  CFDE FFF6          	movff	postinc2,tblptrl
  5507  0017CC  CFDD FFF7          	movff	postdec2,tblptrh
  5508  0017D0                     	if	0	;tblptru may be non-zero
  5509  0017D0                     	endif
  5510  0017D0                     	if	0	;tblptru may be non-zero
  5511  0017D0                     	endif
  5512  0017D0  0008               	tblrd		*
  5513  0017D2  50F5               	movf	tablat,w,c
  5514  0017D4  0A25               	xorlw	37
  5515  0017D6  A4D8               	btfss	status,2,c
  5516  0017D8  EFF0  F00B         	goto	u3541
  5517  0017DC  EFF2  F00B         	goto	u3540
  5518  0017E0                     u3541:
  5519  0017E0  EF09  F00C         	goto	l3727
  5520  0017E4                     u3540:
  5521  0017E4                     
  5522                           ; BSR set to: 1
  5523                           ;D:\mplab\pic\sources\c99\common\doprnt.c: 1373:             ++*fmt;
  5524  0017E4  C045  FFD9         	movff	vfpfcnvrt@fmt,fsr2l
  5525  0017E8  C046  FFDA         	movff	vfpfcnvrt@fmt+1,fsr2h
  5526  0017EC  2ADE               	incf	postinc2,f,c
  5527  0017EE  0E00               	movlw	0
  5528  0017F0  22DD               	addwfc	postdec2,f,c
  5529  0017F2                     
  5530                           ; BSR set to: 1
  5531                           ;D:\mplab\pic\sources\c99\common\doprnt.c: 1374:             fputc((int)'%', fp);
  5532  0017F2  0E00               	movlw	0
  5533  0017F4  6E02               	movwf	(fputc@c+1)^0,c
  5534  0017F6  0E25               	movlw	37
  5535  0017F8  6E01               	movwf	fputc@c^0,c
  5536  0017FA  C043  F003         	movff	vfpfcnvrt@fp,fputc@fp
  5537  0017FE  C044  F004         	movff	vfpfcnvrt@fp+1,fputc@fp+1
  5538  001802  EC70  F015         	call	_fputc	;wreg free
  5539  001806                     l3723:
  5540                           
  5541                           ;D:\mplab\pic\sources\c99\common\doprnt.c: 1375:             return 1;
  5542  001806  0E00               	movlw	0
  5543  001808  6E44               	movwf	(?_vfpfcnvrt+1)^0,c
  5544  00180A  0E01               	movlw	1
  5545  00180C  6E43               	movwf	?_vfpfcnvrt^0,c
  5546  00180E  EF31  F00C         	goto	l1488
  5547  001812                     l3727:
  5548                           
  5549                           ; BSR set to: 1
  5550                           ;D:\mplab\pic\sources\c99\common\doprnt.c: 1379:         ++*fmt;
  5551  001812  C045  FFD9         	movff	vfpfcnvrt@fmt,fsr2l
  5552  001816  C046  FFDA         	movff	vfpfcnvrt@fmt+1,fsr2h
  5553  00181A  2ADE               	incf	postinc2,f,c
  5554  00181C  0E00               	movlw	0
  5555  00181E  22DD               	addwfc	postdec2,f,c
  5556  001820                     
  5557                           ; BSR set to: 1
  5558                           ;D:\mplab\pic\sources\c99\common\doprnt.c: 1380:         return 0;
  5559  001820  0E00               	movlw	0
  5560  001822  6E44               	movwf	(?_vfpfcnvrt+1)^0,c
  5561  001824  0E00               	movlw	0
  5562  001826  6E43               	movwf	?_vfpfcnvrt^0,c
  5563  001828  EF31  F00C         	goto	l1488
  5564  00182C                     l3733:
  5565                           
  5566                           ;D:\mplab\pic\sources\c99\common\doprnt.c: 1384:     fputc((int)(*fmt)[0], fp);
  5567  00182C  C045  FFD9         	movff	vfpfcnvrt@fmt,fsr2l
  5568  001830  C046  FFDA         	movff	vfpfcnvrt@fmt+1,fsr2h
  5569  001834  CFDE FFF6          	movff	postinc2,tblptrl
  5570  001838  CFDD FFF7          	movff	postdec2,tblptrh
  5571  00183C                     	if	0	;tblptru may be non-zero
  5572  00183C                     	endif
  5573  00183C                     	if	0	;tblptru may be non-zero
  5574  00183C                     	endif
  5575  00183C  0008               	tblrd		*
  5576  00183E  50F5               	movf	tablat,w,c
  5577  001840  6E01               	movwf	fputc@c^0,c
  5578  001842  6A02               	clrf	(fputc@c+1)^0,c
  5579  001844  C043  F003         	movff	vfpfcnvrt@fp,fputc@fp
  5580  001848  C044  F004         	movff	vfpfcnvrt@fp+1,fputc@fp+1
  5581  00184C  EC70  F015         	call	_fputc	;wreg free
  5582  001850                     
  5583                           ;D:\mplab\pic\sources\c99\common\doprnt.c: 1385:     ++*fmt;
  5584  001850  C045  FFD9         	movff	vfpfcnvrt@fmt,fsr2l
  5585  001854  C046  FFDA         	movff	vfpfcnvrt@fmt+1,fsr2h
  5586  001858  2ADE               	incf	postinc2,f,c
  5587  00185A  0E00               	movlw	0
  5588  00185C  22DD               	addwfc	postdec2,f,c
  5589  00185E  EF03  F00C         	goto	l3723
  5590  001862                     l1488:
  5591  001862  0012               	return		;funcret
  5592  001864                     __end_of_vfpfcnvrt:
  5593                           	callstack 0
  5594                           
  5595 ;; *************** function _xtoa *****************
  5596 ;; Defined at:
  5597 ;;		line 645 in file "D:\mplab\pic\sources\c99\common\doprnt.c"
  5598 ;; Parameters:    Size  Location     Type
  5599 ;;  fp              2   27[COMRAM] PTR struct _IO_FILE
  5600 ;;		 -> sprintf@f(6), 
  5601 ;;  d               8   29[COMRAM] unsigned long long 
  5602 ;;  x               1   37[COMRAM] unsigned char 
  5603 ;; Auto vars:     Size  Location     Type
  5604 ;;  n               8   54[COMRAM] unsigned long long 
  5605 ;;  c               2   64[COMRAM] int 
  5606 ;;  i               2   62[COMRAM] int 
  5607 ;;  w               2   52[COMRAM] int 
  5608 ;;  p               2   50[COMRAM] int 
  5609 ;; Return value:  Size  Location     Type
  5610 ;;                  2   27[COMRAM] int 
  5611 ;; Registers used:
  5612 ;;		wreg, fsr1l, fsr1h, fsr2l, fsr2h, status,2, status,0, cstack
  5613 ;; Tracked objects:
  5614 ;;		On entry : 0/0
  5615 ;;		On exit  : 0/0
  5616 ;;		Unchanged: 0/0
  5617 ;; Data sizes:     COMRAM   BANK0   BANK1   BANK2   BANK3   BANK4   BANK5   BANK6   BANK7
  5618 ;;      Params:        11       0       0       0       0       0       0       0       0
  5619 ;;      Locals:        20       0       0       0       0       0       0       0       0
  5620 ;;      Temps:          8       0       0       0       0       0       0       0       0
  5621 ;;      Totals:        39       0       0       0       0       0       0       0       0
  5622 ;;Total ram usage:       39 bytes
  5623 ;; Hardware stack levels used: 1
  5624 ;; Hardware stack levels required when called: 4
  5625 ;; This function calls:
  5626 ;;		_isalpha
  5627 ;;		_isupper
  5628 ;;		_pad
  5629 ;;		_toupper
  5630 ;; This function is called by:
  5631 ;;		_vfpfcnvrt
  5632 ;; This function uses a non-reentrant model
  5633 ;;
  5634                           
  5635                           	psect	text37
  5636  001B4E                     __ptext37:
  5637                           	callstack 0
  5638  001B4E                     _xtoa:
  5639                           	callstack 21
  5640  001B4E                     
  5641                           ;D:\mplab\pic\sources\c99\common\doprnt.c: 645: static int xtoa(FILE *fp, unsigned long 
      +                          long d, char x);D:\mplab\pic\sources\c99\common\doprnt.c: 646: {;D:\mplab\pic\sources\c9
      +                          9\common\doprnt.c: 647:     int c, i, p, w;;D:\mplab\pic\sources\c99\common\doprnt.c: 64
      +                          8:     unsigned long long n;;D:\mplab\pic\sources\c99\common\doprnt.c: 651:     if (!(pr
      +                          ec < 0)) {
  5642  001B4E  0101               	movlb	1	; () banked
  5643  001B50  BFCD               	btfsc	(_prec+1)& (0+255),7,b
  5644  001B52  EFAD  F00D         	goto	u3281
  5645  001B56  EFAF  F00D         	goto	u3280
  5646  001B5A                     u3281:
  5647  001B5A  EFB1  F00D         	goto	l3595
  5648  001B5E                     u3280:
  5649  001B5E                     
  5650                           ; BSR set to: 1
  5651                           ;D:\mplab\pic\sources\c99\common\doprnt.c: 652:         flags &= ~(1 << 1);
  5652  001B5E  0100               	movlb	0	; () banked
  5653  001B60  93F7               	bcf	_flags& (0+255),1,b
  5654  001B62                     l3595:
  5655                           
  5656                           ;D:\mplab\pic\sources\c99\common\doprnt.c: 654:     p = (0 < prec) ? prec : 1;
  5657  001B62  0101               	movlb	1	; () banked
  5658  001B64  BFCD               	btfsc	(_prec+1)& (0+255),7,b
  5659  001B66  EFBF  F00D         	goto	u3290
  5660  001B6A  51CD               	movf	(_prec+1)& (0+255),w,b
  5661  001B6C  E106               	bnz	u3291
  5662  001B6E  05CC               	decf	_prec& (0+255),w,b
  5663  001B70  B0D8               	btfsc	status,0,c
  5664  001B72  EFBD  F00D         	goto	u3291
  5665  001B76  EFBF  F00D         	goto	u3290
  5666  001B7A                     u3291:
  5667  001B7A  EFC5  F00D         	goto	l1456
  5668  001B7E                     u3290:
  5669  001B7E                     
  5670                           ; BSR set to: 1
  5671  001B7E  0E00               	movlw	0
  5672  001B80  6E34               	movwf	(xtoa@p+1)^0,c
  5673  001B82  0E01               	movlw	1
  5674  001B84  6E33               	movwf	xtoa@p^0,c
  5675  001B86  EFC9  F00D         	goto	l1458
  5676  001B8A                     l1456:
  5677                           
  5678                           ; BSR set to: 1
  5679  001B8A  C1CC  F033         	movff	_prec,xtoa@p
  5680  001B8E  C1CD  F034         	movff	_prec+1,xtoa@p+1
  5681  001B92                     l1458:
  5682                           
  5683                           ; BSR set to: 1
  5684                           ;D:\mplab\pic\sources\c99\common\doprnt.c: 655:     w = width;
  5685  001B92  C1CA  F035         	movff	_width,xtoa@w
  5686  001B96  C1CB  F036         	movff	_width+1,xtoa@w+1
  5687                           
  5688                           ;D:\mplab\pic\sources\c99\common\doprnt.c: 656:     if (flags & (1 << 4)) {
  5689  001B9A  0100               	movlb	0	; () banked
  5690  001B9C  A9F7               	btfss	_flags& (0+255),4,b
  5691  001B9E  EFD3  F00D         	goto	u3301
  5692  001BA2  EFD5  F00D         	goto	u3300
  5693  001BA6                     u3301:
  5694  001BA6  EFD9  F00D         	goto	l3601
  5695  001BAA                     u3300:
  5696  001BAA                     
  5697                           ; BSR set to: 0
  5698                           ;D:\mplab\pic\sources\c99\common\doprnt.c: 657:         w -= 2;
  5699  001BAA  0EFE               	movlw	254
  5700  001BAC  2635               	addwf	xtoa@w^0,f,c
  5701  001BAE  0EFF               	movlw	255
  5702  001BB0  2236               	addwfc	(xtoa@w+1)^0,f,c
  5703  001BB2                     l3601:
  5704                           
  5705                           ; BSR set to: 0
  5706                           ;D:\mplab\pic\sources\c99\common\doprnt.c: 661:     n = d;
  5707  001BB2  C01E  F037         	movff	xtoa@d,xtoa@n
  5708  001BB6  C01F  F038         	movff	xtoa@d+1,xtoa@n+1
  5709  001BBA  C020  F039         	movff	xtoa@d+2,xtoa@n+2
  5710  001BBE  C021  F03A         	movff	xtoa@d+3,xtoa@n+3
  5711  001BC2  C022  F03B         	movff	xtoa@d+4,xtoa@n+4
  5712  001BC6  C023  F03C         	movff	xtoa@d+5,xtoa@n+5
  5713  001BCA  C024  F03D         	movff	xtoa@d+6,xtoa@n+6
  5714  001BCE  C025  F03E         	movff	xtoa@d+7,xtoa@n+7
  5715  001BD2                     
  5716                           ; BSR set to: 0
  5717                           ;D:\mplab\pic\sources\c99\common\doprnt.c: 662:     i = sizeof(dbuf) - 1;
  5718  001BD2  0E00               	movlw	0
  5719  001BD4  6E40               	movwf	(xtoa@i+1)^0,c
  5720  001BD6  0E1F               	movlw	31
  5721  001BD8  6E3F               	movwf	xtoa@i^0,c
  5722  001BDA                     
  5723                           ; BSR set to: 0
  5724                           ;D:\mplab\pic\sources\c99\common\doprnt.c: 663:     dbuf[i] = '\0';
  5725  001BDA  0E00               	movlw	0
  5726  001BDC  0102               	movlb	2	; () banked
  5727  001BDE  6FB3               	movwf	(_dbuf+31)& (0+255),b
  5728                           
  5729                           ;D:\mplab\pic\sources\c99\common\doprnt.c: 664:     while (!(i < 2) && (n || (0 < p) || 
      +                          ((0 < w) && (flags & (1 << 1))))) {
  5730  001BE0  EFA5  F00E         	goto	l3637
  5731  001BE4                     l3607:
  5732                           
  5733                           ;D:\mplab\pic\sources\c99\common\doprnt.c: 665:         --i;
  5734  001BE4  063F               	decf	xtoa@i^0,f,c
  5735  001BE6  A0D8               	btfss	status,0,c
  5736  001BE8  0640               	decf	(xtoa@i+1)^0,f,c
  5737  001BEA                     
  5738                           ;D:\mplab\pic\sources\c99\common\doprnt.c: 666:         c = n & 0x0f;
  5739  001BEA  0E0F               	movlw	15
  5740  001BEC  1437               	andwf	xtoa@n^0,w,c
  5741  001BEE  6E41               	movwf	xtoa@c^0,c
  5742  001BF0  6A42               	clrf	(xtoa@c+1)^0,c
  5743  001BF2                     
  5744                           ;D:\mplab\pic\sources\c99\common\doprnt.c: 667:         c = (c < 10) ? (int)'0' + c : (i
      +                          nt)'a' + (c - 10);
  5745  001BF2  BE42               	btfsc	(xtoa@c+1)^0,7,c
  5746  001BF4  EF05  F00E         	goto	u3311
  5747  001BF8  5042               	movf	(xtoa@c+1)^0,w,c
  5748  001BFA  E109               	bnz	u3310
  5749  001BFC  0E0A               	movlw	10
  5750  001BFE  5C41               	subwf	xtoa@c^0,w,c
  5751  001C00  A0D8               	btfss	status,0,c
  5752  001C02  EF05  F00E         	goto	u3311
  5753  001C06  EF07  F00E         	goto	u3310
  5754  001C0A                     u3311:
  5755  001C0A  EF0F  F00E         	goto	l3615
  5756  001C0E                     u3310:
  5757  001C0E  0E57               	movlw	87
  5758  001C10  2441               	addwf	xtoa@c^0,w,c
  5759  001C12  6E41               	movwf	xtoa@c^0,c
  5760  001C14  0E00               	movlw	0
  5761  001C16  2042               	addwfc	(xtoa@c+1)^0,w,c
  5762  001C18  6E42               	movwf	(xtoa@c+1)^0,c
  5763  001C1A  EF15  F00E         	goto	l1465
  5764  001C1E                     l3615:
  5765  001C1E  0E30               	movlw	48
  5766  001C20  2441               	addwf	xtoa@c^0,w,c
  5767  001C22  6E41               	movwf	xtoa@c^0,c
  5768  001C24  0E00               	movlw	0
  5769  001C26  2042               	addwfc	(xtoa@c+1)^0,w,c
  5770  001C28  6E42               	movwf	(xtoa@c+1)^0,c
  5771  001C2A                     l1465:
  5772  001C2A  0EBF               	movlw	191
  5773  001C2C  6E27               	movwf	??_xtoa^0,c
  5774  001C2E  0EFF               	movlw	255
  5775  001C30  6E28               	movwf	(??_xtoa+1)^0,c
  5776  001C32  5026               	movf	xtoa@x^0,w,c
  5777  001C34  6E29               	movwf	(??_xtoa+2)^0,c
  5778  001C36  6A2A               	clrf	(??_xtoa+3)^0,c
  5779  001C38  5027               	movf	??_xtoa^0,w,c
  5780  001C3A  2629               	addwf	(??_xtoa+2)^0,f,c
  5781  001C3C  5028               	movf	(??_xtoa+1)^0,w,c
  5782  001C3E  222A               	addwfc	(??_xtoa+3)^0,f,c
  5783  001C40  502A               	movf	(??_xtoa+3)^0,w,c
  5784  001C42  E10A               	bnz	u3320
  5785  001C44  0E1A               	movlw	26
  5786  001C46  5C29               	subwf	(??_xtoa+2)^0,w,c
  5787  001C48  A0D8               	btfss	status,0,c
  5788  001C4A  EF29  F00E         	goto	u3321
  5789  001C4E  EF2C  F00E         	goto	u3320
  5790  001C52                     u3321:
  5791  001C52  0E01               	movlw	1
  5792  001C54  EF2D  F00E         	goto	u3330
  5793  001C58                     u3320:
  5794  001C58  0E00               	movlw	0
  5795  001C5A                     u3330:
  5796  001C5A  6E2F               	movwf	_xtoa$1875^0,c
  5797  001C5C  6A30               	clrf	(_xtoa$1875+1)^0,c
  5798  001C5E  502F               	movf	_xtoa$1875^0,w,c
  5799  001C60  1030               	iorwf	(_xtoa$1875+1)^0,w,c
  5800  001C62  B4D8               	btfsc	status,2,c
  5801  001C64  EF36  F00E         	goto	u3341
  5802  001C68  EF38  F00E         	goto	u3340
  5803  001C6C                     u3341:
  5804  001C6C  EF68  F00E         	goto	l3629
  5805  001C70                     u3340:
  5806  001C70  0E9F               	movlw	159
  5807  001C72  6E27               	movwf	??_xtoa^0,c
  5808  001C74  0EFF               	movlw	255
  5809  001C76  6E28               	movwf	(??_xtoa+1)^0,c
  5810  001C78  0E20               	movlw	32
  5811  001C7A  1041               	iorwf	xtoa@c^0,w,c
  5812  001C7C  6E29               	movwf	(??_xtoa+2)^0,c
  5813  001C7E  0E00               	movlw	0
  5814  001C80  1042               	iorwf	(xtoa@c+1)^0,w,c
  5815  001C82  6E2A               	movwf	(??_xtoa+3)^0,c
  5816  001C84  5027               	movf	??_xtoa^0,w,c
  5817  001C86  2629               	addwf	(??_xtoa+2)^0,f,c
  5818  001C88  5028               	movf	(??_xtoa+1)^0,w,c
  5819  001C8A  222A               	addwfc	(??_xtoa+3)^0,f,c
  5820  001C8C  502A               	movf	(??_xtoa+3)^0,w,c
  5821  001C8E  E10A               	bnz	u3350
  5822  001C90  0E1A               	movlw	26
  5823  001C92  5C29               	subwf	(??_xtoa+2)^0,w,c
  5824  001C94  A0D8               	btfss	status,0,c
  5825  001C96  EF4F  F00E         	goto	u3351
  5826  001C9A  EF52  F00E         	goto	u3350
  5827  001C9E                     u3351:
  5828  001C9E  0E01               	movlw	1
  5829  001CA0  EF53  F00E         	goto	u3360
  5830  001CA4                     u3350:
  5831  001CA4  0E00               	movlw	0
  5832  001CA6                     u3360:
  5833  001CA6  6E31               	movwf	_xtoa$1876^0,c
  5834  001CA8  6A32               	clrf	(_xtoa$1876+1)^0,c
  5835  001CAA  5031               	movf	_xtoa$1876^0,w,c
  5836  001CAC  1032               	iorwf	(_xtoa$1876+1)^0,w,c
  5837  001CAE  B4D8               	btfsc	status,2,c
  5838  001CB0  EF5C  F00E         	goto	u3371
  5839  001CB4  EF5E  F00E         	goto	u3370
  5840  001CB8                     u3371:
  5841  001CB8  EF68  F00E         	goto	l3629
  5842  001CBC                     u3370:
  5843  001CBC                     
  5844                           ;D:\mplab\pic\sources\c99\common\doprnt.c: 669:             c = toupper(c);
  5845  001CBC  C041  F007         	movff	xtoa@c,toupper@c
  5846  001CC0  C042  F008         	movff	xtoa@c+1,toupper@c+1
  5847  001CC4  EC73  F018         	call	_toupper	;wreg free
  5848  001CC8  C007  F041         	movff	?_toupper,xtoa@c
  5849  001CCC  C008  F042         	movff	?_toupper+1,xtoa@c+1
  5850  001CD0                     l3629:
  5851                           
  5852                           ;D:\mplab\pic\sources\c99\common\doprnt.c: 671:         dbuf[i] = (char)c;
  5853  001CD0  0E94               	movlw	low _dbuf
  5854  001CD2  243F               	addwf	xtoa@i^0,w,c
  5855  001CD4  6ED9               	movwf	fsr2l,c
  5856  001CD6  0E02               	movlw	high _dbuf
  5857  001CD8  2040               	addwfc	(xtoa@i+1)^0,w,c
  5858  001CDA  6EDA               	movwf	fsr2h,c
  5859  001CDC  C041  FFDF         	movff	xtoa@c,indf2
  5860  001CE0                     
  5861                           ;D:\mplab\pic\sources\c99\common\doprnt.c: 672:         --p;
  5862  001CE0  0633               	decf	xtoa@p^0,f,c
  5863  001CE2  A0D8               	btfss	status,0,c
  5864  001CE4  0634               	decf	(xtoa@p+1)^0,f,c
  5865  001CE6                     
  5866                           ;D:\mplab\pic\sources\c99\common\doprnt.c: 673:         --w;
  5867  001CE6  0635               	decf	xtoa@w^0,f,c
  5868  001CE8  A0D8               	btfss	status,0,c
  5869  001CEA  0636               	decf	(xtoa@w+1)^0,f,c
  5870  001CEC                     
  5871                           ;D:\mplab\pic\sources\c99\common\doprnt.c: 674:         n = n >> 4;
  5872  001CEC  C037  F027         	movff	xtoa@n,??_xtoa
  5873  001CF0  C038  F028         	movff	xtoa@n+1,??_xtoa+1
  5874  001CF4  C039  F029         	movff	xtoa@n+2,??_xtoa+2
  5875  001CF8  C03A  F02A         	movff	xtoa@n+3,??_xtoa+3
  5876  001CFC  C03B  F02B         	movff	xtoa@n+4,??_xtoa+4
  5877  001D00  C03C  F02C         	movff	xtoa@n+5,??_xtoa+5
  5878  001D04  C03D  F02D         	movff	xtoa@n+6,??_xtoa+6
  5879  001D08  C03E  F02E         	movff	xtoa@n+7,??_xtoa+7
  5880  001D0C  0E05               	movlw	5
  5881  001D0E  EF92  F00E         	goto	u3380
  5882  001D12                     u3385:
  5883  001D12  90D8               	bcf	status,0,c
  5884  001D14  322E               	rrcf	(??_xtoa+7)^0,f,c
  5885  001D16  322D               	rrcf	(??_xtoa+6)^0,f,c
  5886  001D18  322C               	rrcf	(??_xtoa+5)^0,f,c
  5887  001D1A  322B               	rrcf	(??_xtoa+4)^0,f,c
  5888  001D1C  322A               	rrcf	(??_xtoa+3)^0,f,c
  5889  001D1E  3229               	rrcf	(??_xtoa+2)^0,f,c
  5890  001D20  3228               	rrcf	(??_xtoa+1)^0,f,c
  5891  001D22  3227               	rrcf	??_xtoa^0,f,c
  5892  001D24                     u3380:
  5893  001D24  2EE8               	decfsz	wreg,f,c
  5894  001D26  EF89  F00E         	goto	u3385
  5895  001D2A  C027  F037         	movff	??_xtoa,xtoa@n
  5896  001D2E  C028  F038         	movff	??_xtoa+1,xtoa@n+1
  5897  001D32  C029  F039         	movff	??_xtoa+2,xtoa@n+2
  5898  001D36  C02A  F03A         	movff	??_xtoa+3,xtoa@n+3
  5899  001D3A  C02B  F03B         	movff	??_xtoa+4,xtoa@n+4
  5900  001D3E  C02C  F03C         	movff	??_xtoa+5,xtoa@n+5
  5901  001D42  C02D  F03D         	movff	??_xtoa+6,xtoa@n+6
  5902  001D46  C02E  F03E         	movff	??_xtoa+7,xtoa@n+7
  5903  001D4A                     l3637:
  5904                           
  5905                           ;D:\mplab\pic\sources\c99\common\doprnt.c: 664:     while (!(i < 2) && (n || (0 < p) || 
      +                          ((0 < w) && (flags & (1 << 1))))) {
  5906  001D4A  BE40               	btfsc	(xtoa@i+1)^0,7,c
  5907  001D4C  EFB1  F00E         	goto	u3391
  5908  001D50  5040               	movf	(xtoa@i+1)^0,w,c
  5909  001D52  E109               	bnz	u3390
  5910  001D54  0E02               	movlw	2
  5911  001D56  5C3F               	subwf	xtoa@i^0,w,c
  5912  001D58  A0D8               	btfss	status,0,c
  5913  001D5A  EFB1  F00E         	goto	u3391
  5914  001D5E  EFB3  F00E         	goto	u3390
  5915  001D62                     u3391:
  5916  001D62  EFE4  F00E         	goto	l1479
  5917  001D66                     u3390:
  5918  001D66  5037               	movf	xtoa@n^0,w,c
  5919  001D68  1038               	iorwf	(xtoa@n+1)^0,w,c
  5920  001D6A  1039               	iorwf	(xtoa@n+2)^0,w,c
  5921  001D6C  103A               	iorwf	(xtoa@n+3)^0,w,c
  5922  001D6E  103B               	iorwf	(xtoa@n+4)^0,w,c
  5923  001D70  103C               	iorwf	(xtoa@n+5)^0,w,c
  5924  001D72  103D               	iorwf	(xtoa@n+6)^0,w,c
  5925  001D74  103E               	iorwf	(xtoa@n+7)^0,w,c
  5926  001D76  A4D8               	btfss	status,2,c
  5927  001D78  EFC0  F00E         	goto	u3401
  5928  001D7C  EFC2  F00E         	goto	u3400
  5929  001D80                     u3401:
  5930  001D80  EFF2  F00D         	goto	l3607
  5931  001D84                     u3400:
  5932  001D84  BE34               	btfsc	(xtoa@p+1)^0,7,c
  5933  001D86  EFCF  F00E         	goto	u3410
  5934  001D8A  5034               	movf	(xtoa@p+1)^0,w,c
  5935  001D8C  E106               	bnz	u3411
  5936  001D8E  0433               	decf	xtoa@p^0,w,c
  5937  001D90  B0D8               	btfsc	status,0,c
  5938  001D92  EFCD  F00E         	goto	u3411
  5939  001D96  EFCF  F00E         	goto	u3410
  5940  001D9A                     u3411:
  5941  001D9A  EFF2  F00D         	goto	l3607
  5942  001D9E                     u3410:
  5943  001D9E  BE36               	btfsc	(xtoa@w+1)^0,7,c
  5944  001DA0  EFDA  F00E         	goto	u3421
  5945  001DA4  5036               	movf	(xtoa@w+1)^0,w,c
  5946  001DA6  E108               	bnz	u3420
  5947  001DA8  0435               	decf	xtoa@w^0,w,c
  5948  001DAA  A0D8               	btfss	status,0,c
  5949  001DAC  EFDA  F00E         	goto	u3421
  5950  001DB0  EFDC  F00E         	goto	u3420
  5951  001DB4                     u3421:
  5952  001DB4  EFE4  F00E         	goto	l1479
  5953  001DB8                     u3420:
  5954  001DB8  0100               	movlb	0	; () banked
  5955  001DBA  B3F7               	btfsc	_flags& (0+255),1,b
  5956  001DBC  EFE2  F00E         	goto	u3431
  5957  001DC0  EFE4  F00E         	goto	u3430
  5958  001DC4                     u3431:
  5959  001DC4  EFF2  F00D         	goto	l3607
  5960  001DC8                     u3430:
  5961  001DC8                     l1479:
  5962                           
  5963                           ;D:\mplab\pic\sources\c99\common\doprnt.c: 678:     if (flags & (1 << 4)) {
  5964  001DC8  0100               	movlb	0	; () banked
  5965  001DCA  A9F7               	btfss	_flags& (0+255),4,b
  5966  001DCC  EFEA  F00E         	goto	u3441
  5967  001DD0  EFEC  F00E         	goto	u3440
  5968  001DD4                     u3441:
  5969  001DD4  EF02  F00F         	goto	l3653
  5970  001DD8                     u3440:
  5971  001DD8                     
  5972                           ; BSR set to: 0
  5973                           ;D:\mplab\pic\sources\c99\common\doprnt.c: 679:         --i;
  5974  001DD8  063F               	decf	xtoa@i^0,f,c
  5975  001DDA  A0D8               	btfss	status,0,c
  5976  001DDC  0640               	decf	(xtoa@i+1)^0,f,c
  5977  001DDE                     
  5978                           ; BSR set to: 0
  5979                           ;D:\mplab\pic\sources\c99\common\doprnt.c: 680:         dbuf[i] = x;
  5980  001DDE  0E94               	movlw	low _dbuf
  5981  001DE0  243F               	addwf	xtoa@i^0,w,c
  5982  001DE2  6ED9               	movwf	fsr2l,c
  5983  001DE4  0E02               	movlw	high _dbuf
  5984  001DE6  2040               	addwfc	(xtoa@i+1)^0,w,c
  5985  001DE8  6EDA               	movwf	fsr2h,c
  5986  001DEA  C026  FFDF         	movff	xtoa@x,indf2
  5987  001DEE                     
  5988                           ; BSR set to: 0
  5989                           ;D:\mplab\pic\sources\c99\common\doprnt.c: 681:         --i;
  5990  001DEE  063F               	decf	xtoa@i^0,f,c
  5991  001DF0  A0D8               	btfss	status,0,c
  5992  001DF2  0640               	decf	(xtoa@i+1)^0,f,c
  5993                           
  5994                           ;D:\mplab\pic\sources\c99\common\doprnt.c: 682:         dbuf[i] = '0';
  5995  001DF4  0E94               	movlw	low _dbuf
  5996  001DF6  243F               	addwf	xtoa@i^0,w,c
  5997  001DF8  6ED9               	movwf	fsr2l,c
  5998  001DFA  0E02               	movlw	high _dbuf
  5999  001DFC  2040               	addwfc	(xtoa@i+1)^0,w,c
  6000  001DFE  6EDA               	movwf	fsr2h,c
  6001  001E00  0E30               	movlw	48
  6002  001E02  6EDF               	movwf	indf2,c
  6003  001E04                     l3653:
  6004                           
  6005                           ; BSR set to: 0
  6006                           ;D:\mplab\pic\sources\c99\common\doprnt.c: 686:     return pad(fp, &dbuf[i], w);
  6007  001E04  C01C  F011         	movff	xtoa@fp,pad@fp
  6008  001E08  C01D  F012         	movff	xtoa@fp+1,pad@fp+1
  6009  001E0C  0E94               	movlw	low _dbuf
  6010  001E0E  243F               	addwf	xtoa@i^0,w,c
  6011  001E10  6E13               	movwf	pad@buf^0,c
  6012  001E12  0E02               	movlw	high _dbuf
  6013  001E14  2040               	addwfc	(xtoa@i+1)^0,w,c
  6014  001E16  6E14               	movwf	(pad@buf+1)^0,c
  6015  001E18  C035  F015         	movff	xtoa@w,pad@p
  6016  001E1C  C036  F016         	movff	xtoa@w+1,pad@p+1
  6017  001E20  ECD5  F015         	call	_pad	;wreg free
  6018  001E24  C011  F01C         	movff	?_pad,?_xtoa
  6019  001E28  C012  F01D         	movff	?_pad+1,?_xtoa+1
  6020  001E2C  0012               	return		;funcret
  6021  001E2E                     __end_of_xtoa:
  6022                           	callstack 0
  6023                           
  6024 ;; *************** function _toupper *****************
  6025 ;; Defined at:
  6026 ;;		line 4 in file "D:\mplab\pic\sources\c99\common\toupper.c"
  6027 ;; Parameters:    Size  Location     Type
  6028 ;;  c               2    6[COMRAM] int 
  6029 ;; Auto vars:     Size  Location     Type
  6030 ;;		None
  6031 ;; Return value:  Size  Location     Type
  6032 ;;                  2    6[COMRAM] int 
  6033 ;; Registers used:
  6034 ;;		wreg, status,2, status,0
  6035 ;; Tracked objects:
  6036 ;;		On entry : 0/0
  6037 ;;		On exit  : 0/0
  6038 ;;		Unchanged: 0/0
  6039 ;; Data sizes:     COMRAM   BANK0   BANK1   BANK2   BANK3   BANK4   BANK5   BANK6   BANK7
  6040 ;;      Params:         2       0       0       0       0       0       0       0       0
  6041 ;;      Locals:         2       0       0       0       0       0       0       0       0
  6042 ;;      Temps:          4       0       0       0       0       0       0       0       0
  6043 ;;      Totals:         8       0       0       0       0       0       0       0       0
  6044 ;;Total ram usage:        8 bytes
  6045 ;; Hardware stack levels used: 1
  6046 ;; Hardware stack levels required when called: 1
  6047 ;; This function calls:
  6048 ;;		_islower
  6049 ;; This function is called by:
  6050 ;;		_xtoa
  6051 ;; This function uses a non-reentrant model
  6052 ;;
  6053                           
  6054                           	psect	text38
  6055  0030E6                     __ptext38:
  6056                           	callstack 0
  6057  0030E6                     _toupper:
  6058                           	callstack 23
  6059  0030E6  0E9F               	movlw	159
  6060  0030E8  6E09               	movwf	??_toupper^0,c
  6061  0030EA  0EFF               	movlw	255
  6062  0030EC  6E0A               	movwf	(??_toupper+1)^0,c
  6063  0030EE  C007  F00B         	movff	toupper@c,??_toupper+2
  6064  0030F2  C008  F00C         	movff	toupper@c+1,??_toupper+3
  6065  0030F6  5009               	movf	??_toupper^0,w,c
  6066  0030F8  260B               	addwf	(??_toupper+2)^0,f,c
  6067  0030FA  500A               	movf	(??_toupper+1)^0,w,c
  6068  0030FC  220C               	addwfc	(??_toupper+3)^0,f,c
  6069  0030FE  500C               	movf	(??_toupper+3)^0,w,c
  6070  003100  E10A               	bnz	u3000
  6071  003102  0E1A               	movlw	26
  6072  003104  5C0B               	subwf	(??_toupper+2)^0,w,c
  6073  003106  A0D8               	btfss	status,0,c
  6074  003108  EF88  F018         	goto	u3001
  6075  00310C  EF8B  F018         	goto	u3000
  6076  003110                     u3001:
  6077  003110  0E01               	movlw	1
  6078  003112  EF8C  F018         	goto	u3010
  6079  003116                     u3000:
  6080  003116  0E00               	movlw	0
  6081  003118                     u3010:
  6082  003118  6E0D               	movwf	_toupper$1979^0,c
  6083  00311A  6A0E               	clrf	(_toupper$1979+1)^0,c
  6084  00311C  500D               	movf	_toupper$1979^0,w,c
  6085  00311E  100E               	iorwf	(_toupper$1979+1)^0,w,c
  6086  003120  B4D8               	btfsc	status,2,c
  6087  003122  EF95  F018         	goto	u3021
  6088  003126  EF97  F018         	goto	u3020
  6089  00312A                     u3021:
  6090  00312A  EF9D  F018         	goto	l1565
  6091  00312E                     u3020:
  6092  00312E  0E5F               	movlw	95
  6093  003130  1407               	andwf	toupper@c^0,w,c
  6094  003132  6E07               	movwf	?_toupper^0,c
  6095  003134  6A08               	clrf	(?_toupper+1)^0,c
  6096  003136  EFA1  F018         	goto	l1570
  6097  00313A                     l1565:
  6098  00313A  C007  F007         	movff	toupper@c,?_toupper
  6099  00313E  C008  F008         	movff	toupper@c+1,?_toupper+1
  6100  003142                     l1570:
  6101  003142  0012               	return		;funcret
  6102  003144                     __end_of_toupper:
  6103                           	callstack 0
  6104                           
  6105 ;; *************** function _islower *****************
  6106 ;; Defined at:
  6107 ;;		line 5 in file "D:\mplab\pic\sources\c99\common\islower.c"
  6108 ;; Parameters:    Size  Location     Type
  6109 ;;  c               2    0[COMRAM] int 
  6110 ;; Auto vars:     Size  Location     Type
  6111 ;;		None
  6112 ;; Return value:  Size  Location     Type
  6113 ;;                  2    0[COMRAM] int 
  6114 ;; Registers used:
  6115 ;;		wreg, status,2, status,0
  6116 ;; Tracked objects:
  6117 ;;		On entry : 0/0
  6118 ;;		On exit  : 0/0
  6119 ;;		Unchanged: 0/0
  6120 ;; Data sizes:     COMRAM   BANK0   BANK1   BANK2   BANK3   BANK4   BANK5   BANK6   BANK7
  6121 ;;      Params:         2       0       0       0       0       0       0       0       0
  6122 ;;      Locals:         0       0       0       0       0       0       0       0       0
  6123 ;;      Temps:          4       0       0       0       0       0       0       0       0
  6124 ;;      Totals:         6       0       0       0       0       0       0       0       0
  6125 ;;Total ram usage:        6 bytes
  6126 ;; Hardware stack levels used: 1
  6127 ;; This function calls:
  6128 ;;		Nothing
  6129 ;; This function is called by:
  6130 ;;		_toupper
  6131 ;; This function uses a non-reentrant model
  6132 ;;
  6133                           
  6134                           	psect	text39
  6135  0035C2                     __ptext39:
  6136                           	callstack 0
  6137  0035C2                     _islower:
  6138                           	callstack 23
  6139  0035C2  0E9F               	movlw	159
  6140  0035C4  6E03               	movwf	??_islower^0,c
  6141  0035C6  0EFF               	movlw	255
  6142  0035C8  6E04               	movwf	(??_islower+1)^0,c
  6143  0035CA  C001  F005         	movff	islower@c,??_islower+2
  6144  0035CE  C002  F006         	movff	islower@c+1,??_islower+3
  6145  0035D2  5003               	movf	??_islower^0,w,c
  6146  0035D4  2605               	addwf	(??_islower+2)^0,f,c
  6147  0035D6  5004               	movf	(??_islower+1)^0,w,c
  6148  0035D8  2206               	addwfc	(??_islower+3)^0,f,c
  6149  0035DA  5006               	movf	(??_islower+3)^0,w,c
  6150  0035DC  E10A               	bnz	u2760
  6151  0035DE  0E1A               	movlw	26
  6152  0035E0  5C05               	subwf	(??_islower+2)^0,w,c
  6153  0035E2  A0D8               	btfss	status,0,c
  6154  0035E4  EFF6  F01A         	goto	u2761
  6155  0035E8  EFF9  F01A         	goto	u2760
  6156  0035EC                     u2761:
  6157  0035EC  0E01               	movlw	1
  6158  0035EE  EFFA  F01A         	goto	u2770
  6159  0035F2                     u2760:
  6160  0035F2  0E00               	movlw	0
  6161  0035F4                     u2770:
  6162  0035F4  6E01               	movwf	?_islower^0,c
  6163  0035F6  6A02               	clrf	(?_islower+1)^0,c
  6164  0035F8  0012               	return		;funcret
  6165  0035FA                     __end_of_islower:
  6166                           	callstack 0
  6167                           
  6168 ;; *************** function _isupper *****************
  6169 ;; Defined at:
  6170 ;;		line 5 in file "D:\mplab\pic\sources\c99\common\isupper.c"
  6171 ;; Parameters:    Size  Location     Type
  6172 ;;  c               2    0[COMRAM] int 
  6173 ;; Auto vars:     Size  Location     Type
  6174 ;;		None
  6175 ;; Return value:  Size  Location     Type
  6176 ;;                  2    0[COMRAM] int 
  6177 ;; Registers used:
  6178 ;;		wreg, status,2, status,0
  6179 ;; Tracked objects:
  6180 ;;		On entry : 0/0
  6181 ;;		On exit  : 0/0
  6182 ;;		Unchanged: 0/0
  6183 ;; Data sizes:     COMRAM   BANK0   BANK1   BANK2   BANK3   BANK4   BANK5   BANK6   BANK7
  6184 ;;      Params:         2       0       0       0       0       0       0       0       0
  6185 ;;      Locals:         0       0       0       0       0       0       0       0       0
  6186 ;;      Temps:          4       0       0       0       0       0       0       0       0
  6187 ;;      Totals:         6       0       0       0       0       0       0       0       0
  6188 ;;Total ram usage:        6 bytes
  6189 ;; Hardware stack levels used: 1
  6190 ;; This function calls:
  6191 ;;		Nothing
  6192 ;; This function is called by:
  6193 ;;		_xtoa
  6194 ;; This function uses a non-reentrant model
  6195 ;;
  6196                           
  6197                           	psect	text40
  6198  0035FA                     __ptext40:
  6199                           	callstack 0
  6200  0035FA                     _isupper:
  6201                           	callstack 24
  6202  0035FA  0EBF               	movlw	191
  6203  0035FC  6E03               	movwf	??_isupper^0,c
  6204  0035FE  0EFF               	movlw	255
  6205  003600  6E04               	movwf	(??_isupper+1)^0,c
  6206  003602  C001  F005         	movff	isupper@c,??_isupper+2
  6207  003606  C002  F006         	movff	isupper@c+1,??_isupper+3
  6208  00360A  5003               	movf	??_isupper^0,w,c
  6209  00360C  2605               	addwf	(??_isupper+2)^0,f,c
  6210  00360E  5004               	movf	(??_isupper+1)^0,w,c
  6211  003610  2206               	addwfc	(??_isupper+3)^0,f,c
  6212  003612  5006               	movf	(??_isupper+3)^0,w,c
  6213  003614  E10A               	bnz	u2960
  6214  003616  0E1A               	movlw	26
  6215  003618  5C05               	subwf	(??_isupper+2)^0,w,c
  6216  00361A  A0D8               	btfss	status,0,c
  6217  00361C  EF12  F01B         	goto	u2961
  6218  003620  EF15  F01B         	goto	u2960
  6219  003624                     u2961:
  6220  003624  0E01               	movlw	1
  6221  003626  EF16  F01B         	goto	u2970
  6222  00362A                     u2960:
  6223  00362A  0E00               	movlw	0
  6224  00362C                     u2970:
  6225  00362C  6E01               	movwf	?_isupper^0,c
  6226  00362E  6A02               	clrf	(?_isupper+1)^0,c
  6227  003630  0012               	return		;funcret
  6228  003632                     __end_of_isupper:
  6229                           	callstack 0
  6230                           
  6231 ;; *************** function _isalpha *****************
  6232 ;; Defined at:
  6233 ;;		line 5 in file "D:\mplab\pic\sources\c99\common\isalpha.c"
  6234 ;; Parameters:    Size  Location     Type
  6235 ;;  c               2    0[COMRAM] int 
  6236 ;; Auto vars:     Size  Location     Type
  6237 ;;		None
  6238 ;; Return value:  Size  Location     Type
  6239 ;;                  2    0[COMRAM] int 
  6240 ;; Registers used:
  6241 ;;		wreg, status,2, status,0
  6242 ;; Tracked objects:
  6243 ;;		On entry : 0/0
  6244 ;;		On exit  : 0/0
  6245 ;;		Unchanged: 0/0
  6246 ;; Data sizes:     COMRAM   BANK0   BANK1   BANK2   BANK3   BANK4   BANK5   BANK6   BANK7
  6247 ;;      Params:         2       0       0       0       0       0       0       0       0
  6248 ;;      Locals:         0       0       0       0       0       0       0       0       0
  6249 ;;      Temps:          4       0       0       0       0       0       0       0       0
  6250 ;;      Totals:         6       0       0       0       0       0       0       0       0
  6251 ;;Total ram usage:        6 bytes
  6252 ;; Hardware stack levels used: 1
  6253 ;; This function calls:
  6254 ;;		Nothing
  6255 ;; This function is called by:
  6256 ;;		_xtoa
  6257 ;; This function uses a non-reentrant model
  6258 ;;
  6259                           
  6260                           	psect	text41
  6261  00354C                     __ptext41:
  6262                           	callstack 0
  6263  00354C                     _isalpha:
  6264                           	callstack 24
  6265  00354C  0E9F               	movlw	159
  6266  00354E  6E03               	movwf	??_isalpha^0,c
  6267  003550  0EFF               	movlw	255
  6268  003552  6E04               	movwf	(??_isalpha+1)^0,c
  6269  003554  0E20               	movlw	32
  6270  003556  1001               	iorwf	isalpha@c^0,w,c
  6271  003558  6E05               	movwf	(??_isalpha+2)^0,c
  6272  00355A  0E00               	movlw	0
  6273  00355C  1002               	iorwf	(isalpha@c+1)^0,w,c
  6274  00355E  6E06               	movwf	(??_isalpha+3)^0,c
  6275  003560  5003               	movf	??_isalpha^0,w,c
  6276  003562  2605               	addwf	(??_isalpha+2)^0,f,c
  6277  003564  5004               	movf	(??_isalpha+1)^0,w,c
  6278  003566  2206               	addwfc	(??_isalpha+3)^0,f,c
  6279  003568  5006               	movf	(??_isalpha+3)^0,w,c
  6280  00356A  E10A               	bnz	u2980
  6281  00356C  0E1A               	movlw	26
  6282  00356E  5C05               	subwf	(??_isalpha+2)^0,w,c
  6283  003570  A0D8               	btfss	status,0,c
  6284  003572  EFBD  F01A         	goto	u2981
  6285  003576  EFC0  F01A         	goto	u2980
  6286  00357A                     u2981:
  6287  00357A  0E01               	movlw	1
  6288  00357C  EFC1  F01A         	goto	u2990
  6289  003580                     u2980:
  6290  003580  0E00               	movlw	0
  6291  003582                     u2990:
  6292  003582  6E01               	movwf	?_isalpha^0,c
  6293  003584  6A02               	clrf	(?_isalpha+1)^0,c
  6294  003586  0012               	return		;funcret
  6295  003588                     __end_of_isalpha:
  6296                           	callstack 0
  6297                           
  6298 ;; *************** function _stoa *****************
  6299 ;; Defined at:
  6300 ;;		line 568 in file "D:\mplab\pic\sources\c99\common\doprnt.c"
  6301 ;; Parameters:    Size  Location     Type
  6302 ;;  fp              2    9[COMRAM] PTR struct _IO_FILE
  6303 ;;		 -> sprintf@f(6), 
  6304 ;;  s               2   11[COMRAM] PTR unsigned char 
  6305 ;;		 -> ?_sprintf(2), date(60), validar@valor_usart_831(30), validar@valor_usart_829(30), 
  6306 ;;		 -> validar@valor_usart(30), 
  6307 ;; Auto vars:     Size  Location     Type
  6308 ;;  nuls            7   14[COMRAM] unsigned char [7]
  6309 ;;  l               2   29[COMRAM] int 
  6310 ;;  p               2   27[COMRAM] int 
  6311 ;;  cp              2   25[COMRAM] PTR unsigned char 
  6312 ;;		 -> stoa@nuls(7), ?_sprintf(2), date(60), validar@valor_usart_831(30), 
  6313 ;;		 -> validar@valor_usart_829(30), validar@valor_usart(30), 
  6314 ;;  w               2   23[COMRAM] int 
  6315 ;;  i               2   21[COMRAM] int 
  6316 ;; Return value:  Size  Location     Type
  6317 ;;                  2    9[COMRAM] int 
  6318 ;; Registers used:
  6319 ;;		wreg, fsr1l, fsr1h, fsr2l, fsr2h, status,2, status,0, cstack
  6320 ;; Tracked objects:
  6321 ;;		On entry : 0/0
  6322 ;;		On exit  : 0/0
  6323 ;;		Unchanged: 0/0
  6324 ;; Data sizes:     COMRAM   BANK0   BANK1   BANK2   BANK3   BANK4   BANK5   BANK6   BANK7
  6325 ;;      Params:         4       0       0       0       0       0       0       0       0
  6326 ;;      Locals:        17       0       0       0       0       0       0       0       0
  6327 ;;      Temps:          1       0       0       0       0       0       0       0       0
  6328 ;;      Totals:        22       0       0       0       0       0       0       0       0
  6329 ;;Total ram usage:       22 bytes
  6330 ;; Hardware stack levels used: 1
  6331 ;; Hardware stack levels required when called: 2
  6332 ;; This function calls:
  6333 ;;		_fputc
  6334 ;;		_strlen
  6335 ;; This function is called by:
  6336 ;;		_vfpfcnvrt
  6337 ;; This function uses a non-reentrant model
  6338 ;;
  6339                           
  6340                           	psect	text42
  6341  00235A                     __ptext42:
  6342                           	callstack 0
  6343  00235A                     _stoa:
  6344                           	callstack 23
  6345  00235A                     
  6346                           ;D:\mplab\pic\sources\c99\common\doprnt.c: 568: static int stoa(FILE *fp, char *s);D:\mp
      +                          lab\pic\sources\c99\common\doprnt.c: 569: {;D:\mplab\pic\sources\c99\common\doprnt.c: 57
      +                          0:     char *cp, nuls[] = "(null)";
  6347  00235A  EE21  F0E6         	lfsr	2,stoa@F1141
  6348  00235E  EE10  F00F         	lfsr	1,stoa@nuls
  6349  002362  0E06               	movlw	6
  6350  002364                     u3191:
  6351  002364  CFDB FFE3          	movff	plusw2,plusw1
  6352  002368  06E8               	decf	wreg,f,c
  6353  00236A  E2FC               	bc	u3191
  6354  00236C                     
  6355                           ;D:\mplab\pic\sources\c99\common\doprnt.c: 571:     int i, l, p, w;;D:\mplab\pic\sources
      +                          \c99\common\doprnt.c: 574:     cp = s;
  6356  00236C  C00C  F01A         	movff	stoa@s,stoa@cp
  6357  002370  C00D  F01B         	movff	stoa@s+1,stoa@cp+1
  6358  002374                     
  6359                           ;D:\mplab\pic\sources\c99\common\doprnt.c: 575:     if (!cp) {
  6360  002374  501A               	movf	stoa@cp^0,w,c
  6361  002376  101B               	iorwf	(stoa@cp+1)^0,w,c
  6362  002378  A4D8               	btfss	status,2,c
  6363  00237A  EFC1  F011         	goto	u3201
  6364  00237E  EFC3  F011         	goto	u3200
  6365  002382                     u3201:
  6366  002382  EFC7  F011         	goto	l3557
  6367  002386                     u3200:
  6368  002386                     
  6369                           ;D:\mplab\pic\sources\c99\common\doprnt.c: 576:         cp = nuls;
  6370  002386  0E0F               	movlw	low stoa@nuls
  6371  002388  6E1A               	movwf	stoa@cp^0,c
  6372  00238A  0E00               	movlw	high stoa@nuls
  6373  00238C  6E1B               	movwf	(stoa@cp+1)^0,c
  6374  00238E                     l3557:
  6375                           
  6376                           ;D:\mplab\pic\sources\c99\common\doprnt.c: 580:     l = (int)strlen(cp);
  6377  00238E  C01A  F001         	movff	stoa@cp,strlen@s
  6378  002392  C01B  F002         	movff	stoa@cp+1,strlen@s+1
  6379  002396  EC34  F01B         	call	_strlen	;wreg free
  6380  00239A  C001  F01E         	movff	?_strlen,stoa@l
  6381  00239E  C002  F01F         	movff	?_strlen+1,stoa@l+1
  6382  0023A2                     
  6383                           ;D:\mplab\pic\sources\c99\common\doprnt.c: 581:     p = prec;
  6384  0023A2  C1CC  F01C         	movff	_prec,stoa@p
  6385  0023A6  C1CD  F01D         	movff	_prec+1,stoa@p+1
  6386  0023AA                     
  6387                           ;D:\mplab\pic\sources\c99\common\doprnt.c: 582:     l = (!(p < 0) && (p < l)) ? p : l;
  6388  0023AA  BE1D               	btfsc	(stoa@p+1)^0,7,c
  6389  0023AC  EFDA  F011         	goto	u3211
  6390  0023B0  EFDC  F011         	goto	u3210
  6391  0023B4                     u3211:
  6392  0023B4  EFF1  F011         	goto	l1437
  6393  0023B8                     u3210:
  6394  0023B8  501E               	movf	stoa@l^0,w,c
  6395  0023BA  5C1C               	subwf	stoa@p^0,w,c
  6396  0023BC  501D               	movf	(stoa@p+1)^0,w,c
  6397  0023BE  0A80               	xorlw	128
  6398  0023C0  6E0E               	movwf	??_stoa^0,c
  6399  0023C2  501F               	movf	(stoa@l+1)^0,w,c
  6400  0023C4  0A80               	xorlw	128
  6401  0023C6  580E               	subwfb	??_stoa^0,w,c
  6402  0023C8  A0D8               	btfss	status,0,c
  6403  0023CA  EFE9  F011         	goto	u3221
  6404  0023CE  EFEB  F011         	goto	u3220
  6405  0023D2                     u3221:
  6406  0023D2  EFED  F011         	goto	l1435
  6407  0023D6                     u3220:
  6408  0023D6  EFF1  F011         	goto	l1437
  6409  0023DA                     l1435:
  6410  0023DA  C01C  F01E         	movff	stoa@p,stoa@l
  6411  0023DE  C01D  F01F         	movff	stoa@p+1,stoa@l+1
  6412  0023E2                     l1437:
  6413                           
  6414                           ;D:\mplab\pic\sources\c99\common\doprnt.c: 583:     p = l;
  6415  0023E2  C01E  F01C         	movff	stoa@l,stoa@p
  6416  0023E6  C01F  F01D         	movff	stoa@l+1,stoa@p+1
  6417                           
  6418                           ;D:\mplab\pic\sources\c99\common\doprnt.c: 584:     w = width;
  6419  0023EA  C1CA  F018         	movff	_width,stoa@w
  6420  0023EE  C1CB  F019         	movff	_width+1,stoa@w+1
  6421                           
  6422                           ;D:\mplab\pic\sources\c99\common\doprnt.c: 587:     if (!(flags & (1 << 0))) {
  6423  0023F2  0100               	movlb	0	; () banked
  6424  0023F4  B1F7               	btfsc	_flags& (0+255),0,b
  6425  0023F6  EFFF  F011         	goto	u3231
  6426  0023FA  EF01  F012         	goto	u3230
  6427  0023FE                     u3231:
  6428  0023FE  EF1E  F012         	goto	l3573
  6429  002402                     u3230:
  6430  002402  EF0F  F012         	goto	l3571
  6431  002406                     l3567:
  6432                           
  6433                           ;D:\mplab\pic\sources\c99\common\doprnt.c: 589:             fputc(' ', fp);
  6434  002406  0E00               	movlw	0
  6435  002408  6E02               	movwf	(fputc@c+1)^0,c
  6436  00240A  0E20               	movlw	32
  6437  00240C  6E01               	movwf	fputc@c^0,c
  6438  00240E  C00A  F003         	movff	stoa@fp,fputc@fp
  6439  002412  C00B  F004         	movff	stoa@fp+1,fputc@fp+1
  6440  002416  EC70  F015         	call	_fputc	;wreg free
  6441  00241A                     
  6442                           ;D:\mplab\pic\sources\c99\common\doprnt.c: 590:             ++l;
  6443  00241A  4A1E               	infsnz	stoa@l^0,f,c
  6444  00241C  2A1F               	incf	(stoa@l+1)^0,f,c
  6445  00241E                     l3571:
  6446                           
  6447                           ;D:\mplab\pic\sources\c99\common\doprnt.c: 588:         while (l < w) {
  6448  00241E  5018               	movf	stoa@w^0,w,c
  6449  002420  5C1E               	subwf	stoa@l^0,w,c
  6450  002422  501F               	movf	(stoa@l+1)^0,w,c
  6451  002424  0A80               	xorlw	128
  6452  002426  6E0E               	movwf	??_stoa^0,c
  6453  002428  5019               	movf	(stoa@w+1)^0,w,c
  6454  00242A  0A80               	xorlw	128
  6455  00242C  580E               	subwfb	??_stoa^0,w,c
  6456  00242E  A0D8               	btfss	status,0,c
  6457  002430  EF1C  F012         	goto	u3241
  6458  002434  EF1E  F012         	goto	u3240
  6459  002438                     u3241:
  6460  002438  EF03  F012         	goto	l3567
  6461  00243C                     u3240:
  6462  00243C                     l3573:
  6463                           
  6464                           ;D:\mplab\pic\sources\c99\common\doprnt.c: 595:     i = 0;
  6465  00243C  0E00               	movlw	0
  6466  00243E  6E17               	movwf	(stoa@i+1)^0,c
  6467  002440  0E00               	movlw	0
  6468  002442  6E16               	movwf	stoa@i^0,c
  6469                           
  6470                           ;D:\mplab\pic\sources\c99\common\doprnt.c: 596:     while (i < p) {
  6471  002444  EF37  F012         	goto	l3581
  6472  002448                     l3575:
  6473                           
  6474                           ;D:\mplab\pic\sources\c99\common\doprnt.c: 597:         fputc(*cp, fp);
  6475  002448  C01A  FFD9         	movff	stoa@cp,fsr2l
  6476  00244C  C01B  FFDA         	movff	stoa@cp+1,fsr2h
  6477  002450  50DF               	movf	indf2,w,c
  6478  002452  6E0E               	movwf	??_stoa^0,c
  6479  002454  500E               	movf	??_stoa^0,w,c
  6480  002456  6E01               	movwf	fputc@c^0,c
  6481  002458  6A02               	clrf	(fputc@c+1)^0,c
  6482  00245A  C00A  F003         	movff	stoa@fp,fputc@fp
  6483  00245E  C00B  F004         	movff	stoa@fp+1,fputc@fp+1
  6484  002462  EC70  F015         	call	_fputc	;wreg free
  6485  002466                     
  6486                           ;D:\mplab\pic\sources\c99\common\doprnt.c: 598:         ++cp;
  6487  002466  4A1A               	infsnz	stoa@cp^0,f,c
  6488  002468  2A1B               	incf	(stoa@cp+1)^0,f,c
  6489  00246A                     
  6490                           ;D:\mplab\pic\sources\c99\common\doprnt.c: 599:         ++i;
  6491  00246A  4A16               	infsnz	stoa@i^0,f,c
  6492  00246C  2A17               	incf	(stoa@i+1)^0,f,c
  6493  00246E                     l3581:
  6494                           
  6495                           ;D:\mplab\pic\sources\c99\common\doprnt.c: 596:     while (i < p) {
  6496  00246E  501C               	movf	stoa@p^0,w,c
  6497  002470  5C16               	subwf	stoa@i^0,w,c
  6498  002472  5017               	movf	(stoa@i+1)^0,w,c
  6499  002474  0A80               	xorlw	128
  6500  002476  6E0E               	movwf	??_stoa^0,c
  6501  002478  501D               	movf	(stoa@p+1)^0,w,c
  6502  00247A  0A80               	xorlw	128
  6503  00247C  580E               	subwfb	??_stoa^0,w,c
  6504  00247E  A0D8               	btfss	status,0,c
  6505  002480  EF44  F012         	goto	u3251
  6506  002484  EF46  F012         	goto	u3250
  6507  002488                     u3251:
  6508  002488  EF24  F012         	goto	l3575
  6509  00248C                     u3250:
  6510  00248C                     
  6511                           ;D:\mplab\pic\sources\c99\common\doprnt.c: 603:     if (flags & (1 << 0)) {
  6512  00248C  0100               	movlb	0	; () banked
  6513  00248E  A1F7               	btfss	_flags& (0+255),0,b
  6514  002490  EF4C  F012         	goto	u3261
  6515  002494  EF4E  F012         	goto	u3260
  6516  002498                     u3261:
  6517  002498  EF6B  F012         	goto	l1447
  6518  00249C                     u3260:
  6519  00249C  EF5C  F012         	goto	l3589
  6520  0024A0                     l3585:
  6521                           
  6522                           ;D:\mplab\pic\sources\c99\common\doprnt.c: 605:             fputc(' ', fp);
  6523  0024A0  0E00               	movlw	0
  6524  0024A2  6E02               	movwf	(fputc@c+1)^0,c
  6525  0024A4  0E20               	movlw	32
  6526  0024A6  6E01               	movwf	fputc@c^0,c
  6527  0024A8  C00A  F003         	movff	stoa@fp,fputc@fp
  6528  0024AC  C00B  F004         	movff	stoa@fp+1,fputc@fp+1
  6529  0024B0  EC70  F015         	call	_fputc	;wreg free
  6530  0024B4                     
  6531                           ;D:\mplab\pic\sources\c99\common\doprnt.c: 606:             ++l;
  6532  0024B4  4A1E               	infsnz	stoa@l^0,f,c
  6533  0024B6  2A1F               	incf	(stoa@l+1)^0,f,c
  6534  0024B8                     l3589:
  6535                           
  6536                           ;D:\mplab\pic\sources\c99\common\doprnt.c: 604:         while (l < w) {
  6537  0024B8  5018               	movf	stoa@w^0,w,c
  6538  0024BA  5C1E               	subwf	stoa@l^0,w,c
  6539  0024BC  501F               	movf	(stoa@l+1)^0,w,c
  6540  0024BE  0A80               	xorlw	128
  6541  0024C0  6E0E               	movwf	??_stoa^0,c
  6542  0024C2  5019               	movf	(stoa@w+1)^0,w,c
  6543  0024C4  0A80               	xorlw	128
  6544  0024C6  580E               	subwfb	??_stoa^0,w,c
  6545  0024C8  A0D8               	btfss	status,0,c
  6546  0024CA  EF69  F012         	goto	u3271
  6547  0024CE  EF6B  F012         	goto	u3270
  6548  0024D2                     u3271:
  6549  0024D2  EF50  F012         	goto	l3585
  6550  0024D6                     u3270:
  6551  0024D6                     l1447:
  6552                           
  6553                           ;D:\mplab\pic\sources\c99\common\doprnt.c: 610:     return l;
  6554  0024D6  C01E  F00A         	movff	stoa@l,?_stoa
  6555  0024DA  C01F  F00B         	movff	stoa@l+1,?_stoa+1
  6556  0024DE  0012               	return		;funcret
  6557  0024E0                     __end_of_stoa:
  6558                           	callstack 0
  6559                           
  6560 ;; *************** function _dtoa *****************
  6561 ;; Defined at:
  6562 ;;		line 287 in file "D:\mplab\pic\sources\c99\common\doprnt.c"
  6563 ;; Parameters:    Size  Location     Type
  6564 ;;  fp              2   27[COMRAM] PTR struct _IO_FILE
  6565 ;;		 -> sprintf@f(6), 
  6566 ;;  d               8   29[COMRAM] long long 
  6567 ;; Auto vars:     Size  Location     Type
  6568 ;;  n               8   53[COMRAM] long long 
  6569 ;;  i               2   61[COMRAM] int 
  6570 ;;  s               2   51[COMRAM] int 
  6571 ;;  w               2   49[COMRAM] int 
  6572 ;;  p               2   47[COMRAM] int 
  6573 ;; Return value:  Size  Location     Type
  6574 ;;                  2   27[COMRAM] int 
  6575 ;; Registers used:
  6576 ;;		wreg, fsr1l, fsr1h, fsr2l, fsr2h, status,2, status,0, cstack
  6577 ;; Tracked objects:
  6578 ;;		On entry : 0/0
  6579 ;;		On exit  : 0/0
  6580 ;;		Unchanged: 0/0
  6581 ;; Data sizes:     COMRAM   BANK0   BANK1   BANK2   BANK3   BANK4   BANK5   BANK6   BANK7
  6582 ;;      Params:        10       0       0       0       0       0       0       0       0
  6583 ;;      Locals:        18       0       0       0       0       0       0       0       0
  6584 ;;      Temps:          8       0       0       0       0       0       0       0       0
  6585 ;;      Totals:        36       0       0       0       0       0       0       0       0
  6586 ;;Total ram usage:       36 bytes
  6587 ;; Hardware stack levels used: 1
  6588 ;; Hardware stack levels required when called: 4
  6589 ;; This function calls:
  6590 ;;		___aodiv
  6591 ;;		___aomod
  6592 ;;		_abs
  6593 ;;		_pad
  6594 ;; This function is called by:
  6595 ;;		_vfpfcnvrt
  6596 ;; This function uses a non-reentrant model
  6597 ;;
  6598                           
  6599                           	psect	text43
  6600  001864                     __ptext43:
  6601                           	callstack 0
  6602  001864                     _dtoa:
  6603                           	callstack 21
  6604  001864                     
  6605                           ;D:\mplab\pic\sources\c99\common\doprnt.c: 287: static int dtoa(FILE *fp, long long d);D
      +                          :\mplab\pic\sources\c99\common\doprnt.c: 288: {;D:\mplab\pic\sources\c99\common\doprnt.c
      +                          : 289:     int i, p, s, w;;D:\mplab\pic\sources\c99\common\doprnt.c: 290:     long long 
      +                          n;;D:\mplab\pic\sources\c99\common\doprnt.c: 293:     n = d;
  6606  001864  C01E  F036         	movff	dtoa@d,dtoa@n
  6607  001868  C01F  F037         	movff	dtoa@d+1,dtoa@n+1
  6608  00186C  C020  F038         	movff	dtoa@d+2,dtoa@n+2
  6609  001870  C021  F039         	movff	dtoa@d+3,dtoa@n+3
  6610  001874  C022  F03A         	movff	dtoa@d+4,dtoa@n+4
  6611  001878  C023  F03B         	movff	dtoa@d+5,dtoa@n+5
  6612  00187C  C024  F03C         	movff	dtoa@d+6,dtoa@n+6
  6613  001880  C025  F03D         	movff	dtoa@d+7,dtoa@n+7
  6614  001884                     
  6615                           ;D:\mplab\pic\sources\c99\common\doprnt.c: 294:     s = n < 0 ? 1 : 0;
  6616  001884  BE3D               	btfsc	(dtoa@n+7)^0,7,c
  6617  001886  EF47  F00C         	goto	u3041
  6618  00188A  EF4A  F00C         	goto	u3040
  6619  00188E                     u3041:
  6620  00188E  0E01               	movlw	1
  6621  001890  EF4B  F00C         	goto	u3050
  6622  001894                     u3040:
  6623  001894  0E00               	movlw	0
  6624  001896                     u3050:
  6625  001896  6E34               	movwf	dtoa@s^0,c
  6626  001898  6A35               	clrf	(dtoa@s+1)^0,c
  6627                           
  6628                           ;D:\mplab\pic\sources\c99\common\doprnt.c: 295:     if (s) {
  6629  00189A  5034               	movf	dtoa@s^0,w,c
  6630  00189C  1035               	iorwf	(dtoa@s+1)^0,w,c
  6631  00189E  B4D8               	btfsc	status,2,c
  6632  0018A0  EF54  F00C         	goto	u3061
  6633  0018A4  EF56  F00C         	goto	u3060
  6634  0018A8                     u3061:
  6635  0018A8  EF66  F00C         	goto	l3493
  6636  0018AC                     u3060:
  6637  0018AC                     
  6638                           ;D:\mplab\pic\sources\c99\common\doprnt.c: 296:         n = -n;
  6639  0018AC  1E3D               	comf	(dtoa@n+7)^0,f,c
  6640  0018AE  1E3C               	comf	(dtoa@n+6)^0,f,c
  6641  0018B0  1E3B               	comf	(dtoa@n+5)^0,f,c
  6642  0018B2  1E3A               	comf	(dtoa@n+4)^0,f,c
  6643  0018B4  1E39               	comf	(dtoa@n+3)^0,f,c
  6644  0018B6  1E38               	comf	(dtoa@n+2)^0,f,c
  6645  0018B8  1E37               	comf	(dtoa@n+1)^0,f,c
  6646  0018BA  6C36               	negf	dtoa@n^0,c
  6647  0018BC  0E00               	movlw	0
  6648  0018BE  2237               	addwfc	(dtoa@n+1)^0,f,c
  6649  0018C0  2238               	addwfc	(dtoa@n+2)^0,f,c
  6650  0018C2  2239               	addwfc	(dtoa@n+3)^0,f,c
  6651  0018C4  223A               	addwfc	(dtoa@n+4)^0,f,c
  6652  0018C6  223B               	addwfc	(dtoa@n+5)^0,f,c
  6653  0018C8  223C               	addwfc	(dtoa@n+6)^0,f,c
  6654  0018CA  223D               	addwfc	(dtoa@n+7)^0,f,c
  6655  0018CC                     l3493:
  6656                           
  6657                           ;D:\mplab\pic\sources\c99\common\doprnt.c: 300:     if (!(prec < 0)) {
  6658  0018CC  0101               	movlb	1	; () banked
  6659  0018CE  BFCD               	btfsc	(_prec+1)& (0+255),7,b
  6660  0018D0  EF6C  F00C         	goto	u3071
  6661  0018D4  EF6E  F00C         	goto	u3070
  6662  0018D8                     u3071:
  6663  0018D8  EF70  F00C         	goto	l3497
  6664  0018DC                     u3070:
  6665  0018DC                     
  6666                           ; BSR set to: 1
  6667                           ;D:\mplab\pic\sources\c99\common\doprnt.c: 301:         flags &= ~(1 << 1);
  6668  0018DC  0100               	movlb	0	; () banked
  6669  0018DE  93F7               	bcf	_flags& (0+255),1,b
  6670  0018E0                     l3497:
  6671                           
  6672                           ;D:\mplab\pic\sources\c99\common\doprnt.c: 303:     p = (0 < prec) ? prec : 1;
  6673  0018E0  0101               	movlb	1	; () banked
  6674  0018E2  BFCD               	btfsc	(_prec+1)& (0+255),7,b
  6675  0018E4  EF7E  F00C         	goto	u3080
  6676  0018E8  51CD               	movf	(_prec+1)& (0+255),w,b
  6677  0018EA  E106               	bnz	u3081
  6678  0018EC  05CC               	decf	_prec& (0+255),w,b
  6679  0018EE  B0D8               	btfsc	status,0,c
  6680  0018F0  EF7C  F00C         	goto	u3081
  6681  0018F4  EF7E  F00C         	goto	u3080
  6682  0018F8                     u3081:
  6683  0018F8  EF84  F00C         	goto	l1408
  6684  0018FC                     u3080:
  6685  0018FC                     
  6686                           ; BSR set to: 1
  6687  0018FC  0E00               	movlw	0
  6688  0018FE  6E31               	movwf	(dtoa@p+1)^0,c
  6689  001900  0E01               	movlw	1
  6690  001902  6E30               	movwf	dtoa@p^0,c
  6691  001904  EF88  F00C         	goto	l1410
  6692  001908                     l1408:
  6693                           
  6694                           ; BSR set to: 1
  6695  001908  C1CC  F030         	movff	_prec,dtoa@p
  6696  00190C  C1CD  F031         	movff	_prec+1,dtoa@p+1
  6697  001910                     l1410:
  6698                           
  6699                           ; BSR set to: 1
  6700                           ;D:\mplab\pic\sources\c99\common\doprnt.c: 304:     w = width;
  6701  001910  C1CA  F032         	movff	_width,dtoa@w
  6702  001914  C1CB  F033         	movff	_width+1,dtoa@w+1
  6703  001918                     
  6704                           ; BSR set to: 1
  6705                           ;D:\mplab\pic\sources\c99\common\doprnt.c: 305:     if (s || (flags & (1 << 2))) {
  6706  001918  5034               	movf	dtoa@s^0,w,c
  6707  00191A  1035               	iorwf	(dtoa@s+1)^0,w,c
  6708  00191C  A4D8               	btfss	status,2,c
  6709  00191E  EF93  F00C         	goto	u3091
  6710  001922  EF95  F00C         	goto	u3090
  6711  001926                     u3091:
  6712  001926  EF9D  F00C         	goto	l3505
  6713  00192A                     u3090:
  6714  00192A                     
  6715                           ; BSR set to: 1
  6716  00192A  0100               	movlb	0	; () banked
  6717  00192C  A5F7               	btfss	_flags& (0+255),2,b
  6718  00192E  EF9B  F00C         	goto	u3101
  6719  001932  EF9D  F00C         	goto	u3100
  6720  001936                     u3101:
  6721  001936  EFA0  F00C         	goto	l3507
  6722  00193A                     u3100:
  6723  00193A                     l3505:
  6724                           
  6725                           ;D:\mplab\pic\sources\c99\common\doprnt.c: 306:         --w;
  6726  00193A  0632               	decf	dtoa@w^0,f,c
  6727  00193C  A0D8               	btfss	status,0,c
  6728  00193E  0633               	decf	(dtoa@w+1)^0,f,c
  6729  001940                     l3507:
  6730                           
  6731                           ;D:\mplab\pic\sources\c99\common\doprnt.c: 310:     i = sizeof(dbuf) - 1;
  6732  001940  0E00               	movlw	0
  6733  001942  6E3F               	movwf	(dtoa@i+1)^0,c
  6734  001944  0E1F               	movlw	31
  6735  001946  6E3E               	movwf	dtoa@i^0,c
  6736  001948                     
  6737                           ;D:\mplab\pic\sources\c99\common\doprnt.c: 311:     dbuf[i] = '\0';
  6738  001948  0E00               	movlw	0
  6739  00194A  0102               	movlb	2	; () banked
  6740  00194C  6FB3               	movwf	(_dbuf+31)& (0+255),b
  6741                           
  6742                           ;D:\mplab\pic\sources\c99\common\doprnt.c: 312:     while (!(i < 1) && (n || (0 < p) || 
      +                          ((0 < w) && (flags & (1 << 1))))) {
  6743  00194E  EF25  F00D         	goto	l3521
  6744  001952                     l3511:
  6745                           
  6746                           ;D:\mplab\pic\sources\c99\common\doprnt.c: 313:         --i;
  6747  001952  063E               	decf	dtoa@i^0,f,c
  6748  001954  A0D8               	btfss	status,0,c
  6749  001956  063F               	decf	(dtoa@i+1)^0,f,c
  6750  001958                     
  6751                           ;D:\mplab\pic\sources\c99\common\doprnt.c: 314:         dbuf[i] = (char)((int)'0' + abs(
      +                          n % 10));
  6752  001958  0E94               	movlw	low _dbuf
  6753  00195A  243E               	addwf	dtoa@i^0,w,c
  6754  00195C  6ED9               	movwf	fsr2l,c
  6755  00195E  0E02               	movlw	high _dbuf
  6756  001960  203F               	addwfc	(dtoa@i+1)^0,w,c
  6757  001962  6EDA               	movwf	fsr2h,c
  6758  001964  C036  F001         	movff	dtoa@n,___aomod@dividend
  6759  001968  C037  F002         	movff	dtoa@n+1,___aomod@dividend+1
  6760  00196C  C038  F003         	movff	dtoa@n+2,___aomod@dividend+2
  6761  001970  C039  F004         	movff	dtoa@n+3,___aomod@dividend+3
  6762  001974  C03A  F005         	movff	dtoa@n+4,___aomod@dividend+4
  6763  001978  C03B  F006         	movff	dtoa@n+5,___aomod@dividend+5
  6764  00197C  C03C  F007         	movff	dtoa@n+6,___aomod@dividend+6
  6765  001980  C03D  F008         	movff	dtoa@n+7,___aomod@dividend+7
  6766  001984  0E0A               	movlw	10
  6767  001986  6E09               	movwf	___aomod@divisor^0,c
  6768  001988  0E00               	movlw	0
  6769  00198A  6E0A               	movwf	(___aomod@divisor+1)^0,c
  6770  00198C  0E00               	movlw	0
  6771  00198E  6E0B               	movwf	(___aomod@divisor+2)^0,c
  6772  001990  0E00               	movlw	0
  6773  001992  6E0C               	movwf	(___aomod@divisor+3)^0,c
  6774  001994  0E00               	movlw	0
  6775  001996  6E0D               	movwf	(___aomod@divisor+4)^0,c
  6776  001998  0E00               	movlw	0
  6777  00199A  6E0E               	movwf	(___aomod@divisor+5)^0,c
  6778  00199C  0E00               	movlw	0
  6779  00199E  6E0F               	movwf	(___aomod@divisor+6)^0,c
  6780  0019A0  0E00               	movlw	0
  6781  0019A2  6E10               	movwf	(___aomod@divisor+7)^0,c
  6782  0019A4  EC70  F012         	call	___aomod	;wreg free
  6783  0019A8  C001  F026         	movff	?___aomod,??_dtoa
  6784  0019AC  C002  F027         	movff	?___aomod+1,??_dtoa+1
  6785  0019B0  C003  F028         	movff	?___aomod+2,??_dtoa+2
  6786  0019B4  C004  F029         	movff	?___aomod+3,??_dtoa+3
  6787  0019B8  C005  F02A         	movff	?___aomod+4,??_dtoa+4
  6788  0019BC  C006  F02B         	movff	?___aomod+5,??_dtoa+5
  6789  0019C0  C007  F02C         	movff	?___aomod+6,??_dtoa+6
  6790  0019C4  C008  F02D         	movff	?___aomod+7,??_dtoa+7
  6791  0019C8  C026  F013         	movff	??_dtoa,abs@a
  6792  0019CC  C028  F014         	movff	??_dtoa+2,abs@a+1
  6793  0019D0  EC28  F01A         	call	_abs	;wreg free
  6794  0019D4  5013               	movf	?_abs^0,w,c
  6795  0019D6  0F30               	addlw	48
  6796  0019D8  6EDF               	movwf	indf2,c
  6797  0019DA                     
  6798                           ;D:\mplab\pic\sources\c99\common\doprnt.c: 315:         --p;
  6799  0019DA  0630               	decf	dtoa@p^0,f,c
  6800  0019DC  A0D8               	btfss	status,0,c
  6801  0019DE  0631               	decf	(dtoa@p+1)^0,f,c
  6802  0019E0                     
  6803                           ;D:\mplab\pic\sources\c99\common\doprnt.c: 316:         --w;
  6804  0019E0  0632               	decf	dtoa@w^0,f,c
  6805  0019E2  A0D8               	btfss	status,0,c
  6806  0019E4  0633               	decf	(dtoa@w+1)^0,f,c
  6807  0019E6                     
  6808                           ;D:\mplab\pic\sources\c99\common\doprnt.c: 317:         n = n / 10;
  6809  0019E6  C036  F001         	movff	dtoa@n,___aodiv@dividend
  6810  0019EA  C037  F002         	movff	dtoa@n+1,___aodiv@dividend+1
  6811  0019EE  C038  F003         	movff	dtoa@n+2,___aodiv@dividend+2
  6812  0019F2  C039  F004         	movff	dtoa@n+3,___aodiv@dividend+3
  6813  0019F6  C03A  F005         	movff	dtoa@n+4,___aodiv@dividend+4
  6814  0019FA  C03B  F006         	movff	dtoa@n+5,___aodiv@dividend+5
  6815  0019FE  C03C  F007         	movff	dtoa@n+6,___aodiv@dividend+6
  6816  001A02  C03D  F008         	movff	dtoa@n+7,___aodiv@dividend+7
  6817  001A06  0E0A               	movlw	10
  6818  001A08  6E09               	movwf	___aodiv@divisor^0,c
  6819  001A0A  0E00               	movlw	0
  6820  001A0C  6E0A               	movwf	(___aodiv@divisor+1)^0,c
  6821  001A0E  0E00               	movlw	0
  6822  001A10  6E0B               	movwf	(___aodiv@divisor+2)^0,c
  6823  001A12  0E00               	movlw	0
  6824  001A14  6E0C               	movwf	(___aodiv@divisor+3)^0,c
  6825  001A16  0E00               	movlw	0
  6826  001A18  6E0D               	movwf	(___aodiv@divisor+4)^0,c
  6827  001A1A  0E00               	movlw	0
  6828  001A1C  6E0E               	movwf	(___aodiv@divisor+5)^0,c
  6829  001A1E  0E00               	movlw	0
  6830  001A20  6E0F               	movwf	(___aodiv@divisor+6)^0,c
  6831  001A22  0E00               	movlw	0
  6832  001A24  6E10               	movwf	(___aodiv@divisor+7)^0,c
  6833  001A26  ECE9  F010         	call	___aodiv	;wreg free
  6834  001A2A  C001  F036         	movff	?___aodiv,dtoa@n
  6835  001A2E  C002  F037         	movff	?___aodiv+1,dtoa@n+1
  6836  001A32  C003  F038         	movff	?___aodiv+2,dtoa@n+2
  6837  001A36  C004  F039         	movff	?___aodiv+3,dtoa@n+3
  6838  001A3A  C005  F03A         	movff	?___aodiv+4,dtoa@n+4
  6839  001A3E  C006  F03B         	movff	?___aodiv+5,dtoa@n+5
  6840  001A42  C007  F03C         	movff	?___aodiv+6,dtoa@n+6
  6841  001A46  C008  F03D         	movff	?___aodiv+7,dtoa@n+7
  6842  001A4A                     l3521:
  6843                           
  6844                           ;D:\mplab\pic\sources\c99\common\doprnt.c: 312:     while (!(i < 1) && (n || (0 < p) || 
      +                          ((0 < w) && (flags & (1 << 1))))) {
  6845  001A4A  BE3F               	btfsc	(dtoa@i+1)^0,7,c
  6846  001A4C  EF30  F00D         	goto	u3111
  6847  001A50  503F               	movf	(dtoa@i+1)^0,w,c
  6848  001A52  E108               	bnz	u3110
  6849  001A54  043E               	decf	dtoa@i^0,w,c
  6850  001A56  A0D8               	btfss	status,0,c
  6851  001A58  EF30  F00D         	goto	u3111
  6852  001A5C  EF32  F00D         	goto	u3110
  6853  001A60                     u3111:
  6854  001A60  EF63  F00D         	goto	l3531
  6855  001A64                     u3110:
  6856  001A64  5036               	movf	dtoa@n^0,w,c
  6857  001A66  1037               	iorwf	(dtoa@n+1)^0,w,c
  6858  001A68  1038               	iorwf	(dtoa@n+2)^0,w,c
  6859  001A6A  1039               	iorwf	(dtoa@n+3)^0,w,c
  6860  001A6C  103A               	iorwf	(dtoa@n+4)^0,w,c
  6861  001A6E  103B               	iorwf	(dtoa@n+5)^0,w,c
  6862  001A70  103C               	iorwf	(dtoa@n+6)^0,w,c
  6863  001A72  103D               	iorwf	(dtoa@n+7)^0,w,c
  6864  001A74  A4D8               	btfss	status,2,c
  6865  001A76  EF3F  F00D         	goto	u3121
  6866  001A7A  EF41  F00D         	goto	u3120
  6867  001A7E                     u3121:
  6868  001A7E  EFA9  F00C         	goto	l3511
  6869  001A82                     u3120:
  6870  001A82  BE31               	btfsc	(dtoa@p+1)^0,7,c
  6871  001A84  EF4E  F00D         	goto	u3130
  6872  001A88  5031               	movf	(dtoa@p+1)^0,w,c
  6873  001A8A  E106               	bnz	u3131
  6874  001A8C  0430               	decf	dtoa@p^0,w,c
  6875  001A8E  B0D8               	btfsc	status,0,c
  6876  001A90  EF4C  F00D         	goto	u3131
  6877  001A94  EF4E  F00D         	goto	u3130
  6878  001A98                     u3131:
  6879  001A98  EFA9  F00C         	goto	l3511
  6880  001A9C                     u3130:
  6881  001A9C  BE33               	btfsc	(dtoa@w+1)^0,7,c
  6882  001A9E  EF59  F00D         	goto	u3141
  6883  001AA2  5033               	movf	(dtoa@w+1)^0,w,c
  6884  001AA4  E108               	bnz	u3140
  6885  001AA6  0432               	decf	dtoa@w^0,w,c
  6886  001AA8  A0D8               	btfss	status,0,c
  6887  001AAA  EF59  F00D         	goto	u3141
  6888  001AAE  EF5B  F00D         	goto	u3140
  6889  001AB2                     u3141:
  6890  001AB2  EF63  F00D         	goto	l3531
  6891  001AB6                     u3140:
  6892  001AB6  0100               	movlb	0	; () banked
  6893  001AB8  B3F7               	btfsc	_flags& (0+255),1,b
  6894  001ABA  EF61  F00D         	goto	u3151
  6895  001ABE  EF63  F00D         	goto	u3150
  6896  001AC2                     u3151:
  6897  001AC2  EFA9  F00C         	goto	l3511
  6898  001AC6                     u3150:
  6899  001AC6                     l3531:
  6900                           
  6901                           ;D:\mplab\pic\sources\c99\common\doprnt.c: 321:     if (s || (flags & (1 << 2))) {
  6902  001AC6  5034               	movf	dtoa@s^0,w,c
  6903  001AC8  1035               	iorwf	(dtoa@s+1)^0,w,c
  6904  001ACA  A4D8               	btfss	status,2,c
  6905  001ACC  EF6A  F00D         	goto	u3161
  6906  001AD0  EF6C  F00D         	goto	u3160
  6907  001AD4                     u3161:
  6908  001AD4  EF74  F00D         	goto	l3535
  6909  001AD8                     u3160:
  6910  001AD8  0100               	movlb	0	; () banked
  6911  001ADA  A5F7               	btfss	_flags& (0+255),2,b
  6912  001ADC  EF72  F00D         	goto	u3171
  6913  001AE0  EF74  F00D         	goto	u3170
  6914  001AE4                     u3171:
  6915  001AE4  EF92  F00D         	goto	l3545
  6916  001AE8                     u3170:
  6917  001AE8                     l3535:
  6918                           
  6919                           ;D:\mplab\pic\sources\c99\common\doprnt.c: 322:         --i;
  6920  001AE8  063E               	decf	dtoa@i^0,f,c
  6921  001AEA  A0D8               	btfss	status,0,c
  6922  001AEC  063F               	decf	(dtoa@i+1)^0,f,c
  6923  001AEE                     
  6924                           ;D:\mplab\pic\sources\c99\common\doprnt.c: 323:         dbuf[i] = s ? '-' : '+';
  6925  001AEE  5034               	movf	dtoa@s^0,w,c
  6926  001AF0  1035               	iorwf	(dtoa@s+1)^0,w,c
  6927  001AF2  A4D8               	btfss	status,2,c
  6928  001AF4  EF7E  F00D         	goto	u3181
  6929  001AF8  EF80  F00D         	goto	u3180
  6930  001AFC                     u3181:
  6931  001AFC  EF86  F00D         	goto	l3541
  6932  001B00                     u3180:
  6933  001B00  0E00               	movlw	0
  6934  001B02  6E2F               	movwf	(_dtoa$1853+1)^0,c
  6935  001B04  0E2B               	movlw	43
  6936  001B06  6E2E               	movwf	_dtoa$1853^0,c
  6937  001B08  EF8A  F00D         	goto	l3543
  6938  001B0C                     l3541:
  6939  001B0C  0E00               	movlw	0
  6940  001B0E  6E2F               	movwf	(_dtoa$1853+1)^0,c
  6941  001B10  0E2D               	movlw	45
  6942  001B12  6E2E               	movwf	_dtoa$1853^0,c
  6943  001B14                     l3543:
  6944  001B14  0E94               	movlw	low _dbuf
  6945  001B16  243E               	addwf	dtoa@i^0,w,c
  6946  001B18  6ED9               	movwf	fsr2l,c
  6947  001B1A  0E02               	movlw	high _dbuf
  6948  001B1C  203F               	addwfc	(dtoa@i+1)^0,w,c
  6949  001B1E  6EDA               	movwf	fsr2h,c
  6950  001B20  C02E  FFDF         	movff	_dtoa$1853,indf2
  6951  001B24                     l3545:
  6952                           
  6953                           ;D:\mplab\pic\sources\c99\common\doprnt.c: 327:     return pad(fp, &dbuf[i], w);
  6954  001B24  C01C  F011         	movff	dtoa@fp,pad@fp
  6955  001B28  C01D  F012         	movff	dtoa@fp+1,pad@fp+1
  6956  001B2C  0E94               	movlw	low _dbuf
  6957  001B2E  243E               	addwf	dtoa@i^0,w,c
  6958  001B30  6E13               	movwf	pad@buf^0,c
  6959  001B32  0E02               	movlw	high _dbuf
  6960  001B34  203F               	addwfc	(dtoa@i+1)^0,w,c
  6961  001B36  6E14               	movwf	(pad@buf+1)^0,c
  6962  001B38  C032  F015         	movff	dtoa@w,pad@p
  6963  001B3C  C033  F016         	movff	dtoa@w+1,pad@p+1
  6964  001B40  ECD5  F015         	call	_pad	;wreg free
  6965  001B44  C011  F01C         	movff	?_pad,?_dtoa
  6966  001B48  C012  F01D         	movff	?_pad+1,?_dtoa+1
  6967  001B4C  0012               	return		;funcret
  6968  001B4E                     __end_of_dtoa:
  6969                           	callstack 0
  6970                           
  6971 ;; *************** function _pad *****************
  6972 ;; Defined at:
  6973 ;;		line 72 in file "D:\mplab\pic\sources\c99\common\doprnt.c"
  6974 ;; Parameters:    Size  Location     Type
  6975 ;;  fp              2   16[COMRAM] PTR struct _IO_FILE
  6976 ;;		 -> sprintf@f(6), 
  6977 ;;  buf             2   18[COMRAM] PTR unsigned char 
  6978 ;;		 -> dbuf(32), 
  6979 ;;  p               2   20[COMRAM] int 
  6980 ;; Auto vars:     Size  Location     Type
  6981 ;;  w               2   25[COMRAM] int 
  6982 ;;  i               2   23[COMRAM] int 
  6983 ;; Return value:  Size  Location     Type
  6984 ;;                  2   16[COMRAM] int 
  6985 ;; Registers used:
  6986 ;;		wreg, fsr1l, fsr1h, fsr2l, fsr2h, status,2, status,0, cstack
  6987 ;; Tracked objects:
  6988 ;;		On entry : 0/0
  6989 ;;		On exit  : 0/0
  6990 ;;		Unchanged: 0/0
  6991 ;; Data sizes:     COMRAM   BANK0   BANK1   BANK2   BANK3   BANK4   BANK5   BANK6   BANK7
  6992 ;;      Params:         6       0       0       0       0       0       0       0       0
  6993 ;;      Locals:         4       0       0       0       0       0       0       0       0
  6994 ;;      Temps:          1       0       0       0       0       0       0       0       0
  6995 ;;      Totals:        11       0       0       0       0       0       0       0       0
  6996 ;;Total ram usage:       11 bytes
  6997 ;; Hardware stack levels used: 1
  6998 ;; Hardware stack levels required when called: 3
  6999 ;; This function calls:
  7000 ;;		_fputc
  7001 ;;		_fputs
  7002 ;;		_strlen
  7003 ;; This function is called by:
  7004 ;;		_dtoa
  7005 ;;		_xtoa
  7006 ;; This function uses a non-reentrant model
  7007 ;;
  7008                           
  7009                           	psect	text44
  7010  002BAA                     __ptext44:
  7011                           	callstack 0
  7012  002BAA                     _pad:
  7013                           	callstack 21
  7014  002BAA                     
  7015                           ;D:\mplab\pic\sources\c99\common\doprnt.c: 72: static int pad(FILE *fp, char *buf, int p
      +                          );D:\mplab\pic\sources\c99\common\doprnt.c: 73: {;D:\mplab\pic\sources\c99\common\doprnt
      +                          .c: 74:     int i, w;;D:\mplab\pic\sources\c99\common\doprnt.c: 77:     if (flags & (1 <
      +                          < 0)) {
  7016  002BAA  0100               	movlb	0	; () banked
  7017  002BAC  A1F7               	btfss	_flags& (0+255),0,b
  7018  002BAE  EFDB  F015         	goto	u2911
  7019  002BB2  EFDD  F015         	goto	u2910
  7020  002BB6                     u2911:
  7021  002BB6  EFE7  F015         	goto	l3445
  7022  002BBA                     u2910:
  7023  002BBA                     
  7024                           ; BSR set to: 0
  7025                           ;D:\mplab\pic\sources\c99\common\doprnt.c: 78:         fputs((const char *)buf, fp);
  7026  002BBA  C013  F00A         	movff	pad@buf,fputs@s
  7027  002BBE  C014  F00B         	movff	pad@buf+1,fputs@s+1
  7028  002BC2  C011  F00C         	movff	pad@fp,fputs@fp
  7029  002BC6  C012  F00D         	movff	pad@fp+1,fputs@fp+1
  7030  002BCA  ECE5  F019         	call	_fputs	;wreg free
  7031  002BCE                     l3445:
  7032                           
  7033                           ;D:\mplab\pic\sources\c99\common\doprnt.c: 82:     w = (p < 0) ? 0 : p;
  7034  002BCE  BE16               	btfsc	(pad@p+1)^0,7,c
  7035  002BD0  EFEC  F015         	goto	u2921
  7036  002BD4  EFEE  F015         	goto	u2920
  7037  002BD8                     u2921:
  7038  002BD8  EFF4  F015         	goto	l3449
  7039  002BDC                     u2920:
  7040  002BDC  C015  F01A         	movff	pad@p,pad@w
  7041  002BE0  C016  F01B         	movff	pad@p+1,pad@w+1
  7042  002BE4  EFF8  F015         	goto	l1397
  7043  002BE8                     l3449:
  7044  002BE8  0E00               	movlw	0
  7045  002BEA  6E1B               	movwf	(pad@w+1)^0,c
  7046  002BEC  0E00               	movlw	0
  7047  002BEE  6E1A               	movwf	pad@w^0,c
  7048  002BF0                     l1397:
  7049                           
  7050                           ;D:\mplab\pic\sources\c99\common\doprnt.c: 83:     i = 0;
  7051  002BF0  0E00               	movlw	0
  7052  002BF2  6E19               	movwf	(pad@i+1)^0,c
  7053  002BF4  0E00               	movlw	0
  7054  002BF6  6E18               	movwf	pad@i^0,c
  7055                           
  7056                           ;D:\mplab\pic\sources\c99\common\doprnt.c: 84:     while (i < w) {
  7057  002BF8  EF0A  F016         	goto	l3455
  7058  002BFC                     l3451:
  7059                           
  7060                           ;D:\mplab\pic\sources\c99\common\doprnt.c: 85:         fputc(' ', fp);
  7061  002BFC  0E00               	movlw	0
  7062  002BFE  6E02               	movwf	(fputc@c+1)^0,c
  7063  002C00  0E20               	movlw	32
  7064  002C02  6E01               	movwf	fputc@c^0,c
  7065  002C04  C011  F003         	movff	pad@fp,fputc@fp
  7066  002C08  C012  F004         	movff	pad@fp+1,fputc@fp+1
  7067  002C0C  EC70  F015         	call	_fputc	;wreg free
  7068  002C10                     
  7069                           ;D:\mplab\pic\sources\c99\common\doprnt.c: 86:         ++i;
  7070  002C10  4A18               	infsnz	pad@i^0,f,c
  7071  002C12  2A19               	incf	(pad@i+1)^0,f,c
  7072  002C14                     l3455:
  7073                           
  7074                           ;D:\mplab\pic\sources\c99\common\doprnt.c: 84:     while (i < w) {
  7075  002C14  501A               	movf	pad@w^0,w,c
  7076  002C16  5C18               	subwf	pad@i^0,w,c
  7077  002C18  5019               	movf	(pad@i+1)^0,w,c
  7078  002C1A  0A80               	xorlw	128
  7079  002C1C  6E17               	movwf	??_pad^0,c
  7080  002C1E  501B               	movf	(pad@w+1)^0,w,c
  7081  002C20  0A80               	xorlw	128
  7082  002C22  5817               	subwfb	??_pad^0,w,c
  7083  002C24  A0D8               	btfss	status,0,c
  7084  002C26  EF17  F016         	goto	u2931
  7085  002C2A  EF19  F016         	goto	u2930
  7086  002C2E                     u2931:
  7087  002C2E  EFFE  F015         	goto	l3451
  7088  002C32                     u2930:
  7089  002C32                     
  7090                           ;D:\mplab\pic\sources\c99\common\doprnt.c: 90:     if (!(flags & (1 << 0))) {
  7091  002C32  0100               	movlb	0	; () banked
  7092  002C34  B1F7               	btfsc	_flags& (0+255),0,b
  7093  002C36  EF1F  F016         	goto	u2941
  7094  002C3A  EF21  F016         	goto	u2940
  7095  002C3E                     u2941:
  7096  002C3E  EF2B  F016         	goto	l3459
  7097  002C42                     u2940:
  7098  002C42                     
  7099                           ; BSR set to: 0
  7100                           ;D:\mplab\pic\sources\c99\common\doprnt.c: 91:         fputs((const char *)buf, fp);
  7101  002C42  C013  F00A         	movff	pad@buf,fputs@s
  7102  002C46  C014  F00B         	movff	pad@buf+1,fputs@s+1
  7103  002C4A  C011  F00C         	movff	pad@fp,fputs@fp
  7104  002C4E  C012  F00D         	movff	pad@fp+1,fputs@fp+1
  7105  002C52  ECE5  F019         	call	_fputs	;wreg free
  7106  002C56                     l3459:
  7107                           
  7108                           ;D:\mplab\pic\sources\c99\common\doprnt.c: 94:     return (int)(strlen(buf) + (size_t)w)
      +                          ;
  7109  002C56  C013  F001         	movff	pad@buf,strlen@s
  7110  002C5A  C014  F002         	movff	pad@buf+1,strlen@s+1
  7111  002C5E  EC34  F01B         	call	_strlen	;wreg free
  7112  002C62  501A               	movf	pad@w^0,w,c
  7113  002C64  2401               	addwf	?_strlen^0,w,c
  7114  002C66  6E11               	movwf	?_pad^0,c
  7115  002C68  501B               	movf	(pad@w+1)^0,w,c
  7116  002C6A  2002               	addwfc	(?_strlen+1)^0,w,c
  7117  002C6C  6E12               	movwf	(?_pad+1)^0,c
  7118  002C6E  0012               	return		;funcret
  7119  002C70                     __end_of_pad:
  7120                           	callstack 0
  7121                           
  7122 ;; *************** function _strlen *****************
  7123 ;; Defined at:
  7124 ;;		line 5 in file "D:\mplab\pic\sources\c99\common\strlen.c"
  7125 ;; Parameters:    Size  Location     Type
  7126 ;;  s               2    0[COMRAM] PTR const unsigned char 
  7127 ;;		 -> stoa@nuls(7), dbuf(32), ?_sprintf(2), date(60), 
  7128 ;;		 -> validar@valor_usart_831(30), validar@valor_usart_829(30), validar@valor_usart(30), 
  7129 ;; Auto vars:     Size  Location     Type
  7130 ;;  a               2    2[COMRAM] PTR const unsigned char 
  7131 ;;		 -> stoa@nuls(7), dbuf(32), ?_sprintf(2), date(60), 
  7132 ;;		 -> validar@valor_usart_831(30), validar@valor_usart_829(30), validar@valor_usart(30), 
  7133 ;; Return value:  Size  Location     Type
  7134 ;;                  2    0[COMRAM] unsigned int 
  7135 ;; Registers used:
  7136 ;;		wreg, fsr2l, fsr2h, status,2, status,0
  7137 ;; Tracked objects:
  7138 ;;		On entry : 0/0
  7139 ;;		On exit  : 0/0
  7140 ;;		Unchanged: 0/0
  7141 ;; Data sizes:     COMRAM   BANK0   BANK1   BANK2   BANK3   BANK4   BANK5   BANK6   BANK7
  7142 ;;      Params:         2       0       0       0       0       0       0       0       0
  7143 ;;      Locals:         2       0       0       0       0       0       0       0       0
  7144 ;;      Temps:          0       0       0       0       0       0       0       0       0
  7145 ;;      Totals:         4       0       0       0       0       0       0       0       0
  7146 ;;Total ram usage:        4 bytes
  7147 ;; Hardware stack levels used: 1
  7148 ;; This function calls:
  7149 ;;		Nothing
  7150 ;; This function is called by:
  7151 ;;		_pad
  7152 ;;		_stoa
  7153 ;;		_strcat
  7154 ;; This function uses a non-reentrant model
  7155 ;;
  7156                           
  7157                           	psect	text45
  7158  003668                     __ptext45:
  7159                           	callstack 0
  7160  003668                     _strlen:
  7161                           	callstack 23
  7162  003668  C001  F003         	movff	strlen@s,strlen@a
  7163  00366C  C002  F004         	movff	strlen@s+1,strlen@a+1
  7164  003670  EF3C  F01B         	goto	l3351
  7165  003674                     l3349:
  7166  003674  4A01               	infsnz	strlen@s^0,f,c
  7167  003676  2A02               	incf	(strlen@s+1)^0,f,c
  7168  003678                     l3351:
  7169  003678  C001  FFD9         	movff	strlen@s,fsr2l
  7170  00367C  C002  FFDA         	movff	strlen@s+1,fsr2h
  7171  003680  50DF               	movf	indf2,w,c
  7172  003682  A4D8               	btfss	status,2,c
  7173  003684  EF46  F01B         	goto	u2751
  7174  003688  EF48  F01B         	goto	u2750
  7175  00368C                     u2751:
  7176  00368C  EF3A  F01B         	goto	l3349
  7177  003690                     u2750:
  7178  003690  5003               	movf	strlen@a^0,w,c
  7179  003692  5C01               	subwf	strlen@s^0,w,c
  7180  003694  6E01               	movwf	?_strlen^0,c
  7181  003696  5004               	movf	(strlen@a+1)^0,w,c
  7182  003698  5802               	subwfb	(strlen@s+1)^0,w,c
  7183  00369A  6E02               	movwf	(?_strlen+1)^0,c
  7184  00369C  0012               	return		;funcret
  7185  00369E                     __end_of_strlen:
  7186                           	callstack 0
  7187                           
  7188 ;; *************** function _fputs *****************
  7189 ;; Defined at:
  7190 ;;		line 8 in file "D:\mplab\pic\sources\c99\common\nf_fputs.c"
  7191 ;; Parameters:    Size  Location     Type
  7192 ;;  s               2    9[COMRAM] PTR const unsigned char 
  7193 ;;		 -> dbuf(32), 
  7194 ;;  fp              2   11[COMRAM] PTR struct _IO_FILE
  7195 ;;		 -> sprintf@f(6), 
  7196 ;; Auto vars:     Size  Location     Type
  7197 ;;  i               2   14[COMRAM] int 
  7198 ;;  c               1   13[COMRAM] unsigned char 
  7199 ;; Return value:  Size  Location     Type
  7200 ;;                  2    9[COMRAM] int 
  7201 ;; Registers used:
  7202 ;;		wreg, fsr1l, fsr1h, fsr2l, fsr2h, status,2, status,0, cstack
  7203 ;; Tracked objects:
  7204 ;;		On entry : 0/0
  7205 ;;		On exit  : 0/0
  7206 ;;		Unchanged: 0/0
  7207 ;; Data sizes:     COMRAM   BANK0   BANK1   BANK2   BANK3   BANK4   BANK5   BANK6   BANK7
  7208 ;;      Params:         4       0       0       0       0       0       0       0       0
  7209 ;;      Locals:         3       0       0       0       0       0       0       0       0
  7210 ;;      Temps:          0       0       0       0       0       0       0       0       0
  7211 ;;      Totals:         7       0       0       0       0       0       0       0       0
  7212 ;;Total ram usage:        7 bytes
  7213 ;; Hardware stack levels used: 1
  7214 ;; Hardware stack levels required when called: 2
  7215 ;; This function calls:
  7216 ;;		_fputc
  7217 ;; This function is called by:
  7218 ;;		_pad
  7219 ;; This function uses a non-reentrant model
  7220 ;;
  7221                           
  7222                           	psect	text46
  7223  0033CA                     __ptext46:
  7224                           	callstack 0
  7225  0033CA                     _fputs:
  7226                           	callstack 21
  7227  0033CA  0E00               	movlw	0
  7228  0033CC  6E10               	movwf	(fputs@i+1)^0,c
  7229  0033CE  0E00               	movlw	0
  7230  0033D0  6E0F               	movwf	fputs@i^0,c
  7231  0033D2  EFF6  F019         	goto	l3345
  7232  0033D6                     l3341:
  7233  0033D6  C00E  F001         	movff	fputs@c,fputc@c
  7234  0033DA  6A02               	clrf	(fputc@c+1)^0,c
  7235  0033DC  C00C  F003         	movff	fputs@fp,fputc@fp
  7236  0033E0  C00D  F004         	movff	fputs@fp+1,fputc@fp+1
  7237  0033E4  EC70  F015         	call	_fputc	;wreg free
  7238  0033E8  4A0F               	infsnz	fputs@i^0,f,c
  7239  0033EA  2A10               	incf	(fputs@i+1)^0,f,c
  7240  0033EC                     l3345:
  7241  0033EC  500F               	movf	fputs@i^0,w,c
  7242  0033EE  240A               	addwf	fputs@s^0,w,c
  7243  0033F0  6ED9               	movwf	fsr2l,c
  7244  0033F2  5010               	movf	(fputs@i+1)^0,w,c
  7245  0033F4  200B               	addwfc	(fputs@s+1)^0,w,c
  7246  0033F6  6EDA               	movwf	fsr2h,c
  7247  0033F8  50DF               	movf	indf2,w,c
  7248  0033FA  6E0E               	movwf	fputs@c^0,c
  7249  0033FC  500E               	movf	fputs@c^0,w,c
  7250  0033FE  A4D8               	btfss	status,2,c
  7251  003400  EF04  F01A         	goto	u2741
  7252  003404  EF06  F01A         	goto	u2740
  7253  003408                     u2741:
  7254  003408  EFEB  F019         	goto	l3341
  7255  00340C                     u2740:
  7256  00340C  0012               	return		;funcret
  7257  00340E                     __end_of_fputs:
  7258                           	callstack 0
  7259                           
  7260 ;; *************** function _fputc *****************
  7261 ;; Defined at:
  7262 ;;		line 8 in file "D:\mplab\pic\sources\c99\common\nf_fputc.c"
  7263 ;; Parameters:    Size  Location     Type
  7264 ;;  c               2    0[COMRAM] int 
  7265 ;;  fp              2    2[COMRAM] PTR struct _IO_FILE
  7266 ;;		 -> sprintf@f(6), 
  7267 ;; Auto vars:     Size  Location     Type
  7268 ;;		None
  7269 ;; Return value:  Size  Location     Type
  7270 ;;                  2    0[COMRAM] int 
  7271 ;; Registers used:
  7272 ;;		wreg, fsr1l, fsr1h, fsr2l, fsr2h, status,2, status,0, cstack
  7273 ;; Tracked objects:
  7274 ;;		On entry : 0/0
  7275 ;;		On exit  : 0/0
  7276 ;;		Unchanged: 0/0
  7277 ;; Data sizes:     COMRAM   BANK0   BANK1   BANK2   BANK3   BANK4   BANK5   BANK6   BANK7
  7278 ;;      Params:         4       0       0       0       0       0       0       0       0
  7279 ;;      Locals:         0       0       0       0       0       0       0       0       0
  7280 ;;      Temps:          5       0       0       0       0       0       0       0       0
  7281 ;;      Totals:         9       0       0       0       0       0       0       0       0
  7282 ;;Total ram usage:        9 bytes
  7283 ;; Hardware stack levels used: 1
  7284 ;; Hardware stack levels required when called: 1
  7285 ;; This function calls:
  7286 ;;		_putch
  7287 ;; This function is called by:
  7288 ;;		_pad
  7289 ;;		_stoa
  7290 ;;		_vfpfcnvrt
  7291 ;;		_fputs
  7292 ;; This function uses a non-reentrant model
  7293 ;;
  7294                           
  7295                           	psect	text47
  7296  002AE0                     __ptext47:
  7297                           	callstack 0
  7298  002AE0                     _fputc:
  7299                           	callstack 21
  7300  002AE0  5003               	movf	fputc@fp^0,w,c
  7301  002AE2  1004               	iorwf	(fputc@fp+1)^0,w,c
  7302  002AE4  B4D8               	btfsc	status,2,c
  7303  002AE6  EF77  F015         	goto	u2701
  7304  002AEA  EF79  F015         	goto	u2700
  7305  002AEE                     u2701:
  7306  002AEE  EF82  F015         	goto	l3329
  7307  002AF2                     u2700:
  7308  002AF2  5003               	movf	fputc@fp^0,w,c
  7309  002AF4  1004               	iorwf	(fputc@fp+1)^0,w,c
  7310  002AF6  A4D8               	btfss	status,2,c
  7311  002AF8  EF80  F015         	goto	u2711
  7312  002AFC  EF82  F015         	goto	u2710
  7313  002B00                     u2711:
  7314  002B00  EF87  F015         	goto	l3331
  7315  002B04                     u2710:
  7316  002B04                     l3329:
  7317  002B04  5001               	movf	fputc@c^0,w,c
  7318  002B06  ECBE  F01C         	call	_putch
  7319  002B0A  EFD4  F015         	goto	l1530
  7320  002B0E                     l3331:
  7321  002B0E  EE20 F004          	lfsr	2,4
  7322  002B12  5003               	movf	fputc@fp^0,w,c
  7323  002B14  26D9               	addwf	fsr2l,f,c
  7324  002B16  5004               	movf	(fputc@fp+1)^0,w,c
  7325  002B18  22DA               	addwfc	fsr2h,f,c
  7326  002B1A  50DE               	movf	postinc2,w,c
  7327  002B1C  10DE               	iorwf	postinc2,w,c
  7328  002B1E  B4D8               	btfsc	status,2,c
  7329  002B20  EF94  F015         	goto	u2721
  7330  002B24  EF96  F015         	goto	u2720
  7331  002B28                     u2721:
  7332  002B28  EFB1  F015         	goto	l3335
  7333  002B2C                     u2720:
  7334  002B2C  EE20 F004          	lfsr	2,4
  7335  002B30  5003               	movf	fputc@fp^0,w,c
  7336  002B32  26D9               	addwf	fsr2l,f,c
  7337  002B34  5004               	movf	(fputc@fp+1)^0,w,c
  7338  002B36  22DA               	addwfc	fsr2h,f,c
  7339  002B38  EE10 F002          	lfsr	1,2
  7340  002B3C  5003               	movf	fputc@fp^0,w,c
  7341  002B3E  26E1               	addwf	fsr1l,f,c
  7342  002B40  5004               	movf	(fputc@fp+1)^0,w,c
  7343  002B42  22E2               	addwfc	fsr1h,f,c
  7344  002B44  50DE               	movf	postinc2,w,c
  7345  002B46  5CE6               	subwf	postinc1,w,c
  7346  002B48  50E6               	movf	postinc1,w,c
  7347  002B4A  0A80               	xorlw	128
  7348  002B4C  6E09               	movwf	(??_fputc+4)^0,c
  7349  002B4E  50DE               	movf	postinc2,w,c
  7350  002B50  0A80               	xorlw	128
  7351  002B52  5809               	subwfb	(??_fputc+4)^0,w,c
  7352  002B54  B0D8               	btfsc	status,0,c
  7353  002B56  EFAF  F015         	goto	u2731
  7354  002B5A  EFB1  F015         	goto	u2730
  7355  002B5E                     u2731:
  7356  002B5E  EFD4  F015         	goto	l1530
  7357  002B62                     u2730:
  7358  002B62                     l3335:
  7359  002B62  EE20 F002          	lfsr	2,2
  7360  002B66  5003               	movf	fputc@fp^0,w,c
  7361  002B68  26D9               	addwf	fsr2l,f,c
  7362  002B6A  5004               	movf	(fputc@fp+1)^0,w,c
  7363  002B6C  22DA               	addwfc	fsr2h,f,c
  7364  002B6E  CFDE F005          	movff	postinc2,??_fputc
  7365  002B72  CFDD F006          	movff	postdec2,??_fputc+1
  7366  002B76  C003  FFD9         	movff	fputc@fp,fsr2l
  7367  002B7A  C004  FFDA         	movff	fputc@fp+1,fsr2h
  7368  002B7E  CFDE F007          	movff	postinc2,??_fputc+2
  7369  002B82  CFDD F008          	movff	postdec2,??_fputc+3
  7370  002B86  5005               	movf	??_fputc^0,w,c
  7371  002B88  2407               	addwf	(??_fputc+2)^0,w,c
  7372  002B8A  6ED9               	movwf	fsr2l,c
  7373  002B8C  5006               	movf	(??_fputc+1)^0,w,c
  7374  002B8E  2008               	addwfc	(??_fputc+3)^0,w,c
  7375  002B90  6EDA               	movwf	fsr2h,c
  7376  002B92  C001  FFDF         	movff	fputc@c,indf2
  7377  002B96  EE20 F002          	lfsr	2,2
  7378  002B9A  5003               	movf	fputc@fp^0,w,c
  7379  002B9C  26D9               	addwf	fsr2l,f,c
  7380  002B9E  5004               	movf	(fputc@fp+1)^0,w,c
  7381  002BA0  22DA               	addwfc	fsr2h,f,c
  7382  002BA2  2ADE               	incf	postinc2,f,c
  7383  002BA4  0E00               	movlw	0
  7384  002BA6  22DD               	addwfc	postdec2,f,c
  7385  002BA8                     l1530:
  7386  002BA8  0012               	return		;funcret
  7387  002BAA                     __end_of_fputc:
  7388                           	callstack 0
  7389                           
  7390 ;; *************** function _putch *****************
  7391 ;; Defined at:
  7392 ;;		line 7 in file "D:\mplab\pic\sources\c99\common\putch.c"
  7393 ;; Parameters:    Size  Location     Type
  7394 ;;  c               1    wreg     unsigned char 
  7395 ;; Auto vars:     Size  Location     Type
  7396 ;;  c               1    0[COMRAM] unsigned char 
  7397 ;; Return value:  Size  Location     Type
  7398 ;;                  1    wreg      void 
  7399 ;; Registers used:
  7400 ;;		wreg
  7401 ;; Tracked objects:
  7402 ;;		On entry : 0/0
  7403 ;;		On exit  : 0/0
  7404 ;;		Unchanged: 0/0
  7405 ;; Data sizes:     COMRAM   BANK0   BANK1   BANK2   BANK3   BANK4   BANK5   BANK6   BANK7
  7406 ;;      Params:         0       0       0       0       0       0       0       0       0
  7407 ;;      Locals:         0       0       0       0       0       0       0       0       0
  7408 ;;      Temps:          0       0       0       0       0       0       0       0       0
  7409 ;;      Totals:         0       0       0       0       0       0       0       0       0
  7410 ;;Total ram usage:        0 bytes
  7411 ;; Hardware stack levels used: 1
  7412 ;; This function calls:
  7413 ;;		Nothing
  7414 ;; This function is called by:
  7415 ;;		_fputc
  7416 ;; This function uses a non-reentrant model
  7417 ;;
  7418                           
  7419                           	psect	text48
  7420  00397C                     __ptext48:
  7421                           	callstack 0
  7422  00397C                     _putch:
  7423                           	callstack 21
  7424  00397C  0012               	return		;funcret
  7425  00397E                     __end_of_putch:
  7426                           	callstack 0
  7427                           
  7428 ;; *************** function _abs *****************
  7429 ;; Defined at:
  7430 ;;		line 1 in file "D:\mplab\pic\sources\c99\common\abs.c"
  7431 ;; Parameters:    Size  Location     Type
  7432 ;;  a               2   18[COMRAM] int 
  7433 ;; Auto vars:     Size  Location     Type
  7434 ;;		None
  7435 ;; Return value:  Size  Location     Type
  7436 ;;                  2   18[COMRAM] int 
  7437 ;; Registers used:
  7438 ;;		wreg, status,2, status,0
  7439 ;; Tracked objects:
  7440 ;;		On entry : 0/0
  7441 ;;		On exit  : 0/0
  7442 ;;		Unchanged: 0/0
  7443 ;; Data sizes:     COMRAM   BANK0   BANK1   BANK2   BANK3   BANK4   BANK5   BANK6   BANK7
  7444 ;;      Params:         2       0       0       0       0       0       0       0       0
  7445 ;;      Locals:         0       0       0       0       0       0       0       0       0
  7446 ;;      Temps:          2       0       0       0       0       0       0       0       0
  7447 ;;      Totals:         4       0       0       0       0       0       0       0       0
  7448 ;;Total ram usage:        4 bytes
  7449 ;; Hardware stack levels used: 1
  7450 ;; This function calls:
  7451 ;;		Nothing
  7452 ;; This function is called by:
  7453 ;;		_dtoa
  7454 ;; This function uses a non-reentrant model
  7455 ;;
  7456                           
  7457                           	psect	text49
  7458  003450                     __ptext49:
  7459                           	callstack 0
  7460  003450                     _abs:
  7461                           	callstack 24
  7462  003450  BE14               	btfsc	(abs@a+1)^0,7,c
  7463  003452  EF35  F01A         	goto	u2950
  7464  003456  5014               	movf	(abs@a+1)^0,w,c
  7465  003458  E106               	bnz	u2951
  7466  00345A  0413               	decf	abs@a^0,w,c
  7467  00345C  B0D8               	btfsc	status,0,c
  7468  00345E  EF33  F01A         	goto	u2951
  7469  003462  EF35  F01A         	goto	u2950
  7470  003466                     u2951:
  7471  003466  EF43  F01A         	goto	l1503
  7472  00346A                     u2950:
  7473  00346A  C013  F015         	movff	abs@a,??_abs
  7474  00346E  C014  F016         	movff	abs@a+1,??_abs+1
  7475  003472  1E15               	comf	??_abs^0,f,c
  7476  003474  1E16               	comf	(??_abs+1)^0,f,c
  7477  003476  4A15               	infsnz	??_abs^0,f,c
  7478  003478  2A16               	incf	(??_abs+1)^0,f,c
  7479  00347A  C015  F013         	movff	??_abs,?_abs
  7480  00347E  C016  F014         	movff	??_abs+1,?_abs+1
  7481  003482  EF47  F01A         	goto	l1506
  7482  003486                     l1503:
  7483  003486  C013  F013         	movff	abs@a,?_abs
  7484  00348A  C014  F014         	movff	abs@a+1,?_abs+1
  7485  00348E                     l1506:
  7486  00348E  0012               	return		;funcret
  7487  003490                     __end_of_abs:
  7488                           	callstack 0
  7489                           
  7490 ;; *************** function ___aomod *****************
  7491 ;; Defined at:
  7492 ;;		line 9 in file "D:\mplab\pic\sources\c99\common\aomod.c"
  7493 ;; Parameters:    Size  Location     Type
  7494 ;;  dividend        8    0[COMRAM] long long 
  7495 ;;  divisor         8    8[COMRAM] long long 
  7496 ;; Auto vars:     Size  Location     Type
  7497 ;;  sign            1   17[COMRAM] unsigned char 
  7498 ;;  counter         1   16[COMRAM] unsigned char 
  7499 ;; Return value:  Size  Location     Type
  7500 ;;                  8    0[COMRAM] long long 
  7501 ;; Registers used:
  7502 ;;		wreg, status,2, status,0
  7503 ;; Tracked objects:
  7504 ;;		On entry : 0/0
  7505 ;;		On exit  : 0/0
  7506 ;;		Unchanged: 0/0
  7507 ;; Data sizes:     COMRAM   BANK0   BANK1   BANK2   BANK3   BANK4   BANK5   BANK6   BANK7
  7508 ;;      Params:        16       0       0       0       0       0       0       0       0
  7509 ;;      Locals:         2       0       0       0       0       0       0       0       0
  7510 ;;      Temps:          0       0       0       0       0       0       0       0       0
  7511 ;;      Totals:        18       0       0       0       0       0       0       0       0
  7512 ;;Total ram usage:       18 bytes
  7513 ;; Hardware stack levels used: 1
  7514 ;; This function calls:
  7515 ;;		Nothing
  7516 ;; This function is called by:
  7517 ;;		_dtoa
  7518 ;; This function uses a non-reentrant model
  7519 ;;
  7520                           
  7521                           	psect	text50
  7522  0024E0                     __ptext50:
  7523                           	callstack 0
  7524  0024E0                     ___aomod:
  7525                           	callstack 24
  7526  0024E0  0E00               	movlw	0
  7527  0024E2  6E12               	movwf	___aomod@sign^0,c
  7528  0024E4  BE08               	btfsc	(___aomod@dividend+7)^0,7,c
  7529  0024E6  EF79  F012         	goto	u2850
  7530  0024EA  EF77  F012         	goto	u2851
  7531  0024EE                     u2851:
  7532  0024EE  EF8B  F012         	goto	l3413
  7533  0024F2                     u2850:
  7534  0024F2  1E08               	comf	(___aomod@dividend+7)^0,f,c
  7535  0024F4  1E07               	comf	(___aomod@dividend+6)^0,f,c
  7536  0024F6  1E06               	comf	(___aomod@dividend+5)^0,f,c
  7537  0024F8  1E05               	comf	(___aomod@dividend+4)^0,f,c
  7538  0024FA  1E04               	comf	(___aomod@dividend+3)^0,f,c
  7539  0024FC  1E03               	comf	(___aomod@dividend+2)^0,f,c
  7540  0024FE  1E02               	comf	(___aomod@dividend+1)^0,f,c
  7541  002500  6C01               	negf	___aomod@dividend^0,c
  7542  002502  0E00               	movlw	0
  7543  002504  2202               	addwfc	(___aomod@dividend+1)^0,f,c
  7544  002506  2203               	addwfc	(___aomod@dividend+2)^0,f,c
  7545  002508  2204               	addwfc	(___aomod@dividend+3)^0,f,c
  7546  00250A  2205               	addwfc	(___aomod@dividend+4)^0,f,c
  7547  00250C  2206               	addwfc	(___aomod@dividend+5)^0,f,c
  7548  00250E  2207               	addwfc	(___aomod@dividend+6)^0,f,c
  7549  002510  2208               	addwfc	(___aomod@dividend+7)^0,f,c
  7550  002512  0E01               	movlw	1
  7551  002514  6E12               	movwf	___aomod@sign^0,c
  7552  002516                     l3413:
  7553  002516  BE10               	btfsc	(___aomod@divisor+7)^0,7,c
  7554  002518  EF92  F012         	goto	u2860
  7555  00251C  EF90  F012         	goto	u2861
  7556  002520                     u2861:
  7557  002520  EFA2  F012         	goto	l3417
  7558  002524                     u2860:
  7559  002524  1E10               	comf	(___aomod@divisor+7)^0,f,c
  7560  002526  1E0F               	comf	(___aomod@divisor+6)^0,f,c
  7561  002528  1E0E               	comf	(___aomod@divisor+5)^0,f,c
  7562  00252A  1E0D               	comf	(___aomod@divisor+4)^0,f,c
  7563  00252C  1E0C               	comf	(___aomod@divisor+3)^0,f,c
  7564  00252E  1E0B               	comf	(___aomod@divisor+2)^0,f,c
  7565  002530  1E0A               	comf	(___aomod@divisor+1)^0,f,c
  7566  002532  6C09               	negf	___aomod@divisor^0,c
  7567  002534  0E00               	movlw	0
  7568  002536  220A               	addwfc	(___aomod@divisor+1)^0,f,c
  7569  002538  220B               	addwfc	(___aomod@divisor+2)^0,f,c
  7570  00253A  220C               	addwfc	(___aomod@divisor+3)^0,f,c
  7571  00253C  220D               	addwfc	(___aomod@divisor+4)^0,f,c
  7572  00253E  220E               	addwfc	(___aomod@divisor+5)^0,f,c
  7573  002540  220F               	addwfc	(___aomod@divisor+6)^0,f,c
  7574  002542  2210               	addwfc	(___aomod@divisor+7)^0,f,c
  7575  002544                     l3417:
  7576  002544  5009               	movf	___aomod@divisor^0,w,c
  7577  002546  100A               	iorwf	(___aomod@divisor+1)^0,w,c
  7578  002548  100B               	iorwf	(___aomod@divisor+2)^0,w,c
  7579  00254A  100C               	iorwf	(___aomod@divisor+3)^0,w,c
  7580  00254C  100D               	iorwf	(___aomod@divisor+4)^0,w,c
  7581  00254E  100E               	iorwf	(___aomod@divisor+5)^0,w,c
  7582  002550  100F               	iorwf	(___aomod@divisor+6)^0,w,c
  7583  002552  1010               	iorwf	(___aomod@divisor+7)^0,w,c
  7584  002554  B4D8               	btfsc	status,2,c
  7585  002556  EFAF  F012         	goto	u2871
  7586  00255A  EFB1  F012         	goto	u2870
  7587  00255E                     u2871:
  7588  00255E  EFF9  F012         	goto	l3433
  7589  002562                     u2870:
  7590  002562  0E01               	movlw	1
  7591  002564  6E11               	movwf	___aomod@counter^0,c
  7592  002566  EFBF  F012         	goto	l3423
  7593  00256A                     l3421:
  7594  00256A  90D8               	bcf	status,0,c
  7595  00256C  3609               	rlcf	___aomod@divisor^0,f,c
  7596  00256E  360A               	rlcf	(___aomod@divisor+1)^0,f,c
  7597  002570  360B               	rlcf	(___aomod@divisor+2)^0,f,c
  7598  002572  360C               	rlcf	(___aomod@divisor+3)^0,f,c
  7599  002574  360D               	rlcf	(___aomod@divisor+4)^0,f,c
  7600  002576  360E               	rlcf	(___aomod@divisor+5)^0,f,c
  7601  002578  360F               	rlcf	(___aomod@divisor+6)^0,f,c
  7602  00257A  3610               	rlcf	(___aomod@divisor+7)^0,f,c
  7603  00257C  2A11               	incf	___aomod@counter^0,f,c
  7604  00257E                     l3423:
  7605  00257E  AE10               	btfss	(___aomod@divisor+7)^0,7,c
  7606  002580  EFC4  F012         	goto	u2881
  7607  002584  EFC6  F012         	goto	u2880
  7608  002588                     u2881:
  7609  002588  EFB5  F012         	goto	l3421
  7610  00258C                     u2880:
  7611  00258C                     l3425:
  7612  00258C  5009               	movf	___aomod@divisor^0,w,c
  7613  00258E  5C01               	subwf	___aomod@dividend^0,w,c
  7614  002590  500A               	movf	(___aomod@divisor+1)^0,w,c
  7615  002592  5802               	subwfb	(___aomod@dividend+1)^0,w,c
  7616  002594  500B               	movf	(___aomod@divisor+2)^0,w,c
  7617  002596  5803               	subwfb	(___aomod@dividend+2)^0,w,c
  7618  002598  500C               	movf	(___aomod@divisor+3)^0,w,c
  7619  00259A  5804               	subwfb	(___aomod@dividend+3)^0,w,c
  7620  00259C  500D               	movf	(___aomod@divisor+4)^0,w,c
  7621  00259E  5805               	subwfb	(___aomod@dividend+4)^0,w,c
  7622  0025A0  500E               	movf	(___aomod@divisor+5)^0,w,c
  7623  0025A2  5806               	subwfb	(___aomod@dividend+5)^0,w,c
  7624  0025A4  500F               	movf	(___aomod@divisor+6)^0,w,c
  7625  0025A6  5807               	subwfb	(___aomod@dividend+6)^0,w,c
  7626  0025A8  5010               	movf	(___aomod@divisor+7)^0,w,c
  7627  0025AA  5808               	subwfb	(___aomod@dividend+7)^0,w,c
  7628  0025AC  A0D8               	btfss	status,0,c
  7629  0025AE  EFDB  F012         	goto	u2891
  7630  0025B2  EFDD  F012         	goto	u2890
  7631  0025B6                     u2891:
  7632  0025B6  EFED  F012         	goto	l3429
  7633  0025BA                     u2890:
  7634  0025BA  5009               	movf	___aomod@divisor^0,w,c
  7635  0025BC  5E01               	subwf	___aomod@dividend^0,f,c
  7636  0025BE  500A               	movf	(___aomod@divisor+1)^0,w,c
  7637  0025C0  5A02               	subwfb	(___aomod@dividend+1)^0,f,c
  7638  0025C2  500B               	movf	(___aomod@divisor+2)^0,w,c
  7639  0025C4  5A03               	subwfb	(___aomod@dividend+2)^0,f,c
  7640  0025C6  500C               	movf	(___aomod@divisor+3)^0,w,c
  7641  0025C8  5A04               	subwfb	(___aomod@dividend+3)^0,f,c
  7642  0025CA  500D               	movf	(___aomod@divisor+4)^0,w,c
  7643  0025CC  5A05               	subwfb	(___aomod@dividend+4)^0,f,c
  7644  0025CE  500E               	movf	(___aomod@divisor+5)^0,w,c
  7645  0025D0  5A06               	subwfb	(___aomod@dividend+5)^0,f,c
  7646  0025D2  500F               	movf	(___aomod@divisor+6)^0,w,c
  7647  0025D4  5A07               	subwfb	(___aomod@dividend+6)^0,f,c
  7648  0025D6  5010               	movf	(___aomod@divisor+7)^0,w,c
  7649  0025D8  5A08               	subwfb	(___aomod@dividend+7)^0,f,c
  7650  0025DA                     l3429:
  7651  0025DA  90D8               	bcf	status,0,c
  7652  0025DC  3210               	rrcf	(___aomod@divisor+7)^0,f,c
  7653  0025DE  320F               	rrcf	(___aomod@divisor+6)^0,f,c
  7654  0025E0  320E               	rrcf	(___aomod@divisor+5)^0,f,c
  7655  0025E2  320D               	rrcf	(___aomod@divisor+4)^0,f,c
  7656  0025E4  320C               	rrcf	(___aomod@divisor+3)^0,f,c
  7657  0025E6  320B               	rrcf	(___aomod@divisor+2)^0,f,c
  7658  0025E8  320A               	rrcf	(___aomod@divisor+1)^0,f,c
  7659  0025EA  3209               	rrcf	___aomod@divisor^0,f,c
  7660  0025EC  2E11               	decfsz	___aomod@counter^0,f,c
  7661  0025EE  EFC6  F012         	goto	l3425
  7662  0025F2                     l3433:
  7663  0025F2  5012               	movf	___aomod@sign^0,w,c
  7664  0025F4  B4D8               	btfsc	status,2,c
  7665  0025F6  EFFF  F012         	goto	u2901
  7666  0025FA  EF01  F013         	goto	u2900
  7667  0025FE                     u2901:
  7668  0025FE  EF11  F013         	goto	l3437
  7669  002602                     u2900:
  7670  002602  1E08               	comf	(___aomod@dividend+7)^0,f,c
  7671  002604  1E07               	comf	(___aomod@dividend+6)^0,f,c
  7672  002606  1E06               	comf	(___aomod@dividend+5)^0,f,c
  7673  002608  1E05               	comf	(___aomod@dividend+4)^0,f,c
  7674  00260A  1E04               	comf	(___aomod@dividend+3)^0,f,c
  7675  00260C  1E03               	comf	(___aomod@dividend+2)^0,f,c
  7676  00260E  1E02               	comf	(___aomod@dividend+1)^0,f,c
  7677  002610  6C01               	negf	___aomod@dividend^0,c
  7678  002612  0E00               	movlw	0
  7679  002614  2202               	addwfc	(___aomod@dividend+1)^0,f,c
  7680  002616  2203               	addwfc	(___aomod@dividend+2)^0,f,c
  7681  002618  2204               	addwfc	(___aomod@dividend+3)^0,f,c
  7682  00261A  2205               	addwfc	(___aomod@dividend+4)^0,f,c
  7683  00261C  2206               	addwfc	(___aomod@dividend+5)^0,f,c
  7684  00261E  2207               	addwfc	(___aomod@dividend+6)^0,f,c
  7685  002620  2208               	addwfc	(___aomod@dividend+7)^0,f,c
  7686  002622                     l3437:
  7687  002622  C001  F001         	movff	___aomod@dividend,?___aomod
  7688  002626  C002  F002         	movff	___aomod@dividend+1,?___aomod+1
  7689  00262A  C003  F003         	movff	___aomod@dividend+2,?___aomod+2
  7690  00262E  C004  F004         	movff	___aomod@dividend+3,?___aomod+3
  7691  002632  C005  F005         	movff	___aomod@dividend+4,?___aomod+4
  7692  002636  C006  F006         	movff	___aomod@dividend+5,?___aomod+5
  7693  00263A  C007  F007         	movff	___aomod@dividend+6,?___aomod+6
  7694  00263E  C008  F008         	movff	___aomod@dividend+7,?___aomod+7
  7695  002642  0012               	return		;funcret
  7696  002644                     __end_of___aomod:
  7697                           	callstack 0
  7698                           
  7699 ;; *************** function ___aodiv *****************
  7700 ;; Defined at:
  7701 ;;		line 9 in file "D:\mplab\pic\sources\c99\common\aodiv.c"
  7702 ;; Parameters:    Size  Location     Type
  7703 ;;  dividend        8    0[COMRAM] long long 
  7704 ;;  divisor         8    8[COMRAM] long long 
  7705 ;; Auto vars:     Size  Location     Type
  7706 ;;  quotient        8   18[COMRAM] long long 
  7707 ;;  sign            1   17[COMRAM] unsigned char 
  7708 ;;  counter         1   16[COMRAM] unsigned char 
  7709 ;; Return value:  Size  Location     Type
  7710 ;;                  8    0[COMRAM] long long 
  7711 ;; Registers used:
  7712 ;;		wreg, fsr2l, fsr2h, status,2, status,0
  7713 ;; Tracked objects:
  7714 ;;		On entry : 0/0
  7715 ;;		On exit  : 0/0
  7716 ;;		Unchanged: 0/0
  7717 ;; Data sizes:     COMRAM   BANK0   BANK1   BANK2   BANK3   BANK4   BANK5   BANK6   BANK7
  7718 ;;      Params:        16       0       0       0       0       0       0       0       0
  7719 ;;      Locals:        10       0       0       0       0       0       0       0       0
  7720 ;;      Temps:          0       0       0       0       0       0       0       0       0
  7721 ;;      Totals:        26       0       0       0       0       0       0       0       0
  7722 ;;Total ram usage:       26 bytes
  7723 ;; Hardware stack levels used: 1
  7724 ;; This function calls:
  7725 ;;		Nothing
  7726 ;; This function is called by:
  7727 ;;		_dtoa
  7728 ;; This function uses a non-reentrant model
  7729 ;;
  7730                           
  7731                           	psect	text51
  7732  0021D2                     __ptext51:
  7733                           	callstack 0
  7734  0021D2                     ___aodiv:
  7735                           	callstack 24
  7736  0021D2  0E00               	movlw	0
  7737  0021D4  6E12               	movwf	___aodiv@sign^0,c
  7738  0021D6  BE10               	btfsc	(___aodiv@divisor+7)^0,7,c
  7739  0021D8  EFF2  F010         	goto	u2780
  7740  0021DC  EFF0  F010         	goto	u2781
  7741  0021E0                     u2781:
  7742  0021E0  EF04  F011         	goto	l3369
  7743  0021E4                     u2780:
  7744  0021E4  1E10               	comf	(___aodiv@divisor+7)^0,f,c
  7745  0021E6  1E0F               	comf	(___aodiv@divisor+6)^0,f,c
  7746  0021E8  1E0E               	comf	(___aodiv@divisor+5)^0,f,c
  7747  0021EA  1E0D               	comf	(___aodiv@divisor+4)^0,f,c
  7748  0021EC  1E0C               	comf	(___aodiv@divisor+3)^0,f,c
  7749  0021EE  1E0B               	comf	(___aodiv@divisor+2)^0,f,c
  7750  0021F0  1E0A               	comf	(___aodiv@divisor+1)^0,f,c
  7751  0021F2  6C09               	negf	___aodiv@divisor^0,c
  7752  0021F4  0E00               	movlw	0
  7753  0021F6  220A               	addwfc	(___aodiv@divisor+1)^0,f,c
  7754  0021F8  220B               	addwfc	(___aodiv@divisor+2)^0,f,c
  7755  0021FA  220C               	addwfc	(___aodiv@divisor+3)^0,f,c
  7756  0021FC  220D               	addwfc	(___aodiv@divisor+4)^0,f,c
  7757  0021FE  220E               	addwfc	(___aodiv@divisor+5)^0,f,c
  7758  002200  220F               	addwfc	(___aodiv@divisor+6)^0,f,c
  7759  002202  2210               	addwfc	(___aodiv@divisor+7)^0,f,c
  7760  002204  0E01               	movlw	1
  7761  002206  6E12               	movwf	___aodiv@sign^0,c
  7762  002208                     l3369:
  7763  002208  BE08               	btfsc	(___aodiv@dividend+7)^0,7,c
  7764  00220A  EF0B  F011         	goto	u2790
  7765  00220E  EF09  F011         	goto	u2791
  7766  002212                     u2791:
  7767  002212  EF1D  F011         	goto	l3375
  7768  002216                     u2790:
  7769  002216  1E08               	comf	(___aodiv@dividend+7)^0,f,c
  7770  002218  1E07               	comf	(___aodiv@dividend+6)^0,f,c
  7771  00221A  1E06               	comf	(___aodiv@dividend+5)^0,f,c
  7772  00221C  1E05               	comf	(___aodiv@dividend+4)^0,f,c
  7773  00221E  1E04               	comf	(___aodiv@dividend+3)^0,f,c
  7774  002220  1E03               	comf	(___aodiv@dividend+2)^0,f,c
  7775  002222  1E02               	comf	(___aodiv@dividend+1)^0,f,c
  7776  002224  6C01               	negf	___aodiv@dividend^0,c
  7777  002226  0E00               	movlw	0
  7778  002228  2202               	addwfc	(___aodiv@dividend+1)^0,f,c
  7779  00222A  2203               	addwfc	(___aodiv@dividend+2)^0,f,c
  7780  00222C  2204               	addwfc	(___aodiv@dividend+3)^0,f,c
  7781  00222E  2205               	addwfc	(___aodiv@dividend+4)^0,f,c
  7782  002230  2206               	addwfc	(___aodiv@dividend+5)^0,f,c
  7783  002232  2207               	addwfc	(___aodiv@dividend+6)^0,f,c
  7784  002234  2208               	addwfc	(___aodiv@dividend+7)^0,f,c
  7785  002236  0E01               	movlw	1
  7786  002238  1A12               	xorwf	___aodiv@sign^0,f,c
  7787  00223A                     l3375:
  7788  00223A  EE20  F013         	lfsr	2,___aodiv@quotient
  7789  00223E  0E07               	movlw	7
  7790  002240                     u2801:
  7791  002240  6ADE               	clrf	postinc2,c
  7792  002242  06E8               	decf	wreg,f,c
  7793  002244  E2FD               	bc	u2801
  7794  002246  5009               	movf	___aodiv@divisor^0,w,c
  7795  002248  100A               	iorwf	(___aodiv@divisor+1)^0,w,c
  7796  00224A  100B               	iorwf	(___aodiv@divisor+2)^0,w,c
  7797  00224C  100C               	iorwf	(___aodiv@divisor+3)^0,w,c
  7798  00224E  100D               	iorwf	(___aodiv@divisor+4)^0,w,c
  7799  002250  100E               	iorwf	(___aodiv@divisor+5)^0,w,c
  7800  002252  100F               	iorwf	(___aodiv@divisor+6)^0,w,c
  7801  002254  1010               	iorwf	(___aodiv@divisor+7)^0,w,c
  7802  002256  B4D8               	btfsc	status,2,c
  7803  002258  EF30  F011         	goto	u2811
  7804  00225C  EF32  F011         	goto	u2810
  7805  002260                     u2811:
  7806  002260  EF84  F011         	goto	l3397
  7807  002264                     u2810:
  7808  002264  0E01               	movlw	1
  7809  002266  6E11               	movwf	___aodiv@counter^0,c
  7810  002268  EF40  F011         	goto	l3383
  7811  00226C                     l3381:
  7812  00226C  90D8               	bcf	status,0,c
  7813  00226E  3609               	rlcf	___aodiv@divisor^0,f,c
  7814  002270  360A               	rlcf	(___aodiv@divisor+1)^0,f,c
  7815  002272  360B               	rlcf	(___aodiv@divisor+2)^0,f,c
  7816  002274  360C               	rlcf	(___aodiv@divisor+3)^0,f,c
  7817  002276  360D               	rlcf	(___aodiv@divisor+4)^0,f,c
  7818  002278  360E               	rlcf	(___aodiv@divisor+5)^0,f,c
  7819  00227A  360F               	rlcf	(___aodiv@divisor+6)^0,f,c
  7820  00227C  3610               	rlcf	(___aodiv@divisor+7)^0,f,c
  7821  00227E  2A11               	incf	___aodiv@counter^0,f,c
  7822  002280                     l3383:
  7823  002280  AE10               	btfss	(___aodiv@divisor+7)^0,7,c
  7824  002282  EF45  F011         	goto	u2821
  7825  002286  EF47  F011         	goto	u2820
  7826  00228A                     u2821:
  7827  00228A  EF36  F011         	goto	l3381
  7828  00228E                     u2820:
  7829  00228E                     l3385:
  7830  00228E  90D8               	bcf	status,0,c
  7831  002290  3613               	rlcf	___aodiv@quotient^0,f,c
  7832  002292  3614               	rlcf	(___aodiv@quotient+1)^0,f,c
  7833  002294  3615               	rlcf	(___aodiv@quotient+2)^0,f,c
  7834  002296  3616               	rlcf	(___aodiv@quotient+3)^0,f,c
  7835  002298  3617               	rlcf	(___aodiv@quotient+4)^0,f,c
  7836  00229A  3618               	rlcf	(___aodiv@quotient+5)^0,f,c
  7837  00229C  3619               	rlcf	(___aodiv@quotient+6)^0,f,c
  7838  00229E  361A               	rlcf	(___aodiv@quotient+7)^0,f,c
  7839  0022A0  5009               	movf	___aodiv@divisor^0,w,c
  7840  0022A2  5C01               	subwf	___aodiv@dividend^0,w,c
  7841  0022A4  500A               	movf	(___aodiv@divisor+1)^0,w,c
  7842  0022A6  5802               	subwfb	(___aodiv@dividend+1)^0,w,c
  7843  0022A8  500B               	movf	(___aodiv@divisor+2)^0,w,c
  7844  0022AA  5803               	subwfb	(___aodiv@dividend+2)^0,w,c
  7845  0022AC  500C               	movf	(___aodiv@divisor+3)^0,w,c
  7846  0022AE  5804               	subwfb	(___aodiv@dividend+3)^0,w,c
  7847  0022B0  500D               	movf	(___aodiv@divisor+4)^0,w,c
  7848  0022B2  5805               	subwfb	(___aodiv@dividend+4)^0,w,c
  7849  0022B4  500E               	movf	(___aodiv@divisor+5)^0,w,c
  7850  0022B6  5806               	subwfb	(___aodiv@dividend+5)^0,w,c
  7851  0022B8  500F               	movf	(___aodiv@divisor+6)^0,w,c
  7852  0022BA  5807               	subwfb	(___aodiv@dividend+6)^0,w,c
  7853  0022BC  5010               	movf	(___aodiv@divisor+7)^0,w,c
  7854  0022BE  5808               	subwfb	(___aodiv@dividend+7)^0,w,c
  7855  0022C0  A0D8               	btfss	status,0,c
  7856  0022C2  EF65  F011         	goto	u2831
  7857  0022C6  EF67  F011         	goto	u2830
  7858  0022CA                     u2831:
  7859  0022CA  EF78  F011         	goto	l3393
  7860  0022CE                     u2830:
  7861  0022CE  5009               	movf	___aodiv@divisor^0,w,c
  7862  0022D0  5E01               	subwf	___aodiv@dividend^0,f,c
  7863  0022D2  500A               	movf	(___aodiv@divisor+1)^0,w,c
  7864  0022D4  5A02               	subwfb	(___aodiv@dividend+1)^0,f,c
  7865  0022D6  500B               	movf	(___aodiv@divisor+2)^0,w,c
  7866  0022D8  5A03               	subwfb	(___aodiv@dividend+2)^0,f,c
  7867  0022DA  500C               	movf	(___aodiv@divisor+3)^0,w,c
  7868  0022DC  5A04               	subwfb	(___aodiv@dividend+3)^0,f,c
  7869  0022DE  500D               	movf	(___aodiv@divisor+4)^0,w,c
  7870  0022E0  5A05               	subwfb	(___aodiv@dividend+4)^0,f,c
  7871  0022E2  500E               	movf	(___aodiv@divisor+5)^0,w,c
  7872  0022E4  5A06               	subwfb	(___aodiv@dividend+5)^0,f,c
  7873  0022E6  500F               	movf	(___aodiv@divisor+6)^0,w,c
  7874  0022E8  5A07               	subwfb	(___aodiv@dividend+6)^0,f,c
  7875  0022EA  5010               	movf	(___aodiv@divisor+7)^0,w,c
  7876  0022EC  5A08               	subwfb	(___aodiv@dividend+7)^0,f,c
  7877  0022EE  8013               	bsf	___aodiv@quotient^0,0,c
  7878  0022F0                     l3393:
  7879  0022F0  90D8               	bcf	status,0,c
  7880  0022F2  3210               	rrcf	(___aodiv@divisor+7)^0,f,c
  7881  0022F4  320F               	rrcf	(___aodiv@divisor+6)^0,f,c
  7882  0022F6  320E               	rrcf	(___aodiv@divisor+5)^0,f,c
  7883  0022F8  320D               	rrcf	(___aodiv@divisor+4)^0,f,c
  7884  0022FA  320C               	rrcf	(___aodiv@divisor+3)^0,f,c
  7885  0022FC  320B               	rrcf	(___aodiv@divisor+2)^0,f,c
  7886  0022FE  320A               	rrcf	(___aodiv@divisor+1)^0,f,c
  7887  002300  3209               	rrcf	___aodiv@divisor^0,f,c
  7888  002302  2E11               	decfsz	___aodiv@counter^0,f,c
  7889  002304  EF47  F011         	goto	l3385
  7890  002308                     l3397:
  7891  002308  5012               	movf	___aodiv@sign^0,w,c
  7892  00230A  B4D8               	btfsc	status,2,c
  7893  00230C  EF8A  F011         	goto	u2841
  7894  002310  EF8C  F011         	goto	u2840
  7895  002314                     u2841:
  7896  002314  EF9C  F011         	goto	l3401
  7897  002318                     u2840:
  7898  002318  1E1A               	comf	(___aodiv@quotient+7)^0,f,c
  7899  00231A  1E19               	comf	(___aodiv@quotient+6)^0,f,c
  7900  00231C  1E18               	comf	(___aodiv@quotient+5)^0,f,c
  7901  00231E  1E17               	comf	(___aodiv@quotient+4)^0,f,c
  7902  002320  1E16               	comf	(___aodiv@quotient+3)^0,f,c
  7903  002322  1E15               	comf	(___aodiv@quotient+2)^0,f,c
  7904  002324  1E14               	comf	(___aodiv@quotient+1)^0,f,c
  7905  002326  6C13               	negf	___aodiv@quotient^0,c
  7906  002328  0E00               	movlw	0
  7907  00232A  2214               	addwfc	(___aodiv@quotient+1)^0,f,c
  7908  00232C  2215               	addwfc	(___aodiv@quotient+2)^0,f,c
  7909  00232E  2216               	addwfc	(___aodiv@quotient+3)^0,f,c
  7910  002330  2217               	addwfc	(___aodiv@quotient+4)^0,f,c
  7911  002332  2218               	addwfc	(___aodiv@quotient+5)^0,f,c
  7912  002334  2219               	addwfc	(___aodiv@quotient+6)^0,f,c
  7913  002336  221A               	addwfc	(___aodiv@quotient+7)^0,f,c
  7914  002338                     l3401:
  7915  002338  C013  F001         	movff	___aodiv@quotient,?___aodiv
  7916  00233C  C014  F002         	movff	___aodiv@quotient+1,?___aodiv+1
  7917  002340  C015  F003         	movff	___aodiv@quotient+2,?___aodiv+2
  7918  002344  C016  F004         	movff	___aodiv@quotient+3,?___aodiv+3
  7919  002348  C017  F005         	movff	___aodiv@quotient+4,?___aodiv+4
  7920  00234C  C018  F006         	movff	___aodiv@quotient+5,?___aodiv+5
  7921  002350  C019  F007         	movff	___aodiv@quotient+6,?___aodiv+6
  7922  002354  C01A  F008         	movff	___aodiv@quotient+7,?___aodiv+7
  7923  002358  0012               	return		;funcret
  7924  00235A                     __end_of___aodiv:
  7925                           	callstack 0
  7926                           
  7927 ;; *************** function _LCD_String_xy *****************
  7928 ;; Defined at:
  7929 ;;		line 98 in file "LCD.c"
  7930 ;; Parameters:    Size  Location     Type
  7931 ;;  row             1    wreg     unsigned char 
  7932 ;;  pos             1    4[COMRAM] unsigned char 
  7933 ;;  msg             2    5[COMRAM] PTR const unsigned char 
  7934 ;;		 -> Reloj_Calendario@Time(15), Reloj_Calendario@Date(17), imprimir@aux_luz(16), imprimir@aux_temp(16), 
  7935 ;;		 -> imprimir@aux_dist(16), STR_1(7), 
  7936 ;; Auto vars:     Size  Location     Type
  7937 ;;  row             1    7[COMRAM] unsigned char 
  7938 ;;  location        1    8[COMRAM] unsigned char 
  7939 ;; Return value:  Size  Location     Type
  7940 ;;                  1    wreg      void 
  7941 ;; Registers used:
  7942 ;;		wreg, fsr0l, fsr0h, status,2, status,0, tblptrl, tblptrh, tblptru, cstack
  7943 ;; Tracked objects:
  7944 ;;		On entry : 0/0
  7945 ;;		On exit  : 0/0
  7946 ;;		Unchanged: 0/0
  7947 ;; Data sizes:     COMRAM   BANK0   BANK1   BANK2   BANK3   BANK4   BANK5   BANK6   BANK7
  7948 ;;      Params:         3       0       0       0       0       0       0       0       0
  7949 ;;      Locals:         2       0       0       0       0       0       0       0       0
  7950 ;;      Temps:          0       0       0       0       0       0       0       0       0
  7951 ;;      Totals:         5       0       0       0       0       0       0       0       0
  7952 ;;Total ram usage:        5 bytes
  7953 ;; Hardware stack levels used: 1
  7954 ;; Hardware stack levels required when called: 2
  7955 ;; This function calls:
  7956 ;;		_LCD_Command
  7957 ;;		_LCD_String
  7958 ;; This function is called by:
  7959 ;;		_imprimir
  7960 ;;		_Reloj_Calendario
  7961 ;; This function uses a non-reentrant model
  7962 ;;
  7963                           
  7964                           	psect	text52
  7965  003490                     __ptext52:
  7966                           	callstack 0
  7967  003490                     _LCD_String_xy:
  7968                           	callstack 26
  7969                           
  7970                           ;incstack = 0
  7971                           ;LCD_String_xy@row stored from wreg
  7972  003490  6E08               	movwf	LCD_String_xy@row^0,c
  7973  003492                     
  7974                           ;LCD.c: 100:     if (row <= 1) {
  7975  003492  0E02               	movlw	2
  7976  003494  6008               	cpfslt	LCD_String_xy@row^0,c
  7977  003496  EF4F  F01A         	goto	u3721
  7978  00349A  EF51  F01A         	goto	u3720
  7979  00349E                     u3721:
  7980  00349E  EF5A  F01A         	goto	l3961
  7981  0034A2                     u3720:
  7982  0034A2                     
  7983                           ;LCD.c: 101:         location = (0x80) | ((pos) & 0x0f);
  7984  0034A2  5005               	movf	LCD_String_xy@pos^0,w,c
  7985  0034A4  0B0F               	andlw	15
  7986  0034A6  0980               	iorlw	128
  7987  0034A8  6E09               	movwf	LCD_String_xy@location^0,c
  7988  0034AA                     
  7989                           ;LCD.c: 102:         LCD_Command(location);
  7990  0034AA  5009               	movf	LCD_String_xy@location^0,w,c
  7991  0034AC  EC27  F019         	call	_LCD_Command
  7992                           
  7993                           ;LCD.c: 103:     } else {
  7994  0034B0  EF61  F01A         	goto	l3965
  7995  0034B4                     l3961:
  7996                           
  7997                           ;LCD.c: 104:         location = (0xc0) | ((pos) & 0x0f);
  7998  0034B4  5005               	movf	LCD_String_xy@pos^0,w,c
  7999  0034B6  0B0F               	andlw	15
  8000  0034B8  09C0               	iorlw	192
  8001  0034BA  6E09               	movwf	LCD_String_xy@location^0,c
  8002  0034BC                     
  8003                           ;LCD.c: 105:         LCD_Command(location);
  8004  0034BC  5009               	movf	LCD_String_xy@location^0,w,c
  8005  0034BE  EC27  F019         	call	_LCD_Command
  8006  0034C2                     l3965:
  8007                           
  8008                           ;LCD.c: 108:     LCD_String(msg);
  8009  0034C2  C006  F003         	movff	LCD_String_xy@msg,LCD_String@msg
  8010  0034C6  C007  F004         	movff	LCD_String_xy@msg+1,LCD_String@msg+1
  8011  0034CA  ECA2  F018         	call	_LCD_String	;wreg free
  8012  0034CE  0012               	return		;funcret
  8013  0034D0                     __end_of_LCD_String_xy:
  8014                           	callstack 0
  8015                           
  8016 ;; *************** function _LCD_String *****************
  8017 ;; Defined at:
  8018 ;;		line 83 in file "LCD.c"
  8019 ;; Parameters:    Size  Location     Type
  8020 ;;  msg             2    2[COMRAM] PTR const unsigned char 
  8021 ;;		 -> Reloj_Calendario@Time(15), Reloj_Calendario@Date(17), imprimir@aux_luz(16), imprimir@aux_temp(16), 
  8022 ;;		 -> imprimir@aux_dist(16), STR_1(7), 
  8023 ;; Auto vars:     Size  Location     Type
  8024 ;;		None
  8025 ;; Return value:  Size  Location     Type
  8026 ;;                  1    wreg      void 
  8027 ;; Registers used:
  8028 ;;		wreg, fsr0l, fsr0h, status,2, status,0, tblptrl, tblptrh, tblptru, cstack
  8029 ;; Tracked objects:
  8030 ;;		On entry : 0/0
  8031 ;;		On exit  : 0/0
  8032 ;;		Unchanged: 0/0
  8033 ;; Data sizes:     COMRAM   BANK0   BANK1   BANK2   BANK3   BANK4   BANK5   BANK6   BANK7
  8034 ;;      Params:         2       0       0       0       0       0       0       0       0
  8035 ;;      Locals:         0       0       0       0       0       0       0       0       0
  8036 ;;      Temps:          0       0       0       0       0       0       0       0       0
  8037 ;;      Totals:         2       0       0       0       0       0       0       0       0
  8038 ;;Total ram usage:        2 bytes
  8039 ;; Hardware stack levels used: 1
  8040 ;; Hardware stack levels required when called: 1
  8041 ;; This function calls:
  8042 ;;		_LCD_Char
  8043 ;; This function is called by:
  8044 ;;		_LCD_String_xy
  8045 ;; This function uses a non-reentrant model
  8046 ;;
  8047                           
  8048                           	psect	text53
  8049  003144                     __ptext53:
  8050                           	callstack 0
  8051  003144                     _LCD_String:
  8052                           	callstack 26
  8053  003144                     
  8054                           ;LCD.c: 84:     while ((*msg) != 0) {
  8055  003144  EFB8  F018         	goto	l3919
  8056  003148                     l3915:
  8057                           
  8058                           ;LCD.c: 85:         LCD_Char(*msg);
  8059  003148  C003  FFF6         	movff	LCD_String@msg,tblptrl
  8060  00314C  C004  FFF7         	movff	LCD_String@msg+1,tblptrh
  8061  003150  6AF8               	clrf	tblptru,c
  8062  003152  0E07               	movlw	(high __ramtop+-1)
  8063  003154  64F7               	cpfsgt	tblptrh,c
  8064  003156  D003               	bra	u3687
  8065  003158  0008               	tblrd		*
  8066  00315A  50F5               	movf	tablat,w,c
  8067  00315C  D005               	bra	u3680
  8068  00315E                     u3687:
  8069  00315E  CFF6 FFE9          	movff	tblptrl,fsr0l
  8070  003162  CFF7 FFEA          	movff	tblptrh,fsr0h
  8071  003166  50EF               	movf	indf0,w,c
  8072  003168                     u3680:
  8073  003168  EC4F  F019         	call	_LCD_Char
  8074  00316C                     
  8075                           ;LCD.c: 86:         msg++;
  8076  00316C  4A03               	infsnz	LCD_String@msg^0,f,c
  8077  00316E  2A04               	incf	(LCD_String@msg+1)^0,f,c
  8078  003170                     l3919:
  8079                           
  8080                           ;LCD.c: 84:     while ((*msg) != 0) {
  8081  003170  C003  FFF6         	movff	LCD_String@msg,tblptrl
  8082  003174  C004  FFF7         	movff	LCD_String@msg+1,tblptrh
  8083  003178  6AF8               	clrf	tblptru,c
  8084  00317A  0E07               	movlw	(high __ramtop+-1)
  8085  00317C  64F7               	cpfsgt	tblptrh,c
  8086  00317E  D003               	bra	u3697
  8087  003180  0008               	tblrd		*
  8088  003182  50F5               	movf	tablat,w,c
  8089  003184  D005               	bra	u3690
  8090  003186                     u3697:
  8091  003186  CFF6 FFE9          	movff	tblptrl,fsr0l
  8092  00318A  CFF7 FFEA          	movff	tblptrh,fsr0h
  8093  00318E  50EF               	movf	indf0,w,c
  8094  003190                     u3690:
  8095  003190  0900               	iorlw	0
  8096  003192  A4D8               	btfss	status,2,c
  8097  003194  EFCE  F018         	goto	u3701
  8098  003198  EFD0  F018         	goto	u3700
  8099  00319C                     u3701:
  8100  00319C  EFA4  F018         	goto	l3915
  8101  0031A0                     u3700:
  8102  0031A0  0012               	return		;funcret
  8103  0031A2                     __end_of_LCD_String:
  8104                           	callstack 0
  8105                           
  8106 ;; *************** function _LCD_Clear *****************
  8107 ;; Defined at:
  8108 ;;		line 133 in file "LCD.c"
  8109 ;; Parameters:    Size  Location     Type
  8110 ;;		None
  8111 ;; Auto vars:     Size  Location     Type
  8112 ;;		None
  8113 ;; Return value:  Size  Location     Type
  8114 ;;                  1    wreg      void 
  8115 ;; Registers used:
  8116 ;;		wreg, status,2, status,0, cstack
  8117 ;; Tracked objects:
  8118 ;;		On entry : 0/0
  8119 ;;		On exit  : 0/0
  8120 ;;		Unchanged: 0/0
  8121 ;; Data sizes:     COMRAM   BANK0   BANK1   BANK2   BANK3   BANK4   BANK5   BANK6   BANK7
  8122 ;;      Params:         0       0       0       0       0       0       0       0       0
  8123 ;;      Locals:         0       0       0       0       0       0       0       0       0
  8124 ;;      Temps:          0       0       0       0       0       0       0       0       0
  8125 ;;      Totals:         0       0       0       0       0       0       0       0       0
  8126 ;;Total ram usage:        0 bytes
  8127 ;; Hardware stack levels used: 1
  8128 ;; Hardware stack levels required when called: 1
  8129 ;; This function calls:
  8130 ;;		_LCD_Command
  8131 ;; This function is called by:
  8132 ;;		_imprimir
  8133 ;; This function uses a non-reentrant model
  8134 ;;
  8135                           
  8136                           	psect	text54
  8137  00396E                     __ptext54:
  8138                           	callstack 0
  8139  00396E                     _LCD_Clear:
  8140                           	callstack 27
  8141  00396E                     
  8142                           ;LCD.c: 134:     LCD_Command(0x01);
  8143  00396E  0E01               	movlw	1
  8144  003970  EC27  F019         	call	_LCD_Command
  8145  003974  0012               	return		;funcret
  8146  003976                     __end_of_LCD_Clear:
  8147                           	callstack 0
  8148                           
  8149 ;; *************** function _encender_leds *****************
  8150 ;; Defined at:
  8151 ;;		line 46 in file "Leds.c"
  8152 ;; Parameters:    Size  Location     Type
  8153 ;;  valor           2  141[BANK0 ] int 
  8154 ;; Auto vars:     Size  Location     Type
  8155 ;;		None
  8156 ;; Return value:  Size  Location     Type
  8157 ;;                  1    wreg      void 
  8158 ;; Registers used:
  8159 ;;		wreg, status,2, status,0
  8160 ;; Tracked objects:
  8161 ;;		On entry : 0/0
  8162 ;;		On exit  : 0/0
  8163 ;;		Unchanged: 0/0
  8164 ;; Data sizes:     COMRAM   BANK0   BANK1   BANK2   BANK3   BANK4   BANK5   BANK6   BANK7
  8165 ;;      Params:         0       2       0       0       0       0       0       0       0
  8166 ;;      Locals:         0       0       0       0       0       0       0       0       0
  8167 ;;      Temps:          0       0       0       0       0       0       0       0       0
  8168 ;;      Totals:         0       2       0       0       0       0       0       0       0
  8169 ;;Total ram usage:        2 bytes
  8170 ;; Hardware stack levels used: 1
  8171 ;; This function calls:
  8172 ;;		Nothing
  8173 ;; This function is called by:
  8174 ;;		_principal
  8175 ;; This function uses a non-reentrant model
  8176 ;;
  8177                           
  8178                           	psect	text55
  8179  002D96                     __ptext55:
  8180                           	callstack 0
  8181  002D96                     _encender_leds:
  8182                           	callstack 29
  8183  002D96                     
  8184                           ;Leds.c: 48:     if (valor == 0) {
  8185  002D96  0100               	movlb	0	; () banked
  8186  002D98  51ED               	movf	encender_leds@valor& (0+255),w,b
  8187  002D9A  11EE               	iorwf	(encender_leds@valor+1)& (0+255),w,b
  8188  002D9C  A4D8               	btfss	status,2,c
  8189  002D9E  EFD3  F016         	goto	u4351
  8190  002DA2  EFD5  F016         	goto	u4350
  8191  002DA6                     u4351:
  8192  002DA6  EFDA  F016         	goto	l4405
  8193  002DAA                     u4350:
  8194  002DAA                     
  8195                           ; BSR set to: 0
  8196                           ;Leds.c: 49:         LATB5 = 1;
  8197  002DAA  8A8A               	bsf	3978,5,c	;volatile
  8198                           
  8199                           ;Leds.c: 50:         LATB4 = 0;
  8200  002DAC  988A               	bcf	3978,4,c	;volatile
  8201                           
  8202                           ;Leds.c: 51:         LATB3 = 0;
  8203  002DAE  968A               	bcf	3978,3,c	;volatile
  8204                           
  8205                           ;Leds.c: 52:     } else if (valor == 1) {
  8206  002DB0  EF0B  F017         	goto	l350
  8207  002DB4                     l4405:
  8208                           
  8209                           ; BSR set to: 0
  8210  002DB4  05ED               	decf	encender_leds@valor& (0+255),w,b
  8211  002DB6  11EE               	iorwf	(encender_leds@valor+1)& (0+255),w,b
  8212  002DB8  A4D8               	btfss	status,2,c
  8213  002DBA  EFE1  F016         	goto	u4361
  8214  002DBE  EFE3  F016         	goto	u4360
  8215  002DC2                     u4361:
  8216  002DC2  EFE8  F016         	goto	l4409
  8217  002DC6                     u4360:
  8218  002DC6                     
  8219                           ; BSR set to: 0
  8220                           ;Leds.c: 53:         LATB5 = 0;
  8221  002DC6  9A8A               	bcf	3978,5,c	;volatile
  8222                           
  8223                           ;Leds.c: 54:         LATB4 = 1;
  8224  002DC8  888A               	bsf	3978,4,c	;volatile
  8225                           
  8226                           ;Leds.c: 55:         LATB3 = 0;
  8227  002DCA  968A               	bcf	3978,3,c	;volatile
  8228                           
  8229                           ;Leds.c: 56:     } else if (valor >= 1 && valor < 4) {
  8230  002DCC  EF0B  F017         	goto	l350
  8231  002DD0                     l4409:
  8232                           
  8233                           ; BSR set to: 0
  8234  002DD0  BFEE               	btfsc	(encender_leds@valor+1)& (0+255),7,b
  8235  002DD2  EFF3  F016         	goto	u4371
  8236  002DD6  51EE               	movf	(encender_leds@valor+1)& (0+255),w,b
  8237  002DD8  E108               	bnz	u4370
  8238  002DDA  05ED               	decf	encender_leds@valor& (0+255),w,b
  8239  002DDC  A0D8               	btfss	status,0,c
  8240  002DDE  EFF3  F016         	goto	u4371
  8241  002DE2  EFF5  F016         	goto	u4370
  8242  002DE6                     u4371:
  8243  002DE6  EF08  F017         	goto	l348
  8244  002DEA                     u4370:
  8245  002DEA                     
  8246                           ; BSR set to: 0
  8247  002DEA  BFEE               	btfsc	(encender_leds@valor+1)& (0+255),7,b
  8248  002DEC  EF03  F017         	goto	u4380
  8249  002DF0  51EE               	movf	(encender_leds@valor+1)& (0+255),w,b
  8250  002DF2  E107               	bnz	u4381
  8251  002DF4  0E04               	movlw	4
  8252  002DF6  5DED               	subwf	encender_leds@valor& (0+255),w,b
  8253  002DF8  B0D8               	btfsc	status,0,c
  8254  002DFA  EF01  F017         	goto	u4381
  8255  002DFE  EF03  F017         	goto	u4380
  8256  002E02                     u4381:
  8257  002E02  EF08  F017         	goto	l348
  8258  002E06                     u4380:
  8259  002E06                     
  8260                           ; BSR set to: 0
  8261                           ;Leds.c: 57:         LATB5 = 0;
  8262  002E06  9A8A               	bcf	3978,5,c	;volatile
  8263                           
  8264                           ;Leds.c: 58:         LATB4 = 0;
  8265  002E08  988A               	bcf	3978,4,c	;volatile
  8266                           
  8267                           ;Leds.c: 59:         LATB3 = 1;
  8268  002E0A  868A               	bsf	3978,3,c	;volatile
  8269                           
  8270                           ;Leds.c: 60:     } else {
  8271  002E0C  EF0B  F017         	goto	l350
  8272  002E10                     l348:
  8273                           
  8274                           ; BSR set to: 0
  8275                           ;Leds.c: 61:         LATB5 = 1;
  8276  002E10  8A8A               	bsf	3978,5,c	;volatile
  8277                           
  8278                           ;Leds.c: 62:         LATB4 = 1;
  8279  002E12  888A               	bsf	3978,4,c	;volatile
  8280                           
  8281                           ;Leds.c: 63:         LATB3 = 1;
  8282  002E14  868A               	bsf	3978,3,c	;volatile
  8283  002E16                     l350:
  8284                           
  8285                           ; BSR set to: 0
  8286  002E16  0012               	return		;funcret
  8287  002E18                     __end_of_encender_leds:
  8288                           	callstack 0
  8289                           
  8290 ;; *************** function _init_leds *****************
  8291 ;; Defined at:
  8292 ;;		line 32 in file "Leds.c"
  8293 ;; Parameters:    Size  Location     Type
  8294 ;;		None
  8295 ;; Auto vars:     Size  Location     Type
  8296 ;;		None
  8297 ;; Return value:  Size  Location     Type
  8298 ;;                  1    wreg      void 
  8299 ;; Registers used:
  8300 ;;		None
  8301 ;; Tracked objects:
  8302 ;;		On entry : 0/0
  8303 ;;		On exit  : 0/0
  8304 ;;		Unchanged: 0/0
  8305 ;; Data sizes:     COMRAM   BANK0   BANK1   BANK2   BANK3   BANK4   BANK5   BANK6   BANK7
  8306 ;;      Params:         0       0       0       0       0       0       0       0       0
  8307 ;;      Locals:         0       0       0       0       0       0       0       0       0
  8308 ;;      Temps:          0       0       0       0       0       0       0       0       0
  8309 ;;      Totals:         0       0       0       0       0       0       0       0       0
  8310 ;;Total ram usage:        0 bytes
  8311 ;; Hardware stack levels used: 1
  8312 ;; This function calls:
  8313 ;;		Nothing
  8314 ;; This function is called by:
  8315 ;;		_main
  8316 ;; This function uses a non-reentrant model
  8317 ;;
  8318                           
  8319                           	psect	text56
  8320  003964                     __ptext56:
  8321                           	callstack 0
  8322  003964                     _init_leds:
  8323                           	callstack 30
  8324  003964                     
  8325                           ;Leds.c: 34:     TRISB6 = 0;
  8326  003964  9C93               	bcf	3987,6,c	;volatile
  8327                           
  8328                           ;Leds.c: 35:     TRISB5 = 0;
  8329  003966  9A93               	bcf	3987,5,c	;volatile
  8330                           
  8331                           ;Leds.c: 36:     TRISB3 = 0;
  8332  003968  9693               	bcf	3987,3,c	;volatile
  8333                           
  8334                           ;Leds.c: 37:     TRISB4 = 0;
  8335  00396A  9893               	bcf	3987,4,c	;volatile
  8336  00396C  0012               	return		;funcret
  8337  00396E                     __end_of_init_leds:
  8338                           	callstack 0
  8339                           
  8340 ;; *************** function _iniciar_pic *****************
  8341 ;; Defined at:
  8342 ;;		line 90 in file "Principal.c"
  8343 ;; Parameters:    Size  Location     Type
  8344 ;;		None
  8345 ;; Auto vars:     Size  Location     Type
  8346 ;;		None
  8347 ;; Return value:  Size  Location     Type
  8348 ;;                  1    wreg      void 
  8349 ;; Registers used:
  8350 ;;		wreg, status,2, status,0, cstack
  8351 ;; Tracked objects:
  8352 ;;		On entry : 0/0
  8353 ;;		On exit  : 0/0
  8354 ;;		Unchanged: 0/0
  8355 ;; Data sizes:     COMRAM   BANK0   BANK1   BANK2   BANK3   BANK4   BANK5   BANK6   BANK7
  8356 ;;      Params:         0       0       0       0       0       0       0       0       0
  8357 ;;      Locals:         0       0       0       0       0       0       0       0       0
  8358 ;;      Temps:          0       0       0       0       0       0       0       0       0
  8359 ;;      Totals:         0       0       0       0       0       0       0       0       0
  8360 ;;Total ram usage:        0 bytes
  8361 ;; Hardware stack levels used: 1
  8362 ;; Hardware stack levels required when called: 3
  8363 ;; This function calls:
  8364 ;;		_init_rtc
  8365 ;;		_pines_ConfigurarHora
  8366 ;; This function is called by:
  8367 ;;		_main
  8368 ;; This function uses a non-reentrant model
  8369 ;;
  8370                           
  8371                           	psect	text57
  8372  00387E                     __ptext57:
  8373                           	callstack 0
  8374  00387E                     _iniciar_pic:
  8375                           	callstack 27
  8376  00387E                     
  8377                           ;Principal.c: 91:     OSCCONbits.IRCF = 0b111;
  8378  00387E  0E70               	movlw	112
  8379  003880  12D3               	iorwf	211,f,c	;volatile
  8380                           
  8381                           ;Principal.c: 92:     OSCCONbits.SCS = 0b10;
  8382  003882  50D3               	movf	211,w,c	;volatile
  8383  003884  0BFC               	andlw	-4
  8384  003886  0902               	iorlw	2
  8385  003888  6ED3               	movwf	211,c	;volatile
  8386                           
  8387                           ;Principal.c: 93:     OSCCON = 0x72;
  8388  00388A  0E72               	movlw	114
  8389  00388C  6ED3               	movwf	211,c	;volatile
  8390  00388E                     
  8391                           ;Principal.c: 94:     RBPU = 0;
  8392  00388E  9EF1               	bcf	4081,7,c	;volatile
  8393  003890                     
  8394                           ;Principal.c: 95:     init_rtc();
  8395  003890  ECBB  F01C         	call	_init_rtc	;wreg free
  8396  003894                     
  8397                           ;Principal.c: 96:     pines_ConfigurarHora();
  8398  003894  EC2E  F01C         	call	_pines_ConfigurarHora	;wreg free
  8399  003898                     
  8400                           ;Principal.c: 97:     TRISBbits.RB4 = 1;
  8401  003898  8893               	bsf	147,4,c	;volatile
  8402  00389A  0012               	return		;funcret
  8403  00389C                     __end_of_iniciar_pic:
  8404                           	callstack 0
  8405                           
  8406 ;; *************** function _pines_ConfigurarHora *****************
  8407 ;; Defined at:
  8408 ;;		line 180 in file "RTC.c"
  8409 ;; Parameters:    Size  Location     Type
  8410 ;;		None
  8411 ;; Auto vars:     Size  Location     Type
  8412 ;;		None
  8413 ;; Return value:  Size  Location     Type
  8414 ;;                  1    wreg      void 
  8415 ;; Registers used:
  8416 ;;		wreg, status,2, status,0, cstack
  8417 ;; Tracked objects:
  8418 ;;		On entry : 0/0
  8419 ;;		On exit  : 0/0
  8420 ;;		Unchanged: 0/0
  8421 ;; Data sizes:     COMRAM   BANK0   BANK1   BANK2   BANK3   BANK4   BANK5   BANK6   BANK7
  8422 ;;      Params:         0       0       0       0       0       0       0       0       0
  8423 ;;      Locals:         0       0       0       0       0       0       0       0       0
  8424 ;;      Temps:          1       0       0       0       0       0       0       0       0
  8425 ;;      Totals:         1       0       0       0       0       0       0       0       0
  8426 ;;Total ram usage:        1 bytes
  8427 ;; Hardware stack levels used: 1
  8428 ;; Hardware stack levels required when called: 2
  8429 ;; This function calls:
  8430 ;;		_inicializar_lcd
  8431 ;; This function is called by:
  8432 ;;		_iniciar_pic
  8433 ;; This function uses a non-reentrant model
  8434 ;;
  8435                           
  8436                           	psect	text58
  8437  00385C                     __ptext58:
  8438                           	callstack 0
  8439  00385C                     _pines_ConfigurarHora:
  8440                           	callstack 27
  8441  00385C                     
  8442                           ;RTC.c: 181:     ADCON1bits.PCFG =
  8443  00385C  5092               	movf	146,w,c	;volatile
  8444  00385E  0BFB               	andlw	-5
  8445  003860  0904               	iorlw	4
  8446  003862  6E92               	movwf	146,c	;volatile
  8447  003864  3092               	rrcf	146,w,c	;volatile
  8448  003866  32E8               	rrcf	wreg,f,c
  8449  003868  0B01               	andlw	1
  8450  00386A  6E04               	movwf	??_pines_ConfigurarHora^0,c
  8451  00386C  50C1               	movf	193,w,c	;volatile
  8452  00386E  1804               	xorwf	??_pines_ConfigurarHora^0,w,c
  8453  003870  0BF0               	andlw	-16
  8454  003872  1804               	xorwf	??_pines_ConfigurarHora^0,w,c
  8455  003874  6EC1               	movwf	193,c	;volatile
  8456  003876                     
  8457                           ;RTC.c: 183:     TRISAbits.RA3 = 1;
  8458  003876  8692               	bsf	146,3,c	;volatile
  8459  003878                     
  8460                           ;RTC.c: 184:     inicializar_lcd();
  8461  003878  EC4F  F01B         	call	_inicializar_lcd	;wreg free
  8462  00387C  0012               	return		;funcret
  8463  00387E                     __end_of_pines_ConfigurarHora:
  8464                           	callstack 0
  8465                           
  8466 ;; *************** function _inicializar_lcd *****************
  8467 ;; Defined at:
  8468 ;;		line 30 in file "LCD.c"
  8469 ;; Parameters:    Size  Location     Type
  8470 ;;		None
  8471 ;; Auto vars:     Size  Location     Type
  8472 ;;		None
  8473 ;; Return value:  Size  Location     Type
  8474 ;;                  1    wreg      void 
  8475 ;; Registers used:
  8476 ;;		wreg, status,2, status,0, cstack
  8477 ;; Tracked objects:
  8478 ;;		On entry : 0/0
  8479 ;;		On exit  : 0/0
  8480 ;;		Unchanged: 0/0
  8481 ;; Data sizes:     COMRAM   BANK0   BANK1   BANK2   BANK3   BANK4   BANK5   BANK6   BANK7
  8482 ;;      Params:         0       0       0       0       0       0       0       0       0
  8483 ;;      Locals:         0       0       0       0       0       0       0       0       0
  8484 ;;      Temps:          1       0       0       0       0       0       0       0       0
  8485 ;;      Totals:         1       0       0       0       0       0       0       0       0
  8486 ;;Total ram usage:        1 bytes
  8487 ;; Hardware stack levels used: 1
  8488 ;; Hardware stack levels required when called: 1
  8489 ;; This function calls:
  8490 ;;		_LCD_Command
  8491 ;; This function is called by:
  8492 ;;		_main
  8493 ;;		_pines_ConfigurarHora
  8494 ;; This function uses a non-reentrant model
  8495 ;;
  8496                           
  8497                           	psect	text59
  8498  00369E                     __ptext59:
  8499                           	callstack 0
  8500  00369E                     _inicializar_lcd:
  8501                           	callstack 27
  8502  00369E                     
  8503                           ;LCD.c: 31:     TRISD = 0;
  8504  00369E  0E00               	movlw	0
  8505  0036A0  6E95               	movwf	149,c	;volatile
  8506  0036A2                     
  8507                           ;LCD.c: 32:     _delay((unsigned long)((15)*(8000000/4000.0)));
  8508  0036A2  0E27               	movlw	39
  8509  0036A4  6E03               	movwf	??_inicializar_lcd^0,c
  8510  0036A6  0EF5               	movlw	245
  8511  0036A8                     u5537:
  8512  0036A8  2EE8               	decfsz	wreg,f,c
  8513  0036AA  D7FE               	bra	u5537
  8514  0036AC  2E03               	decfsz	??_inicializar_lcd^0,f,c
  8515  0036AE  D7FC               	bra	u5537
  8516  0036B0  F000               	nop	
  8517  0036B2                     
  8518                           ;LCD.c: 33:     LCD_Command(0x02);
  8519  0036B2  0E02               	movlw	2
  8520  0036B4  EC27  F019         	call	_LCD_Command
  8521  0036B8                     
  8522                           ;LCD.c: 35:     LCD_Command(0x28);
  8523  0036B8  0E28               	movlw	40
  8524  0036BA  EC27  F019         	call	_LCD_Command
  8525  0036BE                     
  8526                           ;LCD.c: 37:     LCD_Command(0x01);
  8527  0036BE  0E01               	movlw	1
  8528  0036C0  EC27  F019         	call	_LCD_Command
  8529  0036C4                     
  8530                           ;LCD.c: 38:     LCD_Command(0x0c);
  8531  0036C4  0E0C               	movlw	12
  8532  0036C6  EC27  F019         	call	_LCD_Command
  8533  0036CA                     
  8534                           ;LCD.c: 39:     LCD_Command(0x06);
  8535  0036CA  0E06               	movlw	6
  8536  0036CC  EC27  F019         	call	_LCD_Command
  8537  0036D0  0012               	return		;funcret
  8538  0036D2                     __end_of_inicializar_lcd:
  8539                           	callstack 0
  8540                           
  8541 ;; *************** function _init_rtc *****************
  8542 ;; Defined at:
  8543 ;;		line 176 in file "RTC.c"
  8544 ;; Parameters:    Size  Location     Type
  8545 ;;		None
  8546 ;; Auto vars:     Size  Location     Type
  8547 ;;		None
  8548 ;; Return value:  Size  Location     Type
  8549 ;;                  1    wreg      void 
  8550 ;; Registers used:
  8551 ;;		wreg, status,2, cstack
  8552 ;; Tracked objects:
  8553 ;;		On entry : 0/0
  8554 ;;		On exit  : 0/0
  8555 ;;		Unchanged: 0/0
  8556 ;; Data sizes:     COMRAM   BANK0   BANK1   BANK2   BANK3   BANK4   BANK5   BANK6   BANK7
  8557 ;;      Params:         0       0       0       0       0       0       0       0       0
  8558 ;;      Locals:         0       0       0       0       0       0       0       0       0
  8559 ;;      Temps:          0       0       0       0       0       0       0       0       0
  8560 ;;      Totals:         0       0       0       0       0       0       0       0       0
  8561 ;;Total ram usage:        0 bytes
  8562 ;; Hardware stack levels used: 1
  8563 ;; Hardware stack levels required when called: 1
  8564 ;; This function calls:
  8565 ;;		_I2C_Init
  8566 ;; This function is called by:
  8567 ;;		_iniciar_pic
  8568 ;; This function uses a non-reentrant model
  8569 ;;
  8570                           
  8571                           	psect	text60
  8572  003976                     __ptext60:
  8573                           	callstack 0
  8574  003976                     _init_rtc:
  8575                           	callstack 28
  8576  003976                     
  8577                           ;RTC.c: 177:     I2C_Init();
  8578  003976  EC4E  F01C         	call	_I2C_Init	;wreg free
  8579  00397A  0012               	return		;funcret
  8580  00397C                     __end_of_init_rtc:
  8581                           	callstack 0
  8582                           
  8583 ;; *************** function _I2C_Init *****************
  8584 ;; Defined at:
  8585 ;;		line 28 in file "I2C_Source_File.c"
  8586 ;; Parameters:    Size  Location     Type
  8587 ;;		None
  8588 ;; Auto vars:     Size  Location     Type
  8589 ;;		None
  8590 ;; Return value:  Size  Location     Type
  8591 ;;                  1    wreg      void 
  8592 ;; Registers used:
  8593 ;;		wreg, status,2
  8594 ;; Tracked objects:
  8595 ;;		On entry : 0/0
  8596 ;;		On exit  : 0/0
  8597 ;;		Unchanged: 0/0
  8598 ;; Data sizes:     COMRAM   BANK0   BANK1   BANK2   BANK3   BANK4   BANK5   BANK6   BANK7
  8599 ;;      Params:         0       0       0       0       0       0       0       0       0
  8600 ;;      Locals:         0       0       0       0       0       0       0       0       0
  8601 ;;      Temps:          0       0       0       0       0       0       0       0       0
  8602 ;;      Totals:         0       0       0       0       0       0       0       0       0
  8603 ;;Total ram usage:        0 bytes
  8604 ;; Hardware stack levels used: 1
  8605 ;; This function calls:
  8606 ;;		Nothing
  8607 ;; This function is called by:
  8608 ;;		_obtener_tiempo_fecha
  8609 ;;		_init_rtc
  8610 ;; This function uses a non-reentrant model
  8611 ;;
  8612                           
  8613                           	psect	text61
  8614  00389C                     __ptext61:
  8615                           	callstack 0
  8616  00389C                     _I2C_Init:
  8617                           	callstack 26
  8618  00389C                     
  8619                           ;I2C_Source_File.c: 29:     TRISB0 = 1;
  8620  00389C  8093               	bsf	3987,0,c	;volatile
  8621                           
  8622                           ;I2C_Source_File.c: 30:     TRISB1 = 1;
  8623  00389E  8293               	bsf	3987,1,c	;volatile
  8624  0038A0                     
  8625                           ;I2C_Source_File.c: 31:     SSPSTAT = 80;
  8626  0038A0  0E50               	movlw	80
  8627  0038A2  6EC7               	movwf	199,c	;volatile
  8628                           
  8629                           ;I2C_Source_File.c: 32:     SSPCON1 = 0x28;
  8630  0038A4  0E28               	movlw	40
  8631  0038A6  6EC6               	movwf	198,c	;volatile
  8632                           
  8633                           ;I2C_Source_File.c: 34:     SSPCON2 = 0;
  8634  0038A8  0E00               	movlw	0
  8635  0038AA  6EC5               	movwf	197,c	;volatile
  8636                           
  8637                           ;I2C_Source_File.c: 35:     SSPADD = ((8000000/(4*100000))-1);
  8638  0038AC  0E13               	movlw	19
  8639  0038AE  6EC8               	movwf	200,c	;volatile
  8640  0038B0                     
  8641                           ;I2C_Source_File.c: 36:     SSPIE = 1;
  8642  0038B0  869D               	bsf	3997,3,c	;volatile
  8643  0038B2                     
  8644                           ;I2C_Source_File.c: 37:     SSPIF = 0;
  8645  0038B2  969E               	bcf	3998,3,c	;volatile
  8646  0038B4  0012               	return		;funcret
  8647  0038B6                     __end_of_I2C_Init:
  8648                           	callstack 0
  8649                           
  8650 ;; *************** function _iniciar_emoticones *****************
  8651 ;; Defined at:
  8652 ;;		line 104 in file "Principal.c"
  8653 ;; Parameters:    Size  Location     Type
  8654 ;;		None
  8655 ;; Auto vars:     Size  Location     Type
  8656 ;;  todo_bien       8   30[COMRAM] unsigned char [8]
  8657 ;;  luz             8   22[COMRAM] unsigned char [8]
  8658 ;;  distancia       8   14[COMRAM] unsigned char [8]
  8659 ;;  temperatura     8    6[COMRAM] unsigned char [8]
  8660 ;; Return value:  Size  Location     Type
  8661 ;;                  1    wreg      void 
  8662 ;; Registers used:
  8663 ;;		wreg, fsr1l, fsr1h, fsr2l, fsr2h, status,2, status,0, prodl, prodh, cstack
  8664 ;; Tracked objects:
  8665 ;;		On entry : 0/0
  8666 ;;		On exit  : 0/0
  8667 ;;		Unchanged: 0/0
  8668 ;; Data sizes:     COMRAM   BANK0   BANK1   BANK2   BANK3   BANK4   BANK5   BANK6   BANK7
  8669 ;;      Params:         0       0       0       0       0       0       0       0       0
  8670 ;;      Locals:        32       0       0       0       0       0       0       0       0
  8671 ;;      Temps:          0       0       0       0       0       0       0       0       0
  8672 ;;      Totals:        32       0       0       0       0       0       0       0       0
  8673 ;;Total ram usage:       32 bytes
  8674 ;; Hardware stack levels used: 1
  8675 ;; Hardware stack levels required when called: 2
  8676 ;; This function calls:
  8677 ;;		_LCD_Custom_Char
  8678 ;; This function is called by:
  8679 ;;		_main
  8680 ;; This function uses a non-reentrant model
  8681 ;;
  8682                           
  8683                           	psect	text62
  8684  002E18                     __ptext62:
  8685                           	callstack 0
  8686  002E18                     _iniciar_emoticones:
  8687                           	callstack 28
  8688  002E18                     
  8689                           ;Principal.c: 107:     unsigned char temperatura[8] = {
  8690  002E18  EE22  F0CC         	lfsr	2,iniciar_emoticones@F3813
  8691  002E1C  EE10  F007         	lfsr	1,iniciar_emoticones@temperatura
  8692  002E20  0E07               	movlw	7
  8693  002E22                     u5101:
  8694  002E22  CFDB FFE3          	movff	plusw2,plusw1
  8695  002E26  06E8               	decf	wreg,f,c
  8696  002E28  E2FC               	bc	u5101
  8697                           
  8698                           ;Principal.c: 118:     unsigned char distancia[8] = {
  8699  002E2A  EE22  F0C4         	lfsr	2,iniciar_emoticones@F3815
  8700  002E2E  EE10  F00F         	lfsr	1,iniciar_emoticones@distancia
  8701  002E32  0E07               	movlw	7
  8702  002E34                     u5111:
  8703  002E34  CFDB FFE3          	movff	plusw2,plusw1
  8704  002E38  06E8               	decf	wreg,f,c
  8705  002E3A  E2FC               	bc	u5111
  8706                           
  8707                           ;Principal.c: 129:     unsigned char luz[8] = {
  8708  002E3C  EE22  F0BC         	lfsr	2,iniciar_emoticones@F3817
  8709  002E40  EE10  F017         	lfsr	1,iniciar_emoticones@luz
  8710  002E44  0E07               	movlw	7
  8711  002E46                     u5121:
  8712  002E46  CFDB FFE3          	movff	plusw2,plusw1
  8713  002E4A  06E8               	decf	wreg,f,c
  8714  002E4C  E2FC               	bc	u5121
  8715                           
  8716                           ;Principal.c: 140:     unsigned char todo_bien[8] = {
  8717  002E4E  EE22  F0B4         	lfsr	2,iniciar_emoticones@F3819
  8718  002E52  EE10  F01F         	lfsr	1,iniciar_emoticones@todo_bien
  8719  002E56  0E07               	movlw	7
  8720  002E58                     u5131:
  8721  002E58  CFDB FFE3          	movff	plusw2,plusw1
  8722  002E5C  06E8               	decf	wreg,f,c
  8723  002E5E  E2FC               	bc	u5131
  8724  002E60                     
  8725                           ;Principal.c: 152:     LCD_Custom_Char(4, todo_bien);
  8726  002E60  0E1F               	movlw	low iniciar_emoticones@todo_bien
  8727  002E62  6E03               	movwf	LCD_Custom_Char@msg^0,c
  8728  002E64  0E00               	movlw	high iniciar_emoticones@todo_bien
  8729  002E66  6E04               	movwf	(LCD_Custom_Char@msg+1)^0,c
  8730  002E68  0E04               	movlw	4
  8731  002E6A  ECC1  F019         	call	_LCD_Custom_Char
  8732  002E6E                     
  8733                           ;Principal.c: 153:     LCD_Custom_Char(5, temperatura);
  8734  002E6E  0E07               	movlw	low iniciar_emoticones@temperatura
  8735  002E70  6E03               	movwf	LCD_Custom_Char@msg^0,c
  8736  002E72  0E00               	movlw	high iniciar_emoticones@temperatura
  8737  002E74  6E04               	movwf	(LCD_Custom_Char@msg+1)^0,c
  8738  002E76  0E05               	movlw	5
  8739  002E78  ECC1  F019         	call	_LCD_Custom_Char
  8740  002E7C                     
  8741                           ;Principal.c: 154:     LCD_Custom_Char(6, distancia);
  8742  002E7C  0E0F               	movlw	low iniciar_emoticones@distancia
  8743  002E7E  6E03               	movwf	LCD_Custom_Char@msg^0,c
  8744  002E80  0E00               	movlw	high iniciar_emoticones@distancia
  8745  002E82  6E04               	movwf	(LCD_Custom_Char@msg+1)^0,c
  8746  002E84  0E06               	movlw	6
  8747  002E86  ECC1  F019         	call	_LCD_Custom_Char
  8748  002E8A                     
  8749                           ;Principal.c: 155:     LCD_Custom_Char(7, luz);
  8750  002E8A  0E17               	movlw	low iniciar_emoticones@luz
  8751  002E8C  6E03               	movwf	LCD_Custom_Char@msg^0,c
  8752  002E8E  0E00               	movlw	high iniciar_emoticones@luz
  8753  002E90  6E04               	movwf	(LCD_Custom_Char@msg+1)^0,c
  8754  002E92  0E07               	movlw	7
  8755  002E94  ECC1  F019         	call	_LCD_Custom_Char
  8756  002E98  0012               	return		;funcret
  8757  002E9A                     __end_of_iniciar_emoticones:
  8758                           	callstack 0
  8759                           
  8760 ;; *************** function _LCD_Custom_Char *****************
  8761 ;; Defined at:
  8762 ;;		line 154 in file "LCD.c"
  8763 ;; Parameters:    Size  Location     Type
  8764 ;;  loc             1    wreg     unsigned char 
  8765 ;;  msg             2    2[COMRAM] PTR unsigned char 
  8766 ;;		 -> iniciar_emoticones@todo_bien(8), iniciar_emoticones@luz(8), iniciar_emoticones@distancia(8), iniciar_emoticones@
      +temperatura(8), 
  8767 ;; Auto vars:     Size  Location     Type
  8768 ;;  loc             1    4[COMRAM] unsigned char 
  8769 ;;  i               1    5[COMRAM] unsigned char 
  8770 ;; Return value:  Size  Location     Type
  8771 ;;                  1    wreg      void 
  8772 ;; Registers used:
  8773 ;;		wreg, fsr2l, fsr2h, status,2, status,0, prodl, prodh, cstack
  8774 ;; Tracked objects:
  8775 ;;		On entry : 0/0
  8776 ;;		On exit  : 0/0
  8777 ;;		Unchanged: 0/0
  8778 ;; Data sizes:     COMRAM   BANK0   BANK1   BANK2   BANK3   BANK4   BANK5   BANK6   BANK7
  8779 ;;      Params:         2       0       0       0       0       0       0       0       0
  8780 ;;      Locals:         2       0       0       0       0       0       0       0       0
  8781 ;;      Temps:          0       0       0       0       0       0       0       0       0
  8782 ;;      Totals:         4       0       0       0       0       0       0       0       0
  8783 ;;Total ram usage:        4 bytes
  8784 ;; Hardware stack levels used: 1
  8785 ;; Hardware stack levels required when called: 1
  8786 ;; This function calls:
  8787 ;;		_LCD_Char
  8788 ;;		_LCD_Command
  8789 ;; This function is called by:
  8790 ;;		_iniciar_emoticones
  8791 ;; This function uses a non-reentrant model
  8792 ;;
  8793                           
  8794                           	psect	text63
  8795  003382                     __ptext63:
  8796                           	callstack 0
  8797  003382                     _LCD_Custom_Char:
  8798                           	callstack 28
  8799                           
  8800                           ;incstack = 0
  8801                           ;LCD_Custom_Char@loc stored from wreg
  8802  003382  6E05               	movwf	LCD_Custom_Char@loc^0,c
  8803  003384                     
  8804                           ;LCD.c: 156:     unsigned char i;;LCD.c: 157:     if (loc < 8) {
  8805  003384  0E08               	movlw	8
  8806  003386  6005               	cpfslt	LCD_Custom_Char@loc^0,c
  8807  003388  EFC8  F019         	goto	u4391
  8808  00338C  EFCA  F019         	goto	u4390
  8809  003390                     u4391:
  8810  003390  EFE4  F019         	goto	l218
  8811  003394                     u4390:
  8812  003394                     
  8813                           ;LCD.c: 158:         LCD_Command(0x40 + (loc * 8));
  8814  003394  5005               	movf	LCD_Custom_Char@loc^0,w,c
  8815  003396  0D08               	mullw	8
  8816  003398  50F3               	movf	243,w,c
  8817  00339A  0F40               	addlw	64
  8818  00339C  EC27  F019         	call	_LCD_Command
  8819  0033A0                     
  8820                           ;LCD.c: 159:         for (i = 0; i < 8; i++)
  8821  0033A0  0E00               	movlw	0
  8822  0033A2  6E06               	movwf	LCD_Custom_Char@i^0,c
  8823  0033A4                     l4433:
  8824                           
  8825                           ;LCD.c: 160:             LCD_Char(msg[i]);
  8826  0033A4  5006               	movf	LCD_Custom_Char@i^0,w,c
  8827  0033A6  2403               	addwf	LCD_Custom_Char@msg^0,w,c
  8828  0033A8  6ED9               	movwf	fsr2l,c
  8829  0033AA  0E00               	movlw	0
  8830  0033AC  2004               	addwfc	(LCD_Custom_Char@msg+1)^0,w,c
  8831  0033AE  6EDA               	movwf	fsr2h,c
  8832  0033B0  50DF               	movf	indf2,w,c
  8833  0033B2  EC4F  F019         	call	_LCD_Char
  8834  0033B6  2A06               	incf	LCD_Custom_Char@i^0,f,c
  8835  0033B8  0E07               	movlw	7
  8836  0033BA  6406               	cpfsgt	LCD_Custom_Char@i^0,c
  8837  0033BC  EFE2  F019         	goto	u4401
  8838  0033C0  EFE4  F019         	goto	u4400
  8839  0033C4                     u4401:
  8840  0033C4  EFD2  F019         	goto	l4433
  8841  0033C8                     u4400:
  8842  0033C8                     l218:
  8843  0033C8  0012               	return		;funcret
  8844  0033CA                     __end_of_LCD_Custom_Char:
  8845                           	callstack 0
  8846                           
  8847 ;; *************** function _LCD_Command *****************
  8848 ;; Defined at:
  8849 ;;		line 42 in file "LCD.c"
  8850 ;; Parameters:    Size  Location     Type
  8851 ;;  cmd             1    wreg     unsigned char 
  8852 ;; Auto vars:     Size  Location     Type
  8853 ;;  cmd             1    1[COMRAM] unsigned char 
  8854 ;; Return value:  Size  Location     Type
  8855 ;;                  1    wreg      void 
  8856 ;; Registers used:
  8857 ;;		wreg, status,2, status,0
  8858 ;; Tracked objects:
  8859 ;;		On entry : 0/0
  8860 ;;		On exit  : 0/0
  8861 ;;		Unchanged: 0/0
  8862 ;; Data sizes:     COMRAM   BANK0   BANK1   BANK2   BANK3   BANK4   BANK5   BANK6   BANK7
  8863 ;;      Params:         0       0       0       0       0       0       0       0       0
  8864 ;;      Locals:         1       0       0       0       0       0       0       0       0
  8865 ;;      Temps:          1       0       0       0       0       0       0       0       0
  8866 ;;      Totals:         2       0       0       0       0       0       0       0       0
  8867 ;;Total ram usage:        2 bytes
  8868 ;; Hardware stack levels used: 1
  8869 ;; This function calls:
  8870 ;;		Nothing
  8871 ;; This function is called by:
  8872 ;;		_imprimir
  8873 ;;		_inicializar_lcd
  8874 ;;		_LCD_String_xy
  8875 ;;		_LCD_Clear
  8876 ;;		_mostrar_emoticon
  8877 ;;		_LCD_Custom_Char
  8878 ;;		_LCD_xy
  8879 ;; This function uses a non-reentrant model
  8880 ;;
  8881                           
  8882                           	psect	text64
  8883  00324E                     __ptext64:
  8884                           	callstack 0
  8885  00324E                     _LCD_Command:
  8886                           	callstack 27
  8887                           
  8888                           ;incstack = 0
  8889                           ;LCD_Command@cmd stored from wreg
  8890  00324E  6E02               	movwf	LCD_Command@cmd^0,c
  8891  003250                     
  8892                           ;LCD.c: 43:     LATD = (LATD & 0x0f) | (0xF0 & cmd);
  8893  003250  C002  F001         	movff	LCD_Command@cmd,??_LCD_Command
  8894  003254  0EF0               	movlw	240
  8895  003256  1601               	andwf	??_LCD_Command^0,f,c
  8896  003258  508C               	movf	140,w,c	;volatile
  8897  00325A  0B0F               	andlw	15
  8898  00325C  1001               	iorwf	??_LCD_Command^0,w,c
  8899  00325E  6E8C               	movwf	140,c	;volatile
  8900  003260                     
  8901                           ;LCD.c: 44:     LATD0 = 0;
  8902  003260  908C               	bcf	3980,0,c	;volatile
  8903  003262                     
  8904                           ;LCD.c: 45:     LATD1 = 1;
  8905  003262  828C               	bsf	3980,1,c	;volatile
  8906  003264                     
  8907                           ;LCD.c: 46:     __nop();
  8908  003264  F000               	nop	
  8909  003266                     
  8910                           ;LCD.c: 47:     LATD1 = 0;
  8911  003266  928C               	bcf	3980,1,c	;volatile
  8912  003268                     
  8913                           ;LCD.c: 48:     _delay((unsigned long)((1)*(8000000/4000.0)));
  8914  003268  0E03               	movlw	3
  8915  00326A  6E01               	movwf	??_LCD_Command^0,c
  8916  00326C  0E98               	movlw	152
  8917  00326E                     u5547:
  8918  00326E  2EE8               	decfsz	wreg,f,c
  8919  003270  D7FE               	bra	u5547
  8920  003272  2E01               	decfsz	??_LCD_Command^0,f,c
  8921  003274  D7FC               	bra	u5547
  8922  003276                     
  8923                           ;LCD.c: 49:     LATD = (LATD & 0x0f) | (cmd << 4);
  8924  003276  C002  F001         	movff	LCD_Command@cmd,??_LCD_Command
  8925  00327A  3A01               	swapf	??_LCD_Command^0,f,c
  8926  00327C  0EF0               	movlw	240
  8927  00327E  1601               	andwf	??_LCD_Command^0,f,c
  8928  003280  508C               	movf	140,w,c	;volatile
  8929  003282  0B0F               	andlw	15
  8930  003284  1001               	iorwf	??_LCD_Command^0,w,c
  8931  003286  6E8C               	movwf	140,c	;volatile
  8932  003288                     
  8933                           ;LCD.c: 50:     LATD1 = 1;
  8934  003288  828C               	bsf	3980,1,c	;volatile
  8935  00328A                     
  8936                           ;LCD.c: 51:     __nop();
  8937  00328A  F000               	nop	
  8938  00328C                     
  8939                           ;LCD.c: 52:     LATD1 = 0;
  8940  00328C  928C               	bcf	3980,1,c	;volatile
  8941                           
  8942                           ;LCD.c: 53:     _delay((unsigned long)((3)*(8000000/4000.0)));
  8943  00328E  0E08               	movlw	8
  8944  003290  6E01               	movwf	??_LCD_Command^0,c
  8945  003292  0ECA               	movlw	202
  8946  003294                     u5557:
  8947  003294  2EE8               	decfsz	wreg,f,c
  8948  003296  D7FE               	bra	u5557
  8949  003298  2E01               	decfsz	??_LCD_Command^0,f,c
  8950  00329A  D7FC               	bra	u5557
  8951  00329C  0012               	return		;funcret
  8952  00329E                     __end_of_LCD_Command:
  8953                           	callstack 0
  8954                           
  8955 ;; *************** function _LCD_Char *****************
  8956 ;; Defined at:
  8957 ;;		line 61 in file "LCD.c"
  8958 ;; Parameters:    Size  Location     Type
  8959 ;;  dat             1    wreg     unsigned char 
  8960 ;; Auto vars:     Size  Location     Type
  8961 ;;  dat             1    1[COMRAM] unsigned char 
  8962 ;; Return value:  Size  Location     Type
  8963 ;;                  1    wreg      void 
  8964 ;; Registers used:
  8965 ;;		wreg, status,2, status,0
  8966 ;; Tracked objects:
  8967 ;;		On entry : 0/0
  8968 ;;		On exit  : 0/0
  8969 ;;		Unchanged: 0/0
  8970 ;; Data sizes:     COMRAM   BANK0   BANK1   BANK2   BANK3   BANK4   BANK5   BANK6   BANK7
  8971 ;;      Params:         0       0       0       0       0       0       0       0       0
  8972 ;;      Locals:         1       0       0       0       0       0       0       0       0
  8973 ;;      Temps:          1       0       0       0       0       0       0       0       0
  8974 ;;      Totals:         2       0       0       0       0       0       0       0       0
  8975 ;;Total ram usage:        2 bytes
  8976 ;; Hardware stack levels used: 1
  8977 ;; This function calls:
  8978 ;;		Nothing
  8979 ;; This function is called by:
  8980 ;;		_LCD_String
  8981 ;;		_mostrar_emoticon
  8982 ;;		_LCD_Custom_Char
  8983 ;;		_Establecer_Hora_Fecha
  8984 ;; This function uses a non-reentrant model
  8985 ;;
  8986                           
  8987                           	psect	text65
  8988  00329E                     __ptext65:
  8989                           	callstack 0
  8990  00329E                     _LCD_Char:
  8991                           	callstack 27
  8992                           
  8993                           ;incstack = 0
  8994                           ;LCD_Char@dat stored from wreg
  8995  00329E  6E02               	movwf	LCD_Char@dat^0,c
  8996  0032A0                     
  8997                           ;LCD.c: 63:     LATD = (LATD & 0x0f) | (0xF0 & dat);
  8998  0032A0  C002  F001         	movff	LCD_Char@dat,??_LCD_Char
  8999  0032A4  0EF0               	movlw	240
  9000  0032A6  1601               	andwf	??_LCD_Char^0,f,c
  9001  0032A8  508C               	movf	140,w,c	;volatile
  9002  0032AA  0B0F               	andlw	15
  9003  0032AC  1001               	iorwf	??_LCD_Char^0,w,c
  9004  0032AE  6E8C               	movwf	140,c	;volatile
  9005  0032B0                     
  9006                           ;LCD.c: 64:     LATD0 = 1;
  9007  0032B0  808C               	bsf	3980,0,c	;volatile
  9008  0032B2                     
  9009                           ;LCD.c: 65:     LATD1 = 1;
  9010  0032B2  828C               	bsf	3980,1,c	;volatile
  9011  0032B4                     
  9012                           ;LCD.c: 66:     __nop();
  9013  0032B4  F000               	nop	
  9014  0032B6                     
  9015                           ;LCD.c: 67:     LATD1 = 0;
  9016  0032B6  928C               	bcf	3980,1,c	;volatile
  9017  0032B8                     
  9018                           ;LCD.c: 68:     _delay((unsigned long)((1)*(8000000/4000.0)));
  9019  0032B8  0E03               	movlw	3
  9020  0032BA  6E01               	movwf	??_LCD_Char^0,c
  9021  0032BC  0E98               	movlw	152
  9022  0032BE                     u5567:
  9023  0032BE  2EE8               	decfsz	wreg,f,c
  9024  0032C0  D7FE               	bra	u5567
  9025  0032C2  2E01               	decfsz	??_LCD_Char^0,f,c
  9026  0032C4  D7FC               	bra	u5567
  9027  0032C6                     
  9028                           ;LCD.c: 69:     LATD = (LATD & 0x0f) | (dat << 4);
  9029  0032C6  C002  F001         	movff	LCD_Char@dat,??_LCD_Char
  9030  0032CA  3A01               	swapf	??_LCD_Char^0,f,c
  9031  0032CC  0EF0               	movlw	240
  9032  0032CE  1601               	andwf	??_LCD_Char^0,f,c
  9033  0032D0  508C               	movf	140,w,c	;volatile
  9034  0032D2  0B0F               	andlw	15
  9035  0032D4  1001               	iorwf	??_LCD_Char^0,w,c
  9036  0032D6  6E8C               	movwf	140,c	;volatile
  9037  0032D8                     
  9038                           ;LCD.c: 70:     LATD1 = 1;
  9039  0032D8  828C               	bsf	3980,1,c	;volatile
  9040  0032DA                     
  9041                           ;LCD.c: 71:     __nop();
  9042  0032DA  F000               	nop	
  9043  0032DC                     
  9044                           ;LCD.c: 72:     LATD1 = 0;
  9045  0032DC  928C               	bcf	3980,1,c	;volatile
  9046                           
  9047                           ;LCD.c: 73:     _delay((unsigned long)((3)*(8000000/4000.0)));
  9048  0032DE  0E08               	movlw	8
  9049  0032E0  6E01               	movwf	??_LCD_Char^0,c
  9050  0032E2  0ECA               	movlw	202
  9051  0032E4                     u5577:
  9052  0032E4  2EE8               	decfsz	wreg,f,c
  9053  0032E6  D7FE               	bra	u5577
  9054  0032E8  2E01               	decfsz	??_LCD_Char^0,f,c
  9055  0032EA  D7FC               	bra	u5577
  9056  0032EC  0012               	return		;funcret
  9057  0032EE                     __end_of_LCD_Char:
  9058                           	callstack 0
  9059                           
  9060 ;; *************** function _USART_Init *****************
  9061 ;; Defined at:
  9062 ;;		line 8 in file "USART_Source_File.c"
  9063 ;; Parameters:    Size  Location     Type
  9064 ;;  baud_rate       4   55[COMRAM] long 
  9065 ;; Auto vars:     Size  Location     Type
  9066 ;;  temp            4   59[COMRAM] float 
  9067 ;; Return value:  Size  Location     Type
  9068 ;;                  1    wreg      void 
  9069 ;; Registers used:
  9070 ;;		wreg, status,2, status,0, cstack
  9071 ;; Tracked objects:
  9072 ;;		On entry : 0/0
  9073 ;;		On exit  : 0/0
  9074 ;;		Unchanged: 0/0
  9075 ;; Data sizes:     COMRAM   BANK0   BANK1   BANK2   BANK3   BANK4   BANK5   BANK6   BANK7
  9076 ;;      Params:         4       0       0       0       0       0       0       0       0
  9077 ;;      Locals:         4       0       0       0       0       0       0       0       0
  9078 ;;      Temps:          0       0       0       0       0       0       0       0       0
  9079 ;;      Totals:         8       0       0       0       0       0       0       0       0
  9080 ;;Total ram usage:        8 bytes
  9081 ;; Hardware stack levels used: 1
  9082 ;; Hardware stack levels required when called: 1
  9083 ;; This function calls:
  9084 ;;		___fladd
  9085 ;;		___fldiv
  9086 ;;		___fltol
  9087 ;;		___xxtofl
  9088 ;; This function is called by:
  9089 ;;		_main
  9090 ;; This function uses a non-reentrant model
  9091 ;;
  9092                           
  9093                           	psect	text66
  9094  002C70                     __ptext66:
  9095                           	callstack 0
  9096  002C70                     _USART_Init:
  9097                           	callstack 29
  9098  002C70                     
  9099                           ;USART_Source_File.c: 9:     float temp;;USART_Source_File.c: 10:     TRISC6 = 0;
  9100  002C70  9C94               	bcf	3988,6,c	;volatile
  9101                           
  9102                           ;USART_Source_File.c: 11:     TRISC7 = 1;
  9103  002C72  8E94               	bsf	3988,7,c	;volatile
  9104  002C74                     
  9105                           ;USART_Source_File.c: 12:     temp = (((float)(8000000/64)/(float)baud_rate)-1);
  9106  002C74  C038  F001         	movff	USART_Init@baud_rate,___xxtofl@val
  9107  002C78  C039  F002         	movff	USART_Init@baud_rate+1,___xxtofl@val+1
  9108  002C7C  C03A  F003         	movff	USART_Init@baud_rate+2,___xxtofl@val+2
  9109  002C80  C03B  F004         	movff	USART_Init@baud_rate+3,___xxtofl@val+3
  9110  002C84  0E01               	movlw	1
  9111  002C86  EC0F  F010         	call	___xxtofl
  9112  002C8A  C001  F013         	movff	?___xxtofl,___fldiv@a
  9113  002C8E  C002  F014         	movff	?___xxtofl+1,___fldiv@a+1
  9114  002C92  C003  F015         	movff	?___xxtofl+2,___fldiv@a+2
  9115  002C96  C004  F016         	movff	?___xxtofl+3,___fldiv@a+3
  9116  002C9A  0E00               	movlw	0
  9117  002C9C  6E0F               	movwf	___fldiv@b^0,c
  9118  002C9E  0E24               	movlw	36
  9119  002CA0  6E10               	movwf	(___fldiv@b+1)^0,c
  9120  002CA2  0EF4               	movlw	244
  9121  002CA4  6E11               	movwf	(___fldiv@b+2)^0,c
  9122  002CA6  0E47               	movlw	71
  9123  002CA8  6E12               	movwf	(___fldiv@b+3)^0,c
  9124  002CAA  ECDC  F008         	call	___fldiv	;wreg free
  9125  002CAE  C00F  F028         	movff	?___fldiv,___fladd@b
  9126  002CB2  C010  F029         	movff	?___fldiv+1,___fladd@b+1
  9127  002CB6  C011  F02A         	movff	?___fldiv+2,___fladd@b+2
  9128  002CBA  C012  F02B         	movff	?___fldiv+3,___fladd@b+3
  9129  002CBE  0E00               	movlw	0
  9130  002CC0  6E2C               	movwf	___fladd@a^0,c
  9131  002CC2  0E00               	movlw	0
  9132  002CC4  6E2D               	movwf	(___fladd@a+1)^0,c
  9133  002CC6  0E80               	movlw	128
  9134  002CC8  6E2E               	movwf	(___fladd@a+2)^0,c
  9135  002CCA  0EBF               	movlw	191
  9136  002CCC  6E2F               	movwf	(___fladd@a+3)^0,c
  9137  002CCE  EC67  F004         	call	___fladd	;wreg free
  9138  002CD2  C028  F03C         	movff	?___fladd,USART_Init@temp
  9139  002CD6  C029  F03D         	movff	?___fladd+1,USART_Init@temp+1
  9140  002CDA  C02A  F03E         	movff	?___fladd+2,USART_Init@temp+2
  9141  002CDE  C02B  F03F         	movff	?___fladd+3,USART_Init@temp+3
  9142                           
  9143                           ;USART_Source_File.c: 13:     SPBRG = (int) temp;
  9144  002CE2  C03C  F028         	movff	USART_Init@temp,___fltol@f1
  9145  002CE6  C03D  F029         	movff	USART_Init@temp+1,___fltol@f1+1
  9146  002CEA  C03E  F02A         	movff	USART_Init@temp+2,___fltol@f1+2
  9147  002CEE  C03F  F02B         	movff	USART_Init@temp+3,___fltol@f1+3
  9148  002CF2  EC22  F013         	call	___fltol	;wreg free
  9149  002CF6  5028               	movf	?___fltol^0,w,c
  9150  002CF8  6EAF               	movwf	175,c	;volatile
  9151  002CFA                     
  9152                           ;USART_Source_File.c: 14:     TXSTA = 0x20;
  9153  002CFA  0E20               	movlw	32
  9154  002CFC  6EAC               	movwf	172,c	;volatile
  9155  002CFE                     
  9156                           ;USART_Source_File.c: 15:     RCSTA = 0x90;
  9157  002CFE  0E90               	movlw	144
  9158  002D00  6EAB               	movwf	171,c	;volatile
  9159  002D02  0012               	return		;funcret
  9160  002D04                     __end_of_USART_Init:
  9161                           	callstack 0
  9162                           
  9163 ;; *************** function ___xxtofl *****************
  9164 ;; Defined at:
  9165 ;;		line 10 in file "D:\mplab\pic\sources\c99\common\xxtofl.c"
  9166 ;; Parameters:    Size  Location     Type
  9167 ;;  sign            1    wreg     unsigned char 
  9168 ;;  val             4    0[COMRAM] long 
  9169 ;; Auto vars:     Size  Location     Type
  9170 ;;  sign            1    8[COMRAM] unsigned char 
  9171 ;;  arg             4   10[COMRAM] unsigned long 
  9172 ;;  exp             1    9[COMRAM] unsigned char 
  9173 ;; Return value:  Size  Location     Type
  9174 ;;                  4    0[COMRAM] unsigned char 
  9175 ;; Registers used:
  9176 ;;		wreg, status,2, status,0
  9177 ;; Tracked objects:
  9178 ;;		On entry : 0/0
  9179 ;;		On exit  : 0/0
  9180 ;;		Unchanged: 0/0
  9181 ;; Data sizes:     COMRAM   BANK0   BANK1   BANK2   BANK3   BANK4   BANK5   BANK6   BANK7
  9182 ;;      Params:         4       0       0       0       0       0       0       0       0
  9183 ;;      Locals:         6       0       0       0       0       0       0       0       0
  9184 ;;      Temps:          4       0       0       0       0       0       0       0       0
  9185 ;;      Totals:        14       0       0       0       0       0       0       0       0
  9186 ;;Total ram usage:       14 bytes
  9187 ;; Hardware stack levels used: 1
  9188 ;; This function calls:
  9189 ;;		Nothing
  9190 ;; This function is called by:
  9191 ;;		_sensor_temperatura
  9192 ;;		_USART_Init
  9193 ;; This function uses a non-reentrant model
  9194 ;;
  9195                           
  9196                           	psect	text67
  9197  00201E                     __ptext67:
  9198                           	callstack 0
  9199  00201E                     ___xxtofl:
  9200                           	callstack 28
  9201                           
  9202                           ;incstack = 0
  9203                           ;___xxtofl@sign stored from wreg
  9204  00201E  6E09               	movwf	___xxtofl@sign^0,c
  9205  002020  5009               	movf	___xxtofl@sign^0,w,c
  9206  002022  B4D8               	btfsc	status,2,c
  9207  002024  EF16  F010         	goto	u4081
  9208  002028  EF18  F010         	goto	u4080
  9209  00202C                     u4081:
  9210  00202C  EF3A  F010         	goto	l1341
  9211  002030                     u4080:
  9212  002030  BE04               	btfsc	(___xxtofl@val+3)^0,7,c
  9213  002032  EF1F  F010         	goto	u4090
  9214  002036  EF1D  F010         	goto	u4091
  9215  00203A                     u4091:
  9216  00203A  EF3A  F010         	goto	l1341
  9217  00203E                     u4090:
  9218  00203E  C001  F005         	movff	___xxtofl@val,??___xxtofl
  9219  002042  C002  F006         	movff	___xxtofl@val+1,??___xxtofl+1
  9220  002046  C003  F007         	movff	___xxtofl@val+2,??___xxtofl+2
  9221  00204A  C004  F008         	movff	___xxtofl@val+3,??___xxtofl+3
  9222  00204E  1E05               	comf	??___xxtofl^0,f,c
  9223  002050  1E06               	comf	(??___xxtofl+1)^0,f,c
  9224  002052  1E07               	comf	(??___xxtofl+2)^0,f,c
  9225  002054  1E08               	comf	(??___xxtofl+3)^0,f,c
  9226  002056  2A05               	incf	??___xxtofl^0,f,c
  9227  002058  0E00               	movlw	0
  9228  00205A  2206               	addwfc	(??___xxtofl+1)^0,f,c
  9229  00205C  2207               	addwfc	(??___xxtofl+2)^0,f,c
  9230  00205E  2208               	addwfc	(??___xxtofl+3)^0,f,c
  9231  002060  C005  F00B         	movff	??___xxtofl,___xxtofl@arg
  9232  002064  C006  F00C         	movff	??___xxtofl+1,___xxtofl@arg+1
  9233  002068  C007  F00D         	movff	??___xxtofl+2,___xxtofl@arg+2
  9234  00206C  C008  F00E         	movff	??___xxtofl+3,___xxtofl@arg+3
  9235  002070  EF42  F010         	goto	l4237
  9236  002074                     l1341:
  9237  002074  C001  F00B         	movff	___xxtofl@val,___xxtofl@arg
  9238  002078  C002  F00C         	movff	___xxtofl@val+1,___xxtofl@arg+1
  9239  00207C  C003  F00D         	movff	___xxtofl@val+2,___xxtofl@arg+2
  9240  002080  C004  F00E         	movff	___xxtofl@val+3,___xxtofl@arg+3
  9241  002084                     l4237:
  9242  002084  5001               	movf	___xxtofl@val^0,w,c
  9243  002086  1002               	iorwf	(___xxtofl@val+1)^0,w,c
  9244  002088  1003               	iorwf	(___xxtofl@val+2)^0,w,c
  9245  00208A  1004               	iorwf	(___xxtofl@val+3)^0,w,c
  9246  00208C  A4D8               	btfss	status,2,c
  9247  00208E  EF4B  F010         	goto	u4101
  9248  002092  EF4D  F010         	goto	u4100
  9249  002096                     u4101:
  9250  002096  EF57  F010         	goto	l4243
  9251  00209A                     u4100:
  9252  00209A  0E00               	movlw	0
  9253  00209C  6E01               	movwf	?___xxtofl^0,c
  9254  00209E  0E00               	movlw	0
  9255  0020A0  6E02               	movwf	(?___xxtofl+1)^0,c
  9256  0020A2  0E00               	movlw	0
  9257  0020A4  6E03               	movwf	(?___xxtofl+2)^0,c
  9258  0020A6  0E00               	movlw	0
  9259  0020A8  6E04               	movwf	(?___xxtofl+3)^0,c
  9260  0020AA  EFE8  F010         	goto	l1344
  9261  0020AE                     l4243:
  9262  0020AE  0E96               	movlw	150
  9263  0020B0  6E0A               	movwf	___xxtofl@exp^0,c
  9264  0020B2  EF61  F010         	goto	l4247
  9265  0020B6                     l4245:
  9266  0020B6  2A0A               	incf	___xxtofl@exp^0,f,c
  9267  0020B8  90D8               	bcf	status,0,c
  9268  0020BA  320E               	rrcf	(___xxtofl@arg+3)^0,f,c
  9269  0020BC  320D               	rrcf	(___xxtofl@arg+2)^0,f,c
  9270  0020BE  320C               	rrcf	(___xxtofl@arg+1)^0,f,c
  9271  0020C0  320B               	rrcf	___xxtofl@arg^0,f,c
  9272  0020C2                     l4247:
  9273  0020C2  0E00               	movlw	0
  9274  0020C4  140B               	andwf	___xxtofl@arg^0,w,c
  9275  0020C6  6E05               	movwf	??___xxtofl^0,c
  9276  0020C8  0E00               	movlw	0
  9277  0020CA  140C               	andwf	(___xxtofl@arg+1)^0,w,c
  9278  0020CC  6E06               	movwf	(??___xxtofl+1)^0,c
  9279  0020CE  0E00               	movlw	0
  9280  0020D0  140D               	andwf	(___xxtofl@arg+2)^0,w,c
  9281  0020D2  6E07               	movwf	(??___xxtofl+2)^0,c
  9282  0020D4  0EFE               	movlw	254
  9283  0020D6  140E               	andwf	(___xxtofl@arg+3)^0,w,c
  9284  0020D8  6E08               	movwf	(??___xxtofl+3)^0,c
  9285  0020DA  5005               	movf	??___xxtofl^0,w,c
  9286  0020DC  1006               	iorwf	(??___xxtofl+1)^0,w,c
  9287  0020DE  1007               	iorwf	(??___xxtofl+2)^0,w,c
  9288  0020E0  1008               	iorwf	(??___xxtofl+3)^0,w,c
  9289  0020E2  A4D8               	btfss	status,2,c
  9290  0020E4  EF76  F010         	goto	u4111
  9291  0020E8  EF78  F010         	goto	u4110
  9292  0020EC                     u4111:
  9293  0020EC  EF5B  F010         	goto	l4245
  9294  0020F0                     u4110:
  9295  0020F0  EF86  F010         	goto	l1348
  9296  0020F4                     l4249:
  9297  0020F4  2A0A               	incf	___xxtofl@exp^0,f,c
  9298  0020F6  0E01               	movlw	1
  9299  0020F8  260B               	addwf	___xxtofl@arg^0,f,c
  9300  0020FA  0E00               	movlw	0
  9301  0020FC  220C               	addwfc	(___xxtofl@arg+1)^0,f,c
  9302  0020FE  220D               	addwfc	(___xxtofl@arg+2)^0,f,c
  9303  002100  220E               	addwfc	(___xxtofl@arg+3)^0,f,c
  9304  002102  90D8               	bcf	status,0,c
  9305  002104  320E               	rrcf	(___xxtofl@arg+3)^0,f,c
  9306  002106  320D               	rrcf	(___xxtofl@arg+2)^0,f,c
  9307  002108  320C               	rrcf	(___xxtofl@arg+1)^0,f,c
  9308  00210A  320B               	rrcf	___xxtofl@arg^0,f,c
  9309  00210C                     l1348:
  9310  00210C  0E00               	movlw	0
  9311  00210E  140B               	andwf	___xxtofl@arg^0,w,c
  9312  002110  6E05               	movwf	??___xxtofl^0,c
  9313  002112  0E00               	movlw	0
  9314  002114  140C               	andwf	(___xxtofl@arg+1)^0,w,c
  9315  002116  6E06               	movwf	(??___xxtofl+1)^0,c
  9316  002118  0E00               	movlw	0
  9317  00211A  140D               	andwf	(___xxtofl@arg+2)^0,w,c
  9318  00211C  6E07               	movwf	(??___xxtofl+2)^0,c
  9319  00211E  0EFF               	movlw	255
  9320  002120  140E               	andwf	(___xxtofl@arg+3)^0,w,c
  9321  002122  6E08               	movwf	(??___xxtofl+3)^0,c
  9322  002124  5005               	movf	??___xxtofl^0,w,c
  9323  002126  1006               	iorwf	(??___xxtofl+1)^0,w,c
  9324  002128  1007               	iorwf	(??___xxtofl+2)^0,w,c
  9325  00212A  1008               	iorwf	(??___xxtofl+3)^0,w,c
  9326  00212C  A4D8               	btfss	status,2,c
  9327  00212E  EF9B  F010         	goto	u4121
  9328  002132  EF9D  F010         	goto	u4120
  9329  002136                     u4121:
  9330  002136  EF7A  F010         	goto	l4249
  9331  00213A                     u4120:
  9332  00213A  EFA5  F010         	goto	l4257
  9333  00213E                     l4255:
  9334  00213E  060A               	decf	___xxtofl@exp^0,f,c
  9335  002140  90D8               	bcf	status,0,c
  9336  002142  360B               	rlcf	___xxtofl@arg^0,f,c
  9337  002144  360C               	rlcf	(___xxtofl@arg+1)^0,f,c
  9338  002146  360D               	rlcf	(___xxtofl@arg+2)^0,f,c
  9339  002148  360E               	rlcf	(___xxtofl@arg+3)^0,f,c
  9340  00214A                     l4257:
  9341  00214A  BE0D               	btfsc	(___xxtofl@arg+2)^0,7,c
  9342  00214C  EFAA  F010         	goto	u4131
  9343  002150  EFAC  F010         	goto	u4130
  9344  002154                     u4131:
  9345  002154  EFB4  F010         	goto	l1355
  9346  002158                     u4130:
  9347  002158  0E02               	movlw	2
  9348  00215A  600A               	cpfslt	___xxtofl@exp^0,c
  9349  00215C  EFB2  F010         	goto	u4141
  9350  002160  EFB4  F010         	goto	u4140
  9351  002164                     u4141:
  9352  002164  EF9F  F010         	goto	l4255
  9353  002168                     u4140:
  9354  002168                     l1355:
  9355  002168  B00A               	btfsc	___xxtofl@exp^0,0,c
  9356  00216A  EFB9  F010         	goto	u4151
  9357  00216E  EFBB  F010         	goto	u4150
  9358  002172                     u4151:
  9359  002172  EFBC  F010         	goto	l4263
  9360  002176                     u4150:
  9361  002176  9E0D               	bcf	(___xxtofl@arg+2)^0,7,c
  9362  002178                     l4263:
  9363  002178  90D8               	bcf	status,0,c
  9364  00217A  320A               	rrcf	___xxtofl@exp^0,f,c
  9365  00217C  C00A  F005         	movff	___xxtofl@exp,??___xxtofl
  9366  002180  6A06               	clrf	(??___xxtofl+1)^0,c
  9367  002182  6A07               	clrf	(??___xxtofl+2)^0,c
  9368  002184  6A08               	clrf	(??___xxtofl+3)^0,c
  9369  002186  C005  F008         	movff	??___xxtofl,??___xxtofl+3
  9370  00218A  6A07               	clrf	(??___xxtofl+2)^0,c
  9371  00218C  6A06               	clrf	(??___xxtofl+1)^0,c
  9372  00218E  6A05               	clrf	??___xxtofl^0,c
  9373  002190  5005               	movf	??___xxtofl^0,w,c
  9374  002192  120B               	iorwf	___xxtofl@arg^0,f,c
  9375  002194  5006               	movf	(??___xxtofl+1)^0,w,c
  9376  002196  120C               	iorwf	(___xxtofl@arg+1)^0,f,c
  9377  002198  5007               	movf	(??___xxtofl+2)^0,w,c
  9378  00219A  120D               	iorwf	(___xxtofl@arg+2)^0,f,c
  9379  00219C  5008               	movf	(??___xxtofl+3)^0,w,c
  9380  00219E  120E               	iorwf	(___xxtofl@arg+3)^0,f,c
  9381  0021A0  5009               	movf	___xxtofl@sign^0,w,c
  9382  0021A2  B4D8               	btfsc	status,2,c
  9383  0021A4  EFD6  F010         	goto	u4161
  9384  0021A8  EFD8  F010         	goto	u4160
  9385  0021AC                     u4161:
  9386  0021AC  EFE0  F010         	goto	l4273
  9387  0021B0                     u4160:
  9388  0021B0  BE04               	btfsc	(___xxtofl@val+3)^0,7,c
  9389  0021B2  EFDF  F010         	goto	u4170
  9390  0021B6  EFDD  F010         	goto	u4171
  9391  0021BA                     u4171:
  9392  0021BA  EFE0  F010         	goto	l4273
  9393  0021BE                     u4170:
  9394  0021BE  8E0E               	bsf	(___xxtofl@arg+3)^0,7,c
  9395  0021C0                     l4273:
  9396  0021C0  C00B  F001         	movff	___xxtofl@arg,?___xxtofl
  9397  0021C4  C00C  F002         	movff	___xxtofl@arg+1,?___xxtofl+1
  9398  0021C8  C00D  F003         	movff	___xxtofl@arg+2,?___xxtofl+2
  9399  0021CC  C00E  F004         	movff	___xxtofl@arg+3,?___xxtofl+3
  9400  0021D0                     l1344:
  9401  0021D0  0012               	return		;funcret
  9402  0021D2                     __end_of___xxtofl:
  9403                           	callstack 0
  9404                           
  9405 ;; *************** function ___fltol *****************
  9406 ;; Defined at:
  9407 ;;		line 43 in file "D:\mplab\pic\sources\c99\common\fltol.c"
  9408 ;; Parameters:    Size  Location     Type
  9409 ;;  f1              4   39[COMRAM] unsigned char 
  9410 ;; Auto vars:     Size  Location     Type
  9411 ;;  exp1            1   48[COMRAM] unsigned char 
  9412 ;;  sign1           1   47[COMRAM] unsigned char 
  9413 ;; Return value:  Size  Location     Type
  9414 ;;                  4   39[COMRAM] long 
  9415 ;; Registers used:
  9416 ;;		wreg, status,2, status,0
  9417 ;; Tracked objects:
  9418 ;;		On entry : 0/0
  9419 ;;		On exit  : 0/0
  9420 ;;		Unchanged: 0/0
  9421 ;; Data sizes:     COMRAM   BANK0   BANK1   BANK2   BANK3   BANK4   BANK5   BANK6   BANK7
  9422 ;;      Params:         4       0       0       0       0       0       0       0       0
  9423 ;;      Locals:         2       0       0       0       0       0       0       0       0
  9424 ;;      Temps:          4       0       0       0       0       0       0       0       0
  9425 ;;      Totals:        10       0       0       0       0       0       0       0       0
  9426 ;;Total ram usage:       10 bytes
  9427 ;; Hardware stack levels used: 1
  9428 ;; This function calls:
  9429 ;;		Nothing
  9430 ;; This function is called by:
  9431 ;;		_sensor_temperatura
  9432 ;;		_USART_Init
  9433 ;; This function uses a non-reentrant model
  9434 ;;
  9435                           
  9436                           	psect	text68
  9437  002644                     __ptext68:
  9438                           	callstack 0
  9439  002644                     ___fltol:
  9440                           	callstack 28
  9441  002644  342A               	rlcf	(___fltol@f1+2)^0,w,c
  9442  002646  342B               	rlcf	(___fltol@f1+3)^0,w,c
  9443  002648  6E31               	movwf	___fltol@exp1^0,c
  9444  00264A  5031               	movf	___fltol@exp1^0,w,c
  9445  00264C  A4D8               	btfss	status,2,c
  9446  00264E  EF2B  F013         	goto	u3981
  9447  002652  EF2D  F013         	goto	u3980
  9448  002656                     u3981:
  9449  002656  EF37  F013         	goto	l4171
  9450  00265A                     u3980:
  9451  00265A                     l4167:
  9452  00265A  0E00               	movlw	0
  9453  00265C  6E28               	movwf	?___fltol^0,c
  9454  00265E  0E00               	movlw	0
  9455  002660  6E29               	movwf	(?___fltol+1)^0,c
  9456  002662  0E00               	movlw	0
  9457  002664  6E2A               	movwf	(?___fltol+2)^0,c
  9458  002666  0E00               	movlw	0
  9459  002668  6E2B               	movwf	(?___fltol+3)^0,c
  9460  00266A  EFA4  F013         	goto	l983
  9461  00266E                     l4171:
  9462  00266E  C028  F02C         	movff	___fltol@f1,??___fltol
  9463  002672  C029  F02D         	movff	___fltol@f1+1,??___fltol+1
  9464  002676  C02A  F02E         	movff	___fltol@f1+2,??___fltol+2
  9465  00267A  C02B  F02F         	movff	___fltol@f1+3,??___fltol+3
  9466  00267E  0E20               	movlw	32
  9467  002680  EF47  F013         	goto	u3990
  9468  002684                     u3995:
  9469  002684  90D8               	bcf	status,0,c
  9470  002686  322F               	rrcf	(??___fltol+3)^0,f,c
  9471  002688  322E               	rrcf	(??___fltol+2)^0,f,c
  9472  00268A  322D               	rrcf	(??___fltol+1)^0,f,c
  9473  00268C  322C               	rrcf	??___fltol^0,f,c
  9474  00268E                     u3990:
  9475  00268E  2EE8               	decfsz	wreg,f,c
  9476  002690  EF42  F013         	goto	u3995
  9477  002694  502C               	movf	??___fltol^0,w,c
  9478  002696  6E30               	movwf	___fltol@sign1^0,c
  9479  002698  8E2A               	bsf	(___fltol@f1+2)^0,7,c
  9480  00269A  0EFF               	movlw	255
  9481  00269C  1628               	andwf	___fltol@f1^0,f,c
  9482  00269E  0EFF               	movlw	255
  9483  0026A0  1629               	andwf	(___fltol@f1+1)^0,f,c
  9484  0026A2  0EFF               	movlw	255
  9485  0026A4  162A               	andwf	(___fltol@f1+2)^0,f,c
  9486  0026A6  0E00               	movlw	0
  9487  0026A8  162B               	andwf	(___fltol@f1+3)^0,f,c
  9488  0026AA  0E96               	movlw	150
  9489  0026AC  5E31               	subwf	___fltol@exp1^0,f,c
  9490  0026AE  BE31               	btfsc	___fltol@exp1^0,7,c
  9491  0026B0  EF5E  F013         	goto	u4000
  9492  0026B4  EF5C  F013         	goto	u4001
  9493  0026B8                     u4001:
  9494  0026B8  EF74  F013         	goto	l4191
  9495  0026BC                     u4000:
  9496  0026BC  5031               	movf	___fltol@exp1^0,w,c
  9497  0026BE  0A80               	xorlw	128
  9498  0026C0  0F97               	addlw	151
  9499  0026C2  B0D8               	btfsc	status,0,c
  9500  0026C4  EF66  F013         	goto	u4011
  9501  0026C8  EF68  F013         	goto	u4010
  9502  0026CC                     u4011:
  9503  0026CC  EF6A  F013         	goto	l4187
  9504  0026D0                     u4010:
  9505  0026D0  EF2D  F013         	goto	l4167
  9506  0026D4                     l4187:
  9507  0026D4  90D8               	bcf	status,0,c
  9508  0026D6  322B               	rrcf	(___fltol@f1+3)^0,f,c
  9509  0026D8  322A               	rrcf	(___fltol@f1+2)^0,f,c
  9510  0026DA  3229               	rrcf	(___fltol@f1+1)^0,f,c
  9511  0026DC  3228               	rrcf	___fltol@f1^0,f,c
  9512  0026DE  3E31               	incfsz	___fltol@exp1^0,f,c
  9513  0026E0  EF6A  F013         	goto	l4187
  9514  0026E4  EF8C  F013         	goto	l4201
  9515  0026E8                     l4191:
  9516  0026E8  0E1F               	movlw	31
  9517  0026EA  6431               	cpfsgt	___fltol@exp1^0,c
  9518  0026EC  EF7A  F013         	goto	u4021
  9519  0026F0  EF7C  F013         	goto	u4020
  9520  0026F4                     u4021:
  9521  0026F4  EF84  F013         	goto	l4199
  9522  0026F8                     u4020:
  9523  0026F8  EF2D  F013         	goto	l4167
  9524  0026FC                     l4197:
  9525  0026FC  90D8               	bcf	status,0,c
  9526  0026FE  3628               	rlcf	___fltol@f1^0,f,c
  9527  002700  3629               	rlcf	(___fltol@f1+1)^0,f,c
  9528  002702  362A               	rlcf	(___fltol@f1+2)^0,f,c
  9529  002704  362B               	rlcf	(___fltol@f1+3)^0,f,c
  9530  002706  0631               	decf	___fltol@exp1^0,f,c
  9531  002708                     l4199:
  9532  002708  5031               	movf	___fltol@exp1^0,w,c
  9533  00270A  A4D8               	btfss	status,2,c
  9534  00270C  EF8A  F013         	goto	u4031
  9535  002710  EF8C  F013         	goto	u4030
  9536  002714                     u4031:
  9537  002714  EF7E  F013         	goto	l4197
  9538  002718                     u4030:
  9539  002718                     l4201:
  9540  002718  5030               	movf	___fltol@sign1^0,w,c
  9541  00271A  B4D8               	btfsc	status,2,c
  9542  00271C  EF92  F013         	goto	u4041
  9543  002720  EF94  F013         	goto	u4040
  9544  002724                     u4041:
  9545  002724  EF9C  F013         	goto	l4205
  9546  002728                     u4040:
  9547  002728  1E2B               	comf	(___fltol@f1+3)^0,f,c
  9548  00272A  1E2A               	comf	(___fltol@f1+2)^0,f,c
  9549  00272C  1E29               	comf	(___fltol@f1+1)^0,f,c
  9550  00272E  6C28               	negf	___fltol@f1^0,c
  9551  002730  0E00               	movlw	0
  9552  002732  2229               	addwfc	(___fltol@f1+1)^0,f,c
  9553  002734  222A               	addwfc	(___fltol@f1+2)^0,f,c
  9554  002736  222B               	addwfc	(___fltol@f1+3)^0,f,c
  9555  002738                     l4205:
  9556  002738  C028  F028         	movff	___fltol@f1,?___fltol
  9557  00273C  C029  F029         	movff	___fltol@f1+1,?___fltol+1
  9558  002740  C02A  F02A         	movff	___fltol@f1+2,?___fltol+2
  9559  002744  C02B  F02B         	movff	___fltol@f1+3,?___fltol+3
  9560  002748                     l983:
  9561  002748  0012               	return		;funcret
  9562  00274A                     __end_of___fltol:
  9563                           	callstack 0
  9564                           
  9565 ;; *************** function ___fldiv *****************
  9566 ;; Defined at:
  9567 ;;		line 11 in file "D:\mplab\pic\sources\c99\common\sprcdiv.c"
  9568 ;; Parameters:    Size  Location     Type
  9569 ;;  b               4   14[COMRAM] long 
  9570 ;;  a               4   18[COMRAM] long 
  9571 ;; Auto vars:     Size  Location     Type
  9572 ;;  grs             4   33[COMRAM] unsigned long 
  9573 ;;  rem             4   26[COMRAM] unsigned long 
  9574 ;;  new_exp         2   31[COMRAM] short 
  9575 ;;  aexp            1   38[COMRAM] unsigned char 
  9576 ;;  bexp            1   37[COMRAM] unsigned char 
  9577 ;;  sign            1   30[COMRAM] unsigned char 
  9578 ;; Return value:  Size  Location     Type
  9579 ;;                  4   14[COMRAM] unsigned char 
  9580 ;; Registers used:
  9581 ;;		wreg, status,2, status,0
  9582 ;; Tracked objects:
  9583 ;;		On entry : 0/0
  9584 ;;		On exit  : 0/0
  9585 ;;		Unchanged: 0/0
  9586 ;; Data sizes:     COMRAM   BANK0   BANK1   BANK2   BANK3   BANK4   BANK5   BANK6   BANK7
  9587 ;;      Params:         8       0       0       0       0       0       0       0       0
  9588 ;;      Locals:        13       0       0       0       0       0       0       0       0
  9589 ;;      Temps:          4       0       0       0       0       0       0       0       0
  9590 ;;      Totals:        25       0       0       0       0       0       0       0       0
  9591 ;;Total ram usage:       25 bytes
  9592 ;; Hardware stack levels used: 1
  9593 ;; This function calls:
  9594 ;;		Nothing
  9595 ;; This function is called by:
  9596 ;;		_USART_Init
  9597 ;; This function uses a non-reentrant model
  9598 ;;
  9599                           
  9600                           	psect	text69
  9601  0011B8                     __ptext69:
  9602                           	callstack 0
  9603  0011B8                     ___fldiv:
  9604                           	callstack 29
  9605  0011B8  5012               	movf	(___fldiv@b+3)^0,w,c
  9606  0011BA  0B80               	andlw	128
  9607  0011BC  6E1F               	movwf	___fldiv@sign^0,c
  9608  0011BE  5012               	movf	(___fldiv@b+3)^0,w,c
  9609  0011C0  2412               	addwf	(___fldiv@b+3)^0,w,c
  9610  0011C2  6E26               	movwf	___fldiv@bexp^0,c
  9611  0011C4  AE11               	btfss	(___fldiv@b+2)^0,7,c
  9612  0011C6  EFE7  F008         	goto	u4871
  9613  0011CA  EFE9  F008         	goto	u4870
  9614  0011CE                     u4871:
  9615  0011CE  EFEA  F008         	goto	l4695
  9616  0011D2                     u4870:
  9617  0011D2  8026               	bsf	___fldiv@bexp^0,0,c
  9618  0011D4                     l4695:
  9619  0011D4  5026               	movf	___fldiv@bexp^0,w,c
  9620  0011D6  B4D8               	btfsc	status,2,c
  9621  0011D8  EFF0  F008         	goto	u4881
  9622  0011DC  EFF2  F008         	goto	u4880
  9623  0011E0                     u4881:
  9624  0011E0  EF07  F009         	goto	l4705
  9625  0011E4                     u4880:
  9626  0011E4  2826               	incf	___fldiv@bexp^0,w,c
  9627  0011E6  A4D8               	btfss	status,2,c
  9628  0011E8  EFF8  F008         	goto	u4891
  9629  0011EC  EFFA  F008         	goto	u4890
  9630  0011F0                     u4891:
  9631  0011F0  EF02  F009         	goto	l4701
  9632  0011F4                     u4890:
  9633  0011F4  0E00               	movlw	0
  9634  0011F6  6E0F               	movwf	___fldiv@b^0,c
  9635  0011F8  0E00               	movlw	0
  9636  0011FA  6E10               	movwf	(___fldiv@b+1)^0,c
  9637  0011FC  0E00               	movlw	0
  9638  0011FE  6E11               	movwf	(___fldiv@b+2)^0,c
  9639  001200  0E00               	movlw	0
  9640  001202  6E12               	movwf	(___fldiv@b+3)^0,c
  9641  001204                     l4701:
  9642  001204  8E11               	bsf	(___fldiv@b+2)^0,7,c
  9643  001206  0E00               	movlw	0
  9644  001208  6E12               	movwf	(___fldiv@b+3)^0,c
  9645  00120A  EF0F  F009         	goto	l4707
  9646  00120E                     l4705:
  9647  00120E  0E00               	movlw	0
  9648  001210  6E0F               	movwf	___fldiv@b^0,c
  9649  001212  0E00               	movlw	0
  9650  001214  6E10               	movwf	(___fldiv@b+1)^0,c
  9651  001216  0E00               	movlw	0
  9652  001218  6E11               	movwf	(___fldiv@b+2)^0,c
  9653  00121A  0E00               	movlw	0
  9654  00121C  6E12               	movwf	(___fldiv@b+3)^0,c
  9655  00121E                     l4707:
  9656  00121E  5016               	movf	(___fldiv@a+3)^0,w,c
  9657  001220  0B80               	andlw	128
  9658  001222  1A1F               	xorwf	___fldiv@sign^0,f,c
  9659  001224  5016               	movf	(___fldiv@a+3)^0,w,c
  9660  001226  2416               	addwf	(___fldiv@a+3)^0,w,c
  9661  001228  6E27               	movwf	___fldiv@aexp^0,c
  9662  00122A  AE15               	btfss	(___fldiv@a+2)^0,7,c
  9663  00122C  EF1A  F009         	goto	u4901
  9664  001230  EF1C  F009         	goto	u4900
  9665  001234                     u4901:
  9666  001234  EF1D  F009         	goto	l4715
  9667  001238                     u4900:
  9668  001238  8027               	bsf	___fldiv@aexp^0,0,c
  9669  00123A                     l4715:
  9670  00123A  5027               	movf	___fldiv@aexp^0,w,c
  9671  00123C  B4D8               	btfsc	status,2,c
  9672  00123E  EF23  F009         	goto	u4911
  9673  001242  EF25  F009         	goto	u4910
  9674  001246                     u4911:
  9675  001246  EF3A  F009         	goto	l4725
  9676  00124A                     u4910:
  9677  00124A  2827               	incf	___fldiv@aexp^0,w,c
  9678  00124C  A4D8               	btfss	status,2,c
  9679  00124E  EF2B  F009         	goto	u4921
  9680  001252  EF2D  F009         	goto	u4920
  9681  001256                     u4921:
  9682  001256  EF35  F009         	goto	l4721
  9683  00125A                     u4920:
  9684  00125A  0E00               	movlw	0
  9685  00125C  6E13               	movwf	___fldiv@a^0,c
  9686  00125E  0E00               	movlw	0
  9687  001260  6E14               	movwf	(___fldiv@a+1)^0,c
  9688  001262  0E00               	movlw	0
  9689  001264  6E15               	movwf	(___fldiv@a+2)^0,c
  9690  001266  0E00               	movlw	0
  9691  001268  6E16               	movwf	(___fldiv@a+3)^0,c
  9692  00126A                     l4721:
  9693  00126A  8E15               	bsf	(___fldiv@a+2)^0,7,c
  9694  00126C  0E00               	movlw	0
  9695  00126E  6E16               	movwf	(___fldiv@a+3)^0,c
  9696  001270  EF42  F009         	goto	l4727
  9697  001274                     l4725:
  9698  001274  0E00               	movlw	0
  9699  001276  6E13               	movwf	___fldiv@a^0,c
  9700  001278  0E00               	movlw	0
  9701  00127A  6E14               	movwf	(___fldiv@a+1)^0,c
  9702  00127C  0E00               	movlw	0
  9703  00127E  6E15               	movwf	(___fldiv@a+2)^0,c
  9704  001280  0E00               	movlw	0
  9705  001282  6E16               	movwf	(___fldiv@a+3)^0,c
  9706  001284                     l4727:
  9707  001284  5013               	movf	___fldiv@a^0,w,c
  9708  001286  1014               	iorwf	(___fldiv@a+1)^0,w,c
  9709  001288  1015               	iorwf	(___fldiv@a+2)^0,w,c
  9710  00128A  1016               	iorwf	(___fldiv@a+3)^0,w,c
  9711  00128C  A4D8               	btfss	status,2,c
  9712  00128E  EF4B  F009         	goto	u4931
  9713  001292  EF4D  F009         	goto	u4930
  9714  001296                     u4931:
  9715  001296  EF65  F009         	goto	l4739
  9716  00129A                     u4930:
  9717  00129A  0E00               	movlw	0
  9718  00129C  6E0F               	movwf	___fldiv@b^0,c
  9719  00129E  0E00               	movlw	0
  9720  0012A0  6E10               	movwf	(___fldiv@b+1)^0,c
  9721  0012A2  0E00               	movlw	0
  9722  0012A4  6E11               	movwf	(___fldiv@b+2)^0,c
  9723  0012A6  0E00               	movlw	0
  9724  0012A8  6E12               	movwf	(___fldiv@b+3)^0,c
  9725  0012AA  0E80               	movlw	128
  9726  0012AC  1211               	iorwf	(___fldiv@b+2)^0,f,c
  9727  0012AE  0E7F               	movlw	127
  9728  0012B0  1212               	iorwf	(___fldiv@b+3)^0,f,c
  9729  0012B2                     l4733:
  9730  0012B2  501F               	movf	___fldiv@sign^0,w,c
  9731  0012B4  1212               	iorwf	(___fldiv@b+3)^0,f,c
  9732  0012B6  C00F  F00F         	movff	___fldiv@b,?___fldiv
  9733  0012BA  C010  F010         	movff	___fldiv@b+1,?___fldiv+1
  9734  0012BE  C011  F011         	movff	___fldiv@b+2,?___fldiv+2
  9735  0012C2  C012  F012         	movff	___fldiv@b+3,?___fldiv+3
  9736  0012C6  EFA8  F00A         	goto	l1268
  9737  0012CA                     l4739:
  9738  0012CA  5026               	movf	___fldiv@bexp^0,w,c
  9739  0012CC  A4D8               	btfss	status,2,c
  9740  0012CE  EF6B  F009         	goto	u4941
  9741  0012D2  EF6D  F009         	goto	u4940
  9742  0012D6                     u4941:
  9743  0012D6  EF77  F009         	goto	l4747
  9744  0012DA                     u4940:
  9745  0012DA  0E00               	movlw	0
  9746  0012DC  6E0F               	movwf	?___fldiv^0,c
  9747  0012DE  0E00               	movlw	0
  9748  0012E0  6E10               	movwf	(?___fldiv+1)^0,c
  9749  0012E2  0E00               	movlw	0
  9750  0012E4  6E11               	movwf	(?___fldiv+2)^0,c
  9751  0012E6  0E00               	movlw	0
  9752  0012E8  6E12               	movwf	(?___fldiv+3)^0,c
  9753  0012EA  EFA8  F00A         	goto	l1268
  9754  0012EE                     l4747:
  9755  0012EE  5027               	movf	___fldiv@aexp^0,w,c
  9756  0012F0  C026  F017         	movff	___fldiv@bexp,??___fldiv
  9757  0012F4  6A18               	clrf	(??___fldiv+1)^0,c
  9758  0012F6  5E17               	subwf	??___fldiv^0,f,c
  9759  0012F8  0E00               	movlw	0
  9760  0012FA  5A18               	subwfb	(??___fldiv+1)^0,f,c
  9761  0012FC  0E7F               	movlw	127
  9762  0012FE  2417               	addwf	??___fldiv^0,w,c
  9763  001300  6E20               	movwf	___fldiv@new_exp^0,c
  9764  001302  0E00               	movlw	0
  9765  001304  2018               	addwfc	(??___fldiv+1)^0,w,c
  9766  001306  6E21               	movwf	(___fldiv@new_exp+1)^0,c
  9767  001308  C00F  F01B         	movff	___fldiv@b,___fldiv@rem
  9768  00130C  C010  F01C         	movff	___fldiv@b+1,___fldiv@rem+1
  9769  001310  C011  F01D         	movff	___fldiv@b+2,___fldiv@rem+2
  9770  001314  C012  F01E         	movff	___fldiv@b+3,___fldiv@rem+3
  9771  001318  0E00               	movlw	0
  9772  00131A  6E0F               	movwf	___fldiv@b^0,c
  9773  00131C  0E00               	movlw	0
  9774  00131E  6E10               	movwf	(___fldiv@b+1)^0,c
  9775  001320  0E00               	movlw	0
  9776  001322  6E11               	movwf	(___fldiv@b+2)^0,c
  9777  001324  0E00               	movlw	0
  9778  001326  6E12               	movwf	(___fldiv@b+3)^0,c
  9779  001328  0E00               	movlw	0
  9780  00132A  6E22               	movwf	___fldiv@grs^0,c
  9781  00132C  0E00               	movlw	0
  9782  00132E  6E23               	movwf	(___fldiv@grs+1)^0,c
  9783  001330  0E00               	movlw	0
  9784  001332  6E24               	movwf	(___fldiv@grs+2)^0,c
  9785  001334  0E00               	movlw	0
  9786  001336  6E25               	movwf	(___fldiv@grs+3)^0,c
  9787  001338  0E00               	movlw	0
  9788  00133A  6E27               	movwf	___fldiv@aexp^0,c
  9789  00133C  EFD8  F009         	goto	l1270
  9790  001340                     l4757:
  9791  001340  5027               	movf	___fldiv@aexp^0,w,c
  9792  001342  B4D8               	btfsc	status,2,c
  9793  001344  EFA6  F009         	goto	u4951
  9794  001348  EFA8  F009         	goto	u4950
  9795  00134C                     u4951:
  9796  00134C  EFBF  F009         	goto	l4765
  9797  001350                     u4950:
  9798  001350  90D8               	bcf	status,0,c
  9799  001352  361B               	rlcf	___fldiv@rem^0,f,c
  9800  001354  361C               	rlcf	(___fldiv@rem+1)^0,f,c
  9801  001356  361D               	rlcf	(___fldiv@rem+2)^0,f,c
  9802  001358  361E               	rlcf	(___fldiv@rem+3)^0,f,c
  9803  00135A  90D8               	bcf	status,0,c
  9804  00135C  360F               	rlcf	___fldiv@b^0,f,c
  9805  00135E  3610               	rlcf	(___fldiv@b+1)^0,f,c
  9806  001360  3611               	rlcf	(___fldiv@b+2)^0,f,c
  9807  001362  3612               	rlcf	(___fldiv@b+3)^0,f,c
  9808  001364  AE25               	btfss	(___fldiv@grs+3)^0,7,c
  9809  001366  EFB7  F009         	goto	u4961
  9810  00136A  EFB9  F009         	goto	u4960
  9811  00136E                     u4961:
  9812  00136E  EFBA  F009         	goto	l1273
  9813  001372                     u4960:
  9814  001372  800F               	bsf	___fldiv@b^0,0,c
  9815  001374                     l1273:
  9816  001374  90D8               	bcf	status,0,c
  9817  001376  3622               	rlcf	___fldiv@grs^0,f,c
  9818  001378  3623               	rlcf	(___fldiv@grs+1)^0,f,c
  9819  00137A  3624               	rlcf	(___fldiv@grs+2)^0,f,c
  9820  00137C  3625               	rlcf	(___fldiv@grs+3)^0,f,c
  9821  00137E                     l4765:
  9822  00137E  5013               	movf	___fldiv@a^0,w,c
  9823  001380  5C1B               	subwf	___fldiv@rem^0,w,c
  9824  001382  5014               	movf	(___fldiv@a+1)^0,w,c
  9825  001384  581C               	subwfb	(___fldiv@rem+1)^0,w,c
  9826  001386  5015               	movf	(___fldiv@a+2)^0,w,c
  9827  001388  581D               	subwfb	(___fldiv@rem+2)^0,w,c
  9828  00138A  5016               	movf	(___fldiv@a+3)^0,w,c
  9829  00138C  581E               	subwfb	(___fldiv@rem+3)^0,w,c
  9830  00138E  A0D8               	btfss	status,0,c
  9831  001390  EFCC  F009         	goto	u4971
  9832  001394  EFCE  F009         	goto	u4970
  9833  001398                     u4971:
  9834  001398  EFD7  F009         	goto	l4771
  9835  00139C                     u4970:
  9836  00139C  8C25               	bsf	(___fldiv@grs+3)^0,6,c
  9837  00139E  5013               	movf	___fldiv@a^0,w,c
  9838  0013A0  5E1B               	subwf	___fldiv@rem^0,f,c
  9839  0013A2  5014               	movf	(___fldiv@a+1)^0,w,c
  9840  0013A4  5A1C               	subwfb	(___fldiv@rem+1)^0,f,c
  9841  0013A6  5015               	movf	(___fldiv@a+2)^0,w,c
  9842  0013A8  5A1D               	subwfb	(___fldiv@rem+2)^0,f,c
  9843  0013AA  5016               	movf	(___fldiv@a+3)^0,w,c
  9844  0013AC  5A1E               	subwfb	(___fldiv@rem+3)^0,f,c
  9845  0013AE                     l4771:
  9846  0013AE  2A27               	incf	___fldiv@aexp^0,f,c
  9847  0013B0                     l1270:
  9848  0013B0  0E19               	movlw	25
  9849  0013B2  6427               	cpfsgt	___fldiv@aexp^0,c
  9850  0013B4  EFDE  F009         	goto	u4981
  9851  0013B8  EFE0  F009         	goto	u4980
  9852  0013BC                     u4981:
  9853  0013BC  EFA0  F009         	goto	l4757
  9854  0013C0                     u4980:
  9855  0013C0  501B               	movf	___fldiv@rem^0,w,c
  9856  0013C2  101C               	iorwf	(___fldiv@rem+1)^0,w,c
  9857  0013C4  101D               	iorwf	(___fldiv@rem+2)^0,w,c
  9858  0013C6  101E               	iorwf	(___fldiv@rem+3)^0,w,c
  9859  0013C8  B4D8               	btfsc	status,2,c
  9860  0013CA  EFE9  F009         	goto	u4991
  9861  0013CE  EFEB  F009         	goto	u4990
  9862  0013D2                     u4991:
  9863  0013D2  EF03  F00A         	goto	l4783
  9864  0013D6                     u4990:
  9865  0013D6  8022               	bsf	___fldiv@grs^0,0,c
  9866  0013D8  EF03  F00A         	goto	l4783
  9867  0013DC                     l4777:
  9868  0013DC  90D8               	bcf	status,0,c
  9869  0013DE  360F               	rlcf	___fldiv@b^0,f,c
  9870  0013E0  3610               	rlcf	(___fldiv@b+1)^0,f,c
  9871  0013E2  3611               	rlcf	(___fldiv@b+2)^0,f,c
  9872  0013E4  3612               	rlcf	(___fldiv@b+3)^0,f,c
  9873  0013E6  AE25               	btfss	(___fldiv@grs+3)^0,7,c
  9874  0013E8  EFF8  F009         	goto	u5001
  9875  0013EC  EFFA  F009         	goto	u5000
  9876  0013F0                     u5001:
  9877  0013F0  EFFB  F009         	goto	l1279
  9878  0013F4                     u5000:
  9879  0013F4  800F               	bsf	___fldiv@b^0,0,c
  9880  0013F6                     l1279:
  9881  0013F6  90D8               	bcf	status,0,c
  9882  0013F8  3622               	rlcf	___fldiv@grs^0,f,c
  9883  0013FA  3623               	rlcf	(___fldiv@grs+1)^0,f,c
  9884  0013FC  3624               	rlcf	(___fldiv@grs+2)^0,f,c
  9885  0013FE  3625               	rlcf	(___fldiv@grs+3)^0,f,c
  9886  001400  0620               	decf	___fldiv@new_exp^0,f,c
  9887  001402  A0D8               	btfss	status,0,c
  9888  001404  0621               	decf	(___fldiv@new_exp+1)^0,f,c
  9889  001406                     l4783:
  9890  001406  AE11               	btfss	(___fldiv@b+2)^0,7,c
  9891  001408  EF08  F00A         	goto	u5011
  9892  00140C  EF0A  F00A         	goto	u5010
  9893  001410                     u5011:
  9894  001410  EFEE  F009         	goto	l4777
  9895  001414                     u5010:
  9896  001414  0E00               	movlw	0
  9897  001416  6E27               	movwf	___fldiv@aexp^0,c
  9898  001418  AE25               	btfss	(___fldiv@grs+3)^0,7,c
  9899  00141A  EF11  F00A         	goto	u5021
  9900  00141E  EF13  F00A         	goto	u5020
  9901  001422                     u5021:
  9902  001422  EF37  F00A         	goto	l1281
  9903  001426                     u5020:
  9904  001426  0EFF               	movlw	255
  9905  001428  1422               	andwf	___fldiv@grs^0,w,c
  9906  00142A  6E17               	movwf	??___fldiv^0,c
  9907  00142C  0EFF               	movlw	255
  9908  00142E  1423               	andwf	(___fldiv@grs+1)^0,w,c
  9909  001430  6E18               	movwf	(??___fldiv+1)^0,c
  9910  001432  0EFF               	movlw	255
  9911  001434  1424               	andwf	(___fldiv@grs+2)^0,w,c
  9912  001436  6E19               	movwf	(??___fldiv+2)^0,c
  9913  001438  0E7F               	movlw	127
  9914  00143A  1425               	andwf	(___fldiv@grs+3)^0,w,c
  9915  00143C  6E1A               	movwf	(??___fldiv+3)^0,c
  9916  00143E  5017               	movf	??___fldiv^0,w,c
  9917  001440  1018               	iorwf	(??___fldiv+1)^0,w,c
  9918  001442  1019               	iorwf	(??___fldiv+2)^0,w,c
  9919  001444  101A               	iorwf	(??___fldiv+3)^0,w,c
  9920  001446  B4D8               	btfsc	status,2,c
  9921  001448  EF28  F00A         	goto	u5031
  9922  00144C  EF2A  F00A         	goto	u5030
  9923  001450                     u5031:
  9924  001450  EF2E  F00A         	goto	l1282
  9925  001454                     u5030:
  9926  001454                     l4791:
  9927  001454  0E01               	movlw	1
  9928  001456  6E27               	movwf	___fldiv@aexp^0,c
  9929  001458  EF37  F00A         	goto	l1281
  9930  00145C                     l1282:
  9931  00145C  A00F               	btfss	___fldiv@b^0,0,c
  9932  00145E  EF33  F00A         	goto	u5041
  9933  001462  EF35  F00A         	goto	u5040
  9934  001466                     u5041:
  9935  001466  EF37  F00A         	goto	l1281
  9936  00146A                     u5040:
  9937  00146A  EF2A  F00A         	goto	l4791
  9938  00146E                     l1281:
  9939  00146E  5027               	movf	___fldiv@aexp^0,w,c
  9940  001470  B4D8               	btfsc	status,2,c
  9941  001472  EF3D  F00A         	goto	u5051
  9942  001476  EF3F  F00A         	goto	u5050
  9943  00147A                     u5051:
  9944  00147A  EF63  F00A         	goto	l4803
  9945  00147E                     u5050:
  9946  00147E  0E01               	movlw	1
  9947  001480  260F               	addwf	___fldiv@b^0,f,c
  9948  001482  0E00               	movlw	0
  9949  001484  2210               	addwfc	(___fldiv@b+1)^0,f,c
  9950  001486  2211               	addwfc	(___fldiv@b+2)^0,f,c
  9951  001488  2212               	addwfc	(___fldiv@b+3)^0,f,c
  9952  00148A  A012               	btfss	(___fldiv@b+3)^0,0,c
  9953  00148C  EF4A  F00A         	goto	u5061
  9954  001490  EF4C  F00A         	goto	u5060
  9955  001494                     u5061:
  9956  001494  EF63  F00A         	goto	l4803
  9957  001498                     u5060:
  9958  001498  C00F  F017         	movff	___fldiv@b,??___fldiv
  9959  00149C  C010  F018         	movff	___fldiv@b+1,??___fldiv+1
  9960  0014A0  C011  F019         	movff	___fldiv@b+2,??___fldiv+2
  9961  0014A4  C012  F01A         	movff	___fldiv@b+3,??___fldiv+3
  9962  0014A8  341A               	rlcf	(??___fldiv+3)^0,w,c
  9963  0014AA  321A               	rrcf	(??___fldiv+3)^0,f,c
  9964  0014AC  3219               	rrcf	(??___fldiv+2)^0,f,c
  9965  0014AE  3218               	rrcf	(??___fldiv+1)^0,f,c
  9966  0014B0  3217               	rrcf	??___fldiv^0,f,c
  9967  0014B2  C017  F00F         	movff	??___fldiv,___fldiv@b
  9968  0014B6  C018  F010         	movff	??___fldiv+1,___fldiv@b+1
  9969  0014BA  C019  F011         	movff	??___fldiv+2,___fldiv@b+2
  9970  0014BE  C01A  F012         	movff	??___fldiv+3,___fldiv@b+3
  9971  0014C2  4A20               	infsnz	___fldiv@new_exp^0,f,c
  9972  0014C4  2A21               	incf	(___fldiv@new_exp+1)^0,f,c
  9973  0014C6                     l4803:
  9974  0014C6  BE21               	btfsc	(___fldiv@new_exp+1)^0,7,c
  9975  0014C8  EF6E  F00A         	goto	u5071
  9976  0014CC  5021               	movf	(___fldiv@new_exp+1)^0,w,c
  9977  0014CE  E108               	bnz	u5070
  9978  0014D0  2820               	incf	___fldiv@new_exp^0,w,c
  9979  0014D2  A0D8               	btfss	status,0,c
  9980  0014D4  EF6E  F00A         	goto	u5071
  9981  0014D8  EF70  F00A         	goto	u5070
  9982  0014DC                     u5071:
  9983  0014DC  EF7B  F00A         	goto	l4807
  9984  0014E0                     u5070:
  9985  0014E0  0E00               	movlw	0
  9986  0014E2  6E21               	movwf	(___fldiv@new_exp+1)^0,c
  9987  0014E4  6820               	setf	___fldiv@new_exp^0,c
  9988  0014E6  0E00               	movlw	0
  9989  0014E8  6E0F               	movwf	___fldiv@b^0,c
  9990  0014EA  0E00               	movlw	0
  9991  0014EC  6E10               	movwf	(___fldiv@b+1)^0,c
  9992  0014EE  0E00               	movlw	0
  9993  0014F0  6E11               	movwf	(___fldiv@b+2)^0,c
  9994  0014F2  0E00               	movlw	0
  9995  0014F4  6E12               	movwf	(___fldiv@b+3)^0,c
  9996  0014F6                     l4807:
  9997  0014F6  BE21               	btfsc	(___fldiv@new_exp+1)^0,7,c
  9998  0014F8  EF88  F00A         	goto	u5080
  9999  0014FC  5021               	movf	(___fldiv@new_exp+1)^0,w,c
 10000  0014FE  E106               	bnz	u5081
 10001  001500  0420               	decf	___fldiv@new_exp^0,w,c
 10002  001502  B0D8               	btfsc	status,0,c
 10003  001504  EF86  F00A         	goto	u5081
 10004  001508  EF88  F00A         	goto	u5080
 10005  00150C                     u5081:
 10006  00150C  EF96  F00A         	goto	l4811
 10007  001510                     u5080:
 10008  001510  0E00               	movlw	0
 10009  001512  6E21               	movwf	(___fldiv@new_exp+1)^0,c
 10010  001514  0E00               	movlw	0
 10011  001516  6E20               	movwf	___fldiv@new_exp^0,c
 10012  001518  0E00               	movlw	0
 10013  00151A  6E0F               	movwf	___fldiv@b^0,c
 10014  00151C  0E00               	movlw	0
 10015  00151E  6E10               	movwf	(___fldiv@b+1)^0,c
 10016  001520  0E00               	movlw	0
 10017  001522  6E11               	movwf	(___fldiv@b+2)^0,c
 10018  001524  0E00               	movlw	0
 10019  001526  6E12               	movwf	(___fldiv@b+3)^0,c
 10020  001528  0E00               	movlw	0
 10021  00152A  6E1F               	movwf	___fldiv@sign^0,c
 10022  00152C                     l4811:
 10023  00152C  C020  F026         	movff	___fldiv@new_exp,___fldiv@bexp
 10024  001530  A026               	btfss	___fldiv@bexp^0,0,c
 10025  001532  EF9D  F00A         	goto	u5091
 10026  001536  EF9F  F00A         	goto	u5090
 10027  00153A                     u5091:
 10028  00153A  EFA2  F00A         	goto	l4817
 10029  00153E                     u5090:
 10030  00153E  8E11               	bsf	(___fldiv@b+2)^0,7,c
 10031  001540  EFA3  F00A         	goto	l4819
 10032  001544                     l4817:
 10033  001544  9E11               	bcf	(___fldiv@b+2)^0,7,c
 10034  001546                     l4819:
 10035  001546  90D8               	bcf	status,0,c
 10036  001548  3026               	rrcf	___fldiv@bexp^0,w,c
 10037  00154A  6E12               	movwf	(___fldiv@b+3)^0,c
 10038  00154C  EF59  F009         	goto	l4733
 10039  001550                     l1268:
 10040  001550  0012               	return		;funcret
 10041  001552                     __end_of___fldiv:
 10042                           	callstack 0
 10043                           
 10044 ;; *************** function ___fladd *****************
 10045 ;; Defined at:
 10046 ;;		line 10 in file "D:\mplab\pic\sources\c99\common\sprcadd.c"
 10047 ;; Parameters:    Size  Location     Type
 10048 ;;  b               4   39[COMRAM] unsigned char 
 10049 ;;  a               4   43[COMRAM] unsigned char 
 10050 ;; Auto vars:     Size  Location     Type
 10051 ;;  grs             1   54[COMRAM] unsigned char 
 10052 ;;  bexp            1   53[COMRAM] unsigned char 
 10053 ;;  aexp            1   52[COMRAM] unsigned char 
 10054 ;;  signs           1   51[COMRAM] unsigned char 
 10055 ;; Return value:  Size  Location     Type
 10056 ;;                  4   39[COMRAM] unsigned char 
 10057 ;; Registers used:
 10058 ;;		wreg, status,2, status,0
 10059 ;; Tracked objects:
 10060 ;;		On entry : 0/0
 10061 ;;		On exit  : 0/0
 10062 ;;		Unchanged: 0/0
 10063 ;; Data sizes:     COMRAM   BANK0   BANK1   BANK2   BANK3   BANK4   BANK5   BANK6   BANK7
 10064 ;;      Params:         8       0       0       0       0       0       0       0       0
 10065 ;;      Locals:         4       0       0       0       0       0       0       0       0
 10066 ;;      Temps:          4       0       0       0       0       0       0       0       0
 10067 ;;      Totals:        16       0       0       0       0       0       0       0       0
 10068 ;;Total ram usage:       16 bytes
 10069 ;; Hardware stack levels used: 1
 10070 ;; This function calls:
 10071 ;;		Nothing
 10072 ;; This function is called by:
 10073 ;;		_USART_Init
 10074 ;; This function uses a non-reentrant model
 10075 ;;
 10076                           
 10077                           	psect	text70
 10078  0008CE                     __ptext70:
 10079                           	callstack 0
 10080  0008CE                     ___fladd:
 10081                           	callstack 29
 10082  0008CE  502B               	movf	(___fladd@b+3)^0,w,c
 10083  0008D0  0B80               	andlw	128
 10084  0008D2  6E34               	movwf	___fladd@signs^0,c
 10085  0008D4  502B               	movf	(___fladd@b+3)^0,w,c
 10086  0008D6  242B               	addwf	(___fladd@b+3)^0,w,c
 10087  0008D8  6E36               	movwf	___fladd@bexp^0,c
 10088  0008DA  AE2A               	btfss	(___fladd@b+2)^0,7,c
 10089  0008DC  EF72  F004         	goto	u4481
 10090  0008E0  EF74  F004         	goto	u4480
 10091  0008E4                     u4481:
 10092  0008E4  EF75  F004         	goto	l4493
 10093  0008E8                     u4480:
 10094  0008E8  8036               	bsf	___fladd@bexp^0,0,c
 10095  0008EA                     l4493:
 10096  0008EA  5036               	movf	___fladd@bexp^0,w,c
 10097  0008EC  B4D8               	btfsc	status,2,c
 10098  0008EE  EF7B  F004         	goto	u4491
 10099  0008F2  EF7D  F004         	goto	u4490
 10100  0008F6                     u4491:
 10101  0008F6  EF92  F004         	goto	l4503
 10102  0008FA                     u4490:
 10103  0008FA  2836               	incf	___fladd@bexp^0,w,c
 10104  0008FC  A4D8               	btfss	status,2,c
 10105  0008FE  EF83  F004         	goto	u4501
 10106  000902  EF85  F004         	goto	u4500
 10107  000906                     u4501:
 10108  000906  EF8D  F004         	goto	l4499
 10109  00090A                     u4500:
 10110  00090A  0E00               	movlw	0
 10111  00090C  6E28               	movwf	___fladd@b^0,c
 10112  00090E  0E00               	movlw	0
 10113  000910  6E29               	movwf	(___fladd@b+1)^0,c
 10114  000912  0E00               	movlw	0
 10115  000914  6E2A               	movwf	(___fladd@b+2)^0,c
 10116  000916  0E00               	movlw	0
 10117  000918  6E2B               	movwf	(___fladd@b+3)^0,c
 10118  00091A                     l4499:
 10119  00091A  8E2A               	bsf	(___fladd@b+2)^0,7,c
 10120  00091C  0E00               	movlw	0
 10121  00091E  6E2B               	movwf	(___fladd@b+3)^0,c
 10122  000920  EF9A  F004         	goto	l4505
 10123  000924                     l4503:
 10124  000924  0E00               	movlw	0
 10125  000926  6E28               	movwf	___fladd@b^0,c
 10126  000928  0E00               	movlw	0
 10127  00092A  6E29               	movwf	(___fladd@b+1)^0,c
 10128  00092C  0E00               	movlw	0
 10129  00092E  6E2A               	movwf	(___fladd@b+2)^0,c
 10130  000930  0E00               	movlw	0
 10131  000932  6E2B               	movwf	(___fladd@b+3)^0,c
 10132  000934                     l4505:
 10133  000934  502F               	movf	(___fladd@a+3)^0,w,c
 10134  000936  0B80               	andlw	128
 10135  000938  6E35               	movwf	___fladd@aexp^0,c
 10136  00093A  5034               	movf	___fladd@signs^0,w,c
 10137  00093C  1835               	xorwf	___fladd@aexp^0,w,c
 10138  00093E  B4D8               	btfsc	status,2,c
 10139  000940  EFA4  F004         	goto	u4511
 10140  000944  EFA6  F004         	goto	u4510
 10141  000948                     u4511:
 10142  000948  EFA7  F004         	goto	l4511
 10143  00094C                     u4510:
 10144  00094C  8C34               	bsf	___fladd@signs^0,6,c
 10145  00094E                     l4511:
 10146  00094E  502F               	movf	(___fladd@a+3)^0,w,c
 10147  000950  242F               	addwf	(___fladd@a+3)^0,w,c
 10148  000952  6E35               	movwf	___fladd@aexp^0,c
 10149  000954  AE2E               	btfss	(___fladd@a+2)^0,7,c
 10150  000956  EFAF  F004         	goto	u4521
 10151  00095A  EFB1  F004         	goto	u4520
 10152  00095E                     u4521:
 10153  00095E  EFB2  F004         	goto	l4517
 10154  000962                     u4520:
 10155  000962  8035               	bsf	___fladd@aexp^0,0,c
 10156  000964                     l4517:
 10157  000964  5035               	movf	___fladd@aexp^0,w,c
 10158  000966  B4D8               	btfsc	status,2,c
 10159  000968  EFB8  F004         	goto	u4531
 10160  00096C  EFBA  F004         	goto	u4530
 10161  000970                     u4531:
 10162  000970  EFCF  F004         	goto	l4527
 10163  000974                     u4530:
 10164  000974  2835               	incf	___fladd@aexp^0,w,c
 10165  000976  A4D8               	btfss	status,2,c
 10166  000978  EFC0  F004         	goto	u4541
 10167  00097C  EFC2  F004         	goto	u4540
 10168  000980                     u4541:
 10169  000980  EFCA  F004         	goto	l4523
 10170  000984                     u4540:
 10171  000984  0E00               	movlw	0
 10172  000986  6E2C               	movwf	___fladd@a^0,c
 10173  000988  0E00               	movlw	0
 10174  00098A  6E2D               	movwf	(___fladd@a+1)^0,c
 10175  00098C  0E00               	movlw	0
 10176  00098E  6E2E               	movwf	(___fladd@a+2)^0,c
 10177  000990  0E00               	movlw	0
 10178  000992  6E2F               	movwf	(___fladd@a+3)^0,c
 10179  000994                     l4523:
 10180  000994  8E2E               	bsf	(___fladd@a+2)^0,7,c
 10181  000996  0E00               	movlw	0
 10182  000998  6E2F               	movwf	(___fladd@a+3)^0,c
 10183  00099A  EFD7  F004         	goto	l4529
 10184  00099E                     l4527:
 10185  00099E  0E00               	movlw	0
 10186  0009A0  6E2C               	movwf	___fladd@a^0,c
 10187  0009A2  0E00               	movlw	0
 10188  0009A4  6E2D               	movwf	(___fladd@a+1)^0,c
 10189  0009A6  0E00               	movlw	0
 10190  0009A8  6E2E               	movwf	(___fladd@a+2)^0,c
 10191  0009AA  0E00               	movlw	0
 10192  0009AC  6E2F               	movwf	(___fladd@a+3)^0,c
 10193  0009AE                     l4529:
 10194  0009AE  5036               	movf	___fladd@bexp^0,w,c
 10195  0009B0  5C35               	subwf	___fladd@aexp^0,w,c
 10196  0009B2  B0D8               	btfsc	status,0,c
 10197  0009B4  EFDE  F004         	goto	u4551
 10198  0009B8  EFE0  F004         	goto	u4550
 10199  0009BC                     u4551:
 10200  0009BC  EF07  F005         	goto	l4565
 10201  0009C0                     u4550:
 10202  0009C0  AC34               	btfss	___fladd@signs^0,6,c
 10203  0009C2  EFE5  F004         	goto	u4561
 10204  0009C6  EFE7  F004         	goto	u4560
 10205  0009CA                     u4561:
 10206  0009CA  EFE9  F004         	goto	l4535
 10207  0009CE                     u4560:
 10208  0009CE  0E80               	movlw	128
 10209  0009D0  1A34               	xorwf	___fladd@signs^0,f,c
 10210  0009D2                     l4535:
 10211  0009D2  C036  F037         	movff	___fladd@bexp,___fladd@grs
 10212  0009D6  C035  F036         	movff	___fladd@aexp,___fladd@bexp
 10213  0009DA  C037  F035         	movff	___fladd@grs,___fladd@aexp
 10214  0009DE  C028  F037         	movff	___fladd@b,___fladd@grs
 10215  0009E2  C02C  F028         	movff	___fladd@a,___fladd@b
 10216  0009E6  C037  F02C         	movff	___fladd@grs,___fladd@a
 10217  0009EA  C029  F037         	movff	___fladd@b+1,___fladd@grs
 10218  0009EE  C02D  F029         	movff	___fladd@a+1,___fladd@b+1
 10219  0009F2  C037  F02D         	movff	___fladd@grs,___fladd@a+1
 10220  0009F6  C02A  F037         	movff	___fladd@b+2,___fladd@grs
 10221  0009FA  C02E  F02A         	movff	___fladd@a+2,___fladd@b+2
 10222  0009FE  C037  F02E         	movff	___fladd@grs,___fladd@a+2
 10223  000A02  C02B  F037         	movff	___fladd@b+3,___fladd@grs
 10224  000A06  C02F  F02B         	movff	___fladd@a+3,___fladd@b+3
 10225  000A0A  C037  F02F         	movff	___fladd@grs,___fladd@a+3
 10226  000A0E                     l4565:
 10227  000A0E  0E00               	movlw	0
 10228  000A10  6E37               	movwf	___fladd@grs^0,c
 10229  000A12  5036               	movf	___fladd@bexp^0,w,c
 10230  000A14  C035  F030         	movff	___fladd@aexp,??___fladd
 10231  000A18  6A31               	clrf	(??___fladd+1)^0,c
 10232  000A1A  5E30               	subwf	??___fladd^0,f,c
 10233  000A1C  0E00               	movlw	0
 10234  000A1E  5A31               	subwfb	(??___fladd+1)^0,f,c
 10235  000A20  BE31               	btfsc	(??___fladd+1)^0,7,c
 10236  000A22  EF1C  F005         	goto	u4571
 10237  000A26  5031               	movf	(??___fladd+1)^0,w,c
 10238  000A28  E109               	bnz	u4570
 10239  000A2A  0E1A               	movlw	26
 10240  000A2C  5C30               	subwf	??___fladd^0,w,c
 10241  000A2E  A0D8               	btfss	status,0,c
 10242  000A30  EF1C  F005         	goto	u4571
 10243  000A34  EF1E  F005         	goto	u4570
 10244  000A38                     u4571:
 10245  000A38  EF55  F005         	goto	l1215
 10246  000A3C                     u4570:
 10247  000A3C  5028               	movf	___fladd@b^0,w,c
 10248  000A3E  1029               	iorwf	(___fladd@b+1)^0,w,c
 10249  000A40  102A               	iorwf	(___fladd@b+2)^0,w,c
 10250  000A42  102B               	iorwf	(___fladd@b+3)^0,w,c
 10251  000A44  A4D8               	btfss	status,2,c
 10252  000A46  EF27  F005         	goto	u4581
 10253  000A4A  EF2A  F005         	goto	u4580
 10254  000A4E                     u4581:
 10255  000A4E  0E01               	movlw	1
 10256  000A50  EF2B  F005         	goto	u4590
 10257  000A54                     u4580:
 10258  000A54  0E00               	movlw	0
 10259  000A56                     u4590:
 10260  000A56  6E37               	movwf	___fladd@grs^0,c
 10261  000A58  0E00               	movlw	0
 10262  000A5A  6E28               	movwf	___fladd@b^0,c
 10263  000A5C  0E00               	movlw	0
 10264  000A5E  6E29               	movwf	(___fladd@b+1)^0,c
 10265  000A60  0E00               	movlw	0
 10266  000A62  6E2A               	movwf	(___fladd@b+2)^0,c
 10267  000A64  0E00               	movlw	0
 10268  000A66  6E2B               	movwf	(___fladd@b+3)^0,c
 10269  000A68  C035  F036         	movff	___fladd@aexp,___fladd@bexp
 10270  000A6C  EF5E  F005         	goto	l1214
 10271  000A70                     l1216:
 10272  000A70  A037               	btfss	___fladd@grs^0,0,c
 10273  000A72  EF3D  F005         	goto	u4601
 10274  000A76  EF3F  F005         	goto	u4600
 10275  000A7A                     u4601:
 10276  000A7A  EF45  F005         	goto	l4577
 10277  000A7E                     u4600:
 10278  000A7E  90D8               	bcf	status,0,c
 10279  000A80  3037               	rrcf	___fladd@grs^0,w,c
 10280  000A82  0901               	iorlw	1
 10281  000A84  6E37               	movwf	___fladd@grs^0,c
 10282  000A86  EF47  F005         	goto	l4579
 10283  000A8A                     l4577:
 10284  000A8A  90D8               	bcf	status,0,c
 10285  000A8C  3237               	rrcf	___fladd@grs^0,f,c
 10286  000A8E                     l4579:
 10287  000A8E  A028               	btfss	___fladd@b^0,0,c
 10288  000A90  EF4C  F005         	goto	u4611
 10289  000A94  EF4E  F005         	goto	u4610
 10290  000A98                     u4611:
 10291  000A98  EF4F  F005         	goto	l4583
 10292  000A9C                     u4610:
 10293  000A9C  8E37               	bsf	___fladd@grs^0,7,c
 10294  000A9E                     l4583:
 10295  000A9E  342B               	rlcf	(___fladd@b+3)^0,w,c
 10296  000AA0  322B               	rrcf	(___fladd@b+3)^0,f,c
 10297  000AA2  322A               	rrcf	(___fladd@b+2)^0,f,c
 10298  000AA4  3229               	rrcf	(___fladd@b+1)^0,f,c
 10299  000AA6  3228               	rrcf	___fladd@b^0,f,c
 10300  000AA8  2A36               	incf	___fladd@bexp^0,f,c
 10301  000AAA                     l1215:
 10302  000AAA  5035               	movf	___fladd@aexp^0,w,c
 10303  000AAC  5C36               	subwf	___fladd@bexp^0,w,c
 10304  000AAE  A0D8               	btfss	status,0,c
 10305  000AB0  EF5C  F005         	goto	u4621
 10306  000AB4  EF5E  F005         	goto	u4620
 10307  000AB8                     u4621:
 10308  000AB8  EF38  F005         	goto	l1216
 10309  000ABC                     u4620:
 10310  000ABC                     l1214:
 10311  000ABC  BC34               	btfsc	___fladd@signs^0,6,c
 10312  000ABE  EF63  F005         	goto	u4631
 10313  000AC2  EF65  F005         	goto	u4630
 10314  000AC6                     u4631:
 10315  000AC6  EFA5  F005         	goto	l4611
 10316  000ACA                     u4630:
 10317  000ACA  5036               	movf	___fladd@bexp^0,w,c
 10318  000ACC  A4D8               	btfss	status,2,c
 10319  000ACE  EF6B  F005         	goto	u4641
 10320  000AD2  EF6D  F005         	goto	u4640
 10321  000AD6                     u4641:
 10322  000AD6  EF77  F005         	goto	l4593
 10323  000ADA                     u4640:
 10324  000ADA  0E00               	movlw	0
 10325  000ADC  6E28               	movwf	?___fladd^0,c
 10326  000ADE  0E00               	movlw	0
 10327  000AE0  6E29               	movwf	(?___fladd+1)^0,c
 10328  000AE2  0E00               	movlw	0
 10329  000AE4  6E2A               	movwf	(?___fladd+2)^0,c
 10330  000AE6  0E00               	movlw	0
 10331  000AE8  6E2B               	movwf	(?___fladd+3)^0,c
 10332  000AEA  EFC6  F006         	goto	l1223
 10333  000AEE                     l4593:
 10334  000AEE  502C               	movf	___fladd@a^0,w,c
 10335  000AF0  2628               	addwf	___fladd@b^0,f,c
 10336  000AF2  502D               	movf	(___fladd@a+1)^0,w,c
 10337  000AF4  2229               	addwfc	(___fladd@b+1)^0,f,c
 10338  000AF6  502E               	movf	(___fladd@a+2)^0,w,c
 10339  000AF8  222A               	addwfc	(___fladd@b+2)^0,f,c
 10340  000AFA  502F               	movf	(___fladd@a+3)^0,w,c
 10341  000AFC  222B               	addwfc	(___fladd@b+3)^0,f,c
 10342  000AFE  A02B               	btfss	(___fladd@b+3)^0,0,c
 10343  000B00  EF84  F005         	goto	u4651
 10344  000B04  EF86  F005         	goto	u4650
 10345  000B08                     u4651:
 10346  000B08  EF32  F006         	goto	l4647
 10347  000B0C                     u4650:
 10348  000B0C  A037               	btfss	___fladd@grs^0,0,c
 10349  000B0E  EF8B  F005         	goto	u4661
 10350  000B12  EF8D  F005         	goto	u4660
 10351  000B16                     u4661:
 10352  000B16  EF93  F005         	goto	l4601
 10353  000B1A                     u4660:
 10354  000B1A  90D8               	bcf	status,0,c
 10355  000B1C  3037               	rrcf	___fladd@grs^0,w,c
 10356  000B1E  0901               	iorlw	1
 10357  000B20  6E37               	movwf	___fladd@grs^0,c
 10358  000B22  EF95  F005         	goto	l4603
 10359  000B26                     l4601:
 10360  000B26  90D8               	bcf	status,0,c
 10361  000B28  3237               	rrcf	___fladd@grs^0,f,c
 10362  000B2A                     l4603:
 10363  000B2A  A028               	btfss	___fladd@b^0,0,c
 10364  000B2C  EF9A  F005         	goto	u4671
 10365  000B30  EF9C  F005         	goto	u4670
 10366  000B34                     u4671:
 10367  000B34  EF9D  F005         	goto	l4607
 10368  000B38                     u4670:
 10369  000B38  8E37               	bsf	___fladd@grs^0,7,c
 10370  000B3A                     l4607:
 10371  000B3A  342B               	rlcf	(___fladd@b+3)^0,w,c
 10372  000B3C  322B               	rrcf	(___fladd@b+3)^0,f,c
 10373  000B3E  322A               	rrcf	(___fladd@b+2)^0,f,c
 10374  000B40  3229               	rrcf	(___fladd@b+1)^0,f,c
 10375  000B42  3228               	rrcf	___fladd@b^0,f,c
 10376  000B44  2A36               	incf	___fladd@bexp^0,f,c
 10377  000B46  EF32  F006         	goto	l4647
 10378  000B4A                     l4611:
 10379  000B4A  502C               	movf	___fladd@a^0,w,c
 10380  000B4C  5C28               	subwf	___fladd@b^0,w,c
 10381  000B4E  502D               	movf	(___fladd@a+1)^0,w,c
 10382  000B50  5829               	subwfb	(___fladd@b+1)^0,w,c
 10383  000B52  502E               	movf	(___fladd@a+2)^0,w,c
 10384  000B54  582A               	subwfb	(___fladd@b+2)^0,w,c
 10385  000B56  502B               	movf	(___fladd@b+3)^0,w,c
 10386  000B58  0A80               	xorlw	128
 10387  000B5A  6E30               	movwf	??___fladd^0,c
 10388  000B5C  502F               	movf	(___fladd@a+3)^0,w,c
 10389  000B5E  0A80               	xorlw	128
 10390  000B60  5830               	subwfb	??___fladd^0,w,c
 10391  000B62  B0D8               	btfsc	status,0,c
 10392  000B64  EFB6  F005         	goto	u4681
 10393  000B68  EFB8  F005         	goto	u4680
 10394  000B6C                     u4681:
 10395  000B6C  EFE3  F005         	goto	l4621
 10396  000B70                     u4680:
 10397  000B70  5028               	movf	___fladd@b^0,w,c
 10398  000B72  5C2C               	subwf	___fladd@a^0,w,c
 10399  000B74  6E30               	movwf	??___fladd^0,c
 10400  000B76  5029               	movf	(___fladd@b+1)^0,w,c
 10401  000B78  582D               	subwfb	(___fladd@a+1)^0,w,c
 10402  000B7A  6E31               	movwf	(??___fladd+1)^0,c
 10403  000B7C  502A               	movf	(___fladd@b+2)^0,w,c
 10404  000B7E  582E               	subwfb	(___fladd@a+2)^0,w,c
 10405  000B80  6E32               	movwf	(??___fladd+2)^0,c
 10406  000B82  502B               	movf	(___fladd@b+3)^0,w,c
 10407  000B84  582F               	subwfb	(___fladd@a+3)^0,w,c
 10408  000B86  6E33               	movwf	(??___fladd+3)^0,c
 10409  000B88  0EFF               	movlw	255
 10410  000B8A  2430               	addwf	??___fladd^0,w,c
 10411  000B8C  6E28               	movwf	___fladd@b^0,c
 10412  000B8E  0EFF               	movlw	255
 10413  000B90  2031               	addwfc	(??___fladd+1)^0,w,c
 10414  000B92  6E29               	movwf	(___fladd@b+1)^0,c
 10415  000B94  0EFF               	movlw	255
 10416  000B96  2032               	addwfc	(??___fladd+2)^0,w,c
 10417  000B98  6E2A               	movwf	(___fladd@b+2)^0,c
 10418  000B9A  0EFF               	movlw	255
 10419  000B9C  2033               	addwfc	(??___fladd+3)^0,w,c
 10420  000B9E  6E2B               	movwf	(___fladd@b+3)^0,c
 10421  000BA0  0E80               	movlw	128
 10422  000BA2  1A34               	xorwf	___fladd@signs^0,f,c
 10423  000BA4  6C37               	negf	___fladd@grs^0,c
 10424  000BA6  5037               	movf	___fladd@grs^0,w,c
 10425  000BA8  A4D8               	btfss	status,2,c
 10426  000BAA  EFD9  F005         	goto	u4691
 10427  000BAE  EFDB  F005         	goto	u4690
 10428  000BB2                     u4691:
 10429  000BB2  EFEB  F005         	goto	l1231
 10430  000BB6                     u4690:
 10431  000BB6  0E01               	movlw	1
 10432  000BB8  2628               	addwf	___fladd@b^0,f,c
 10433  000BBA  0E00               	movlw	0
 10434  000BBC  2229               	addwfc	(___fladd@b+1)^0,f,c
 10435  000BBE  222A               	addwfc	(___fladd@b+2)^0,f,c
 10436  000BC0  222B               	addwfc	(___fladd@b+3)^0,f,c
 10437  000BC2  EFEB  F005         	goto	l1231
 10438  000BC6                     l4621:
 10439  000BC6  502C               	movf	___fladd@a^0,w,c
 10440  000BC8  5E28               	subwf	___fladd@b^0,f,c
 10441  000BCA  502D               	movf	(___fladd@a+1)^0,w,c
 10442  000BCC  5A29               	subwfb	(___fladd@b+1)^0,f,c
 10443  000BCE  502E               	movf	(___fladd@a+2)^0,w,c
 10444  000BD0  5A2A               	subwfb	(___fladd@b+2)^0,f,c
 10445  000BD2  502F               	movf	(___fladd@a+3)^0,w,c
 10446  000BD4  5A2B               	subwfb	(___fladd@b+3)^0,f,c
 10447  000BD6                     l1231:
 10448  000BD6  5028               	movf	___fladd@b^0,w,c
 10449  000BD8  1029               	iorwf	(___fladd@b+1)^0,w,c
 10450  000BDA  102A               	iorwf	(___fladd@b+2)^0,w,c
 10451  000BDC  102B               	iorwf	(___fladd@b+3)^0,w,c
 10452  000BDE  A4D8               	btfss	status,2,c
 10453  000BE0  EFF4  F005         	goto	u4701
 10454  000BE4  EFF6  F005         	goto	u4700
 10455  000BE8                     u4701:
 10456  000BE8  EF2B  F006         	goto	l4645
 10457  000BEC                     u4700:
 10458  000BEC  5037               	movf	___fladd@grs^0,w,c
 10459  000BEE  A4D8               	btfss	status,2,c
 10460  000BF0  EFFC  F005         	goto	u4711
 10461  000BF4  EFFE  F005         	goto	u4710
 10462  000BF8                     u4711:
 10463  000BF8  EF2B  F006         	goto	l4645
 10464  000BFC                     u4710:
 10465  000BFC  0E00               	movlw	0
 10466  000BFE  6E28               	movwf	?___fladd^0,c
 10467  000C00  0E00               	movlw	0
 10468  000C02  6E29               	movwf	(?___fladd+1)^0,c
 10469  000C04  0E00               	movlw	0
 10470  000C06  6E2A               	movwf	(?___fladd+2)^0,c
 10471  000C08  0E00               	movlw	0
 10472  000C0A  6E2B               	movwf	(?___fladd+3)^0,c
 10473  000C0C  EFC6  F006         	goto	l1223
 10474  000C10                     l4629:
 10475  000C10  90D8               	bcf	status,0,c
 10476  000C12  3628               	rlcf	___fladd@b^0,f,c
 10477  000C14  3629               	rlcf	(___fladd@b+1)^0,f,c
 10478  000C16  362A               	rlcf	(___fladd@b+2)^0,f,c
 10479  000C18  362B               	rlcf	(___fladd@b+3)^0,f,c
 10480  000C1A  AE37               	btfss	___fladd@grs^0,7,c
 10481  000C1C  EF12  F006         	goto	u4721
 10482  000C20  EF14  F006         	goto	u4720
 10483  000C24                     u4721:
 10484  000C24  EF15  F006         	goto	l4635
 10485  000C28                     u4720:
 10486  000C28  8028               	bsf	___fladd@b^0,0,c
 10487  000C2A                     l4635:
 10488  000C2A  A037               	btfss	___fladd@grs^0,0,c
 10489  000C2C  EF1A  F006         	goto	u4731
 10490  000C30  EF1C  F006         	goto	u4730
 10491  000C34                     u4731:
 10492  000C34  EF20  F006         	goto	l4639
 10493  000C38                     u4730:
 10494  000C38  80D8               	bsf	status,0,c
 10495  000C3A  3637               	rlcf	___fladd@grs^0,f,c
 10496  000C3C  EF22  F006         	goto	l4641
 10497  000C40                     l4639:
 10498  000C40  90D8               	bcf	status,0,c
 10499  000C42  3637               	rlcf	___fladd@grs^0,f,c
 10500  000C44                     l4641:
 10501  000C44  5036               	movf	___fladd@bexp^0,w,c
 10502  000C46  B4D8               	btfsc	status,2,c
 10503  000C48  EF28  F006         	goto	u4741
 10504  000C4C  EF2A  F006         	goto	u4740
 10505  000C50                     u4741:
 10506  000C50  EF2B  F006         	goto	l4645
 10507  000C54                     u4740:
 10508  000C54  0636               	decf	___fladd@bexp^0,f,c
 10509  000C56                     l4645:
 10510  000C56  AE2A               	btfss	(___fladd@b+2)^0,7,c
 10511  000C58  EF30  F006         	goto	u4751
 10512  000C5C  EF32  F006         	goto	u4750
 10513  000C60                     u4751:
 10514  000C60  EF08  F006         	goto	l4629
 10515  000C64                     u4750:
 10516  000C64                     l4647:
 10517  000C64  0E00               	movlw	0
 10518  000C66  6E35               	movwf	___fladd@aexp^0,c
 10519  000C68  AE37               	btfss	___fladd@grs^0,7,c
 10520  000C6A  EF39  F006         	goto	u4761
 10521  000C6E  EF3B  F006         	goto	u4760
 10522  000C72                     u4761:
 10523  000C72  EF53  F006         	goto	l1240
 10524  000C76                     u4760:
 10525  000C76  C037  F030         	movff	___fladd@grs,??___fladd
 10526  000C7A  0E7F               	movlw	127
 10527  000C7C  1630               	andwf	??___fladd^0,f,c
 10528  000C7E  B4D8               	btfsc	status,2,c
 10529  000C80  EF44  F006         	goto	u4771
 10530  000C84  EF46  F006         	goto	u4770
 10531  000C88                     u4771:
 10532  000C88  EF4A  F006         	goto	l1241
 10533  000C8C                     u4770:
 10534  000C8C                     l4653:
 10535  000C8C  0E01               	movlw	1
 10536  000C8E  6E35               	movwf	___fladd@aexp^0,c
 10537  000C90  EF53  F006         	goto	l1240
 10538  000C94                     l1241:
 10539  000C94  A028               	btfss	___fladd@b^0,0,c
 10540  000C96  EF4F  F006         	goto	u4781
 10541  000C9A  EF51  F006         	goto	u4780
 10542  000C9E                     u4781:
 10543  000C9E  EF53  F006         	goto	l1240
 10544  000CA2                     u4780:
 10545  000CA2  EF46  F006         	goto	l4653
 10546  000CA6                     l1240:
 10547  000CA6  5035               	movf	___fladd@aexp^0,w,c
 10548  000CA8  B4D8               	btfsc	status,2,c
 10549  000CAA  EF59  F006         	goto	u4791
 10550  000CAE  EF5B  F006         	goto	u4790
 10551  000CB2                     u4791:
 10552  000CB2  EF86  F006         	goto	l4665
 10553  000CB6                     u4790:
 10554  000CB6  0E01               	movlw	1
 10555  000CB8  2628               	addwf	___fladd@b^0,f,c
 10556  000CBA  0E00               	movlw	0
 10557  000CBC  2229               	addwfc	(___fladd@b+1)^0,f,c
 10558  000CBE  222A               	addwfc	(___fladd@b+2)^0,f,c
 10559  000CC0  222B               	addwfc	(___fladd@b+3)^0,f,c
 10560  000CC2  A02B               	btfss	(___fladd@b+3)^0,0,c
 10561  000CC4  EF66  F006         	goto	u4801
 10562  000CC8  EF68  F006         	goto	u4800
 10563  000CCC                     u4801:
 10564  000CCC  EF86  F006         	goto	l4665
 10565  000CD0                     u4800:
 10566  000CD0  C028  F030         	movff	___fladd@b,??___fladd
 10567  000CD4  C029  F031         	movff	___fladd@b+1,??___fladd+1
 10568  000CD8  C02A  F032         	movff	___fladd@b+2,??___fladd+2
 10569  000CDC  C02B  F033         	movff	___fladd@b+3,??___fladd+3
 10570  000CE0  3433               	rlcf	(??___fladd+3)^0,w,c
 10571  000CE2  3233               	rrcf	(??___fladd+3)^0,f,c
 10572  000CE4  3232               	rrcf	(??___fladd+2)^0,f,c
 10573  000CE6  3231               	rrcf	(??___fladd+1)^0,f,c
 10574  000CE8  3230               	rrcf	??___fladd^0,f,c
 10575  000CEA  C030  F028         	movff	??___fladd,___fladd@b
 10576  000CEE  C031  F029         	movff	??___fladd+1,___fladd@b+1
 10577  000CF2  C032  F02A         	movff	??___fladd+2,___fladd@b+2
 10578  000CF6  C033  F02B         	movff	??___fladd+3,___fladd@b+3
 10579  000CFA  2836               	incf	___fladd@bexp^0,w,c
 10580  000CFC  B4D8               	btfsc	status,2,c
 10581  000CFE  EF83  F006         	goto	u4811
 10582  000D02  EF85  F006         	goto	u4810
 10583  000D06                     u4811:
 10584  000D06  EF86  F006         	goto	l4665
 10585  000D0A                     u4810:
 10586  000D0A  2A36               	incf	___fladd@bexp^0,f,c
 10587  000D0C                     l4665:
 10588  000D0C  2836               	incf	___fladd@bexp^0,w,c
 10589  000D0E  B4D8               	btfsc	status,2,c
 10590  000D10  EF8C  F006         	goto	u4821
 10591  000D14  EF8E  F006         	goto	u4820
 10592  000D18                     u4821:
 10593  000D18  EF96  F006         	goto	l4669
 10594  000D1C                     u4820:
 10595  000D1C  5036               	movf	___fladd@bexp^0,w,c
 10596  000D1E  A4D8               	btfss	status,2,c
 10597  000D20  EF94  F006         	goto	u4831
 10598  000D24  EF96  F006         	goto	u4830
 10599  000D28                     u4831:
 10600  000D28  EFA8  F006         	goto	l4673
 10601  000D2C                     u4830:
 10602  000D2C                     l4669:
 10603  000D2C  0E00               	movlw	0
 10604  000D2E  6E28               	movwf	___fladd@b^0,c
 10605  000D30  0E00               	movlw	0
 10606  000D32  6E29               	movwf	(___fladd@b+1)^0,c
 10607  000D34  0E00               	movlw	0
 10608  000D36  6E2A               	movwf	(___fladd@b+2)^0,c
 10609  000D38  0E00               	movlw	0
 10610  000D3A  6E2B               	movwf	(___fladd@b+3)^0,c
 10611  000D3C  5036               	movf	___fladd@bexp^0,w,c
 10612  000D3E  A4D8               	btfss	status,2,c
 10613  000D40  EFA4  F006         	goto	u4841
 10614  000D44  EFA6  F006         	goto	u4840
 10615  000D48                     u4841:
 10616  000D48  EFA8  F006         	goto	l4673
 10617  000D4C                     u4840:
 10618  000D4C  0E00               	movlw	0
 10619  000D4E  6E34               	movwf	___fladd@signs^0,c
 10620  000D50                     l4673:
 10621  000D50  A036               	btfss	___fladd@bexp^0,0,c
 10622  000D52  EFAD  F006         	goto	u4851
 10623  000D56  EFAF  F006         	goto	u4850
 10624  000D5A                     u4851:
 10625  000D5A  EFB2  F006         	goto	l4677
 10626  000D5E                     u4850:
 10627  000D5E  8E2A               	bsf	(___fladd@b+2)^0,7,c
 10628  000D60  EFB3  F006         	goto	l4679
 10629  000D64                     l4677:
 10630  000D64  9E2A               	bcf	(___fladd@b+2)^0,7,c
 10631  000D66                     l4679:
 10632  000D66  90D8               	bcf	status,0,c
 10633  000D68  3036               	rrcf	___fladd@bexp^0,w,c
 10634  000D6A  6E2B               	movwf	(___fladd@b+3)^0,c
 10635  000D6C  AE34               	btfss	___fladd@signs^0,7,c
 10636  000D6E  EFBB  F006         	goto	u4861
 10637  000D72  EFBD  F006         	goto	u4860
 10638  000D76                     u4861:
 10639  000D76  EFBE  F006         	goto	l4685
 10640  000D7A                     u4860:
 10641  000D7A  8E2B               	bsf	(___fladd@b+3)^0,7,c
 10642  000D7C                     l4685:
 10643  000D7C  C028  F028         	movff	___fladd@b,?___fladd
 10644  000D80  C029  F029         	movff	___fladd@b+1,?___fladd+1
 10645  000D84  C02A  F02A         	movff	___fladd@b+2,?___fladd+2
 10646  000D88  C02B  F02B         	movff	___fladd@b+3,?___fladd+3
 10647  000D8C                     l1223:
 10648  000D8C  0012               	return		;funcret
 10649  000D8E                     __end_of___fladd:
 10650                           	callstack 0
 10651                           
 10652                           	psect	rparam
 10653  0000                     
 10654                           	psect	idloc
 10655                           
 10656                           ;Config register IDLOC0 @ 0x200000
 10657                           ;	unspecified, using default values
 10658  200000                     	org	2097152
 10659  200000  FF                 	db	255
 10660                           
 10661                           ;Config register IDLOC1 @ 0x200001
 10662                           ;	unspecified, using default values
 10663  200001                     	org	2097153
 10664  200001  FF                 	db	255
 10665                           
 10666                           ;Config register IDLOC2 @ 0x200002
 10667                           ;	unspecified, using default values
 10668  200002                     	org	2097154
 10669  200002  FF                 	db	255
 10670                           
 10671                           ;Config register IDLOC3 @ 0x200003
 10672                           ;	unspecified, using default values
 10673  200003                     	org	2097155
 10674  200003  FF                 	db	255
 10675                           
 10676                           ;Config register IDLOC4 @ 0x200004
 10677                           ;	unspecified, using default values
 10678  200004                     	org	2097156
 10679  200004  FF                 	db	255
 10680                           
 10681                           ;Config register IDLOC5 @ 0x200005
 10682                           ;	unspecified, using default values
 10683  200005                     	org	2097157
 10684  200005  FF                 	db	255
 10685                           
 10686                           ;Config register IDLOC6 @ 0x200006
 10687                           ;	unspecified, using default values
 10688  200006                     	org	2097158
 10689  200006  FF                 	db	255
 10690                           
 10691                           ;Config register IDLOC7 @ 0x200007
 10692                           ;	unspecified, using default values
 10693  200007                     	org	2097159
 10694  200007  FF                 	db	255
 10695                           
 10696                           	psect	config
 10697                           
 10698                           ;Config register CONFIG1L @ 0x300000
 10699                           ;	PLL Prescaler Selection bits
 10700                           ;	PLLDIV = 1, No prescale (4 MHz oscillator input drives PLL directly)
 10701                           ;	System Clock Postscaler Selection bits
 10702                           ;	CPUDIV = OSC1_PLL2, [Primary Oscillator Src: /1][96 MHz PLL Src: /2]
 10703                           ;	USB Clock Selection bit (used in Full-Speed USB mode only; UCFG:FSEN = 1)
 10704                           ;	USBDIV = 1, USB clock source comes directly from the primary oscillator block with no 
      +                          postscale
 10705  300000                     	org	3145728
 10706  300000  00                 	db	0
 10707                           
 10708                           ;Config register CONFIG1H @ 0x300001
 10709                           ;	Oscillator Selection bits
 10710                           ;	FOSC = INTOSCIO_EC, Internal oscillator, port function on RA6, EC used by USB (INTIO)
 10711                           ;	Fail-Safe Clock Monitor Enable bit
 10712                           ;	FCMEN = OFF, Fail-Safe Clock Monitor disabled
 10713                           ;	Internal/External Oscillator Switchover bit
 10714                           ;	IESO = OFF, Oscillator Switchover mode disabled
 10715  300001                     	org	3145729
 10716  300001  08                 	db	8
 10717                           
 10718                           ;Config register CONFIG2L @ 0x300002
 10719                           ;	Power-up Timer Enable bit
 10720                           ;	PWRT = OFF, PWRT disabled
 10721                           ;	Brown-out Reset Enable bits
 10722                           ;	BOR = ON, Brown-out Reset enabled in hardware only (SBOREN is disabled)
 10723                           ;	Brown-out Reset Voltage bits
 10724                           ;	BORV = 3, Minimum setting 2.05V
 10725                           ;	USB Voltage Regulator Enable bit
 10726                           ;	VREGEN = OFF, USB voltage regulator disabled
 10727  300002                     	org	3145730
 10728  300002  1F                 	db	31
 10729                           
 10730                           ;Config register CONFIG2H @ 0x300003
 10731                           ;	Watchdog Timer Enable bit
 10732                           ;	WDT = OFF, WDT disabled (control is placed on the SWDTEN bit)
 10733                           ;	Watchdog Timer Postscale Select bits
 10734                           ;	WDTPS = 32768, 1:32768
 10735  300003                     	org	3145731
 10736  300003  1E                 	db	30
 10737                           
 10738                           ; Padding undefined space
 10739  300004                     	org	3145732
 10740  300004  FF                 	db	255
 10741                           
 10742                           ;Config register CONFIG3H @ 0x300005
 10743                           ;	CCP2 MUX bit
 10744                           ;	CCP2MX = ON, CCP2 input/output is multiplexed with RC1
 10745                           ;	PORTB A/D Enable bit
 10746                           ;	PBADEN = OFF, PORTB<4:0> pins are configured as digital I/O on Reset
 10747                           ;	Low-Power Timer 1 Oscillator Enable bit
 10748                           ;	LPT1OSC = OFF, Timer1 configured for higher power operation
 10749                           ;	MCLR Pin Enable bit
 10750                           ;	MCLRE = ON, MCLR pin enabled; RE3 input pin disabled
 10751  300005                     	org	3145733
 10752  300005  81                 	db	129
 10753                           
 10754                           ;Config register CONFIG4L @ 0x300006
 10755                           ;	Stack Full/Underflow Reset Enable bit
 10756                           ;	STVREN = ON, Stack full/underflow will cause Reset
 10757                           ;	Single-Supply ICSP Enable bit
 10758                           ;	LVP = OFF, Single-Supply ICSP disabled
 10759                           ;	Dedicated In-Circuit Debug/Programming Port (ICPORT) Enable bit
 10760                           ;	ICPRT = OFF, ICPORT disabled
 10761                           ;	Extended Instruction Set Enable bit
 10762                           ;	XINST = OFF, Instruction set extension and Indexed Addressing mode disabled (Legacy mo
      +                          de)
 10763                           ;	Background Debugger Enable bit
 10764                           ;	DEBUG = 0x1, unprogrammed default
 10765  300006                     	org	3145734
 10766  300006  81                 	db	129
 10767                           
 10768                           ; Padding undefined space
 10769  300007                     	org	3145735
 10770  300007  FF                 	db	255
 10771                           
 10772                           ;Config register CONFIG5L @ 0x300008
 10773                           ;	Code Protection bit
 10774                           ;	CP0 = OFF, Block 0 (000800-001FFFh) is not code-protected
 10775                           ;	Code Protection bit
 10776                           ;	CP1 = OFF, Block 1 (002000-003FFFh) is not code-protected
 10777                           ;	Code Protection bit
 10778                           ;	CP2 = OFF, Block 2 (004000-005FFFh) is not code-protected
 10779                           ;	Code Protection bit
 10780                           ;	CP3 = OFF, Block 3 (006000-007FFFh) is not code-protected
 10781  300008                     	org	3145736
 10782  300008  0F                 	db	15
 10783                           
 10784                           ;Config register CONFIG5H @ 0x300009
 10785                           ;	Boot Block Code Protection bit
 10786                           ;	CPB = OFF, Boot block (000000-0007FFh) is not code-protected
 10787                           ;	Data EEPROM Code Protection bit
 10788                           ;	CPD = OFF, Data EEPROM is not code-protected
 10789  300009                     	org	3145737
 10790  300009  C0                 	db	192
 10791                           
 10792                           ;Config register CONFIG6L @ 0x30000A
 10793                           ;	Write Protection bit
 10794                           ;	WRT0 = OFF, Block 0 (000800-001FFFh) is not write-protected
 10795                           ;	Write Protection bit
 10796                           ;	WRT1 = OFF, Block 1 (002000-003FFFh) is not write-protected
 10797                           ;	Write Protection bit
 10798                           ;	WRT2 = OFF, Block 2 (004000-005FFFh) is not write-protected
 10799                           ;	Write Protection bit
 10800                           ;	WRT3 = OFF, Block 3 (006000-007FFFh) is not write-protected
 10801  30000A                     	org	3145738
 10802  30000A  0F                 	db	15
 10803                           
 10804                           ;Config register CONFIG6H @ 0x30000B
 10805                           ;	Configuration Register Write Protection bit
 10806                           ;	WRTC = OFF, Configuration registers (300000-3000FFh) are not write-protected
 10807                           ;	Boot Block Write Protection bit
 10808                           ;	WRTB = OFF, Boot block (000000-0007FFh) is not write-protected
 10809                           ;	Data EEPROM Write Protection bit
 10810                           ;	WRTD = OFF, Data EEPROM is not write-protected
 10811  30000B                     	org	3145739
 10812  30000B  E0                 	db	224
 10813                           
 10814                           ;Config register CONFIG7L @ 0x30000C
 10815                           ;	Table Read Protection bit
 10816                           ;	EBTR0 = OFF, Block 0 (000800-001FFFh) is not protected from table reads executed in ot
      +                          her blocks
 10817                           ;	Table Read Protection bit
 10818                           ;	EBTR1 = OFF, Block 1 (002000-003FFFh) is not protected from table reads executed in ot
      +                          her blocks
 10819                           ;	Table Read Protection bit
 10820                           ;	EBTR2 = OFF, Block 2 (004000-005FFFh) is not protected from table reads executed in ot
      +                          her blocks
 10821                           ;	Table Read Protection bit
 10822                           ;	EBTR3 = OFF, Block 3 (006000-007FFFh) is not protected from table reads executed in ot
      +                          her blocks
 10823  30000C                     	org	3145740
 10824  30000C  0F                 	db	15
 10825                           
 10826                           ;Config register CONFIG7H @ 0x30000D
 10827                           ;	Boot Block Table Read Protection bit
 10828                           ;	EBTRB = OFF, Boot block (000000-0007FFh) is not protected from table reads executed in
      +                           other blocks
 10829  30000D                     	org	3145741
 10830  30000D  40                 	db	64
 10831                           tosu	equ	0xFFF
 10832                           tosh	equ	0xFFE
 10833                           tosl	equ	0xFFD
 10834                           stkptr	equ	0xFFC
 10835                           pclatu	equ	0xFFB
 10836                           pclath	equ	0xFFA
 10837                           pcl	equ	0xFF9
 10838                           tblptru	equ	0xFF8
 10839                           tblptrh	equ	0xFF7
 10840                           tblptrl	equ	0xFF6
 10841                           tablat	equ	0xFF5
 10842                           prodh	equ	0xFF4
 10843                           prodl	equ	0xFF3
 10844                           indf0	equ	0xFEF
 10845                           postinc0	equ	0xFEE
 10846                           postdec0	equ	0xFED
 10847                           preinc0	equ	0xFEC
 10848                           plusw0	equ	0xFEB
 10849                           fsr0h	equ	0xFEA
 10850                           fsr0l	equ	0xFE9
 10851                           wreg	equ	0xFE8
 10852                           indf1	equ	0xFE7
 10853                           postinc1	equ	0xFE6
 10854                           postdec1	equ	0xFE5
 10855                           preinc1	equ	0xFE4
 10856                           plusw1	equ	0xFE3
 10857                           fsr1h	equ	0xFE2
 10858                           fsr1l	equ	0xFE1
 10859                           bsr	equ	0xFE0
 10860                           indf2	equ	0xFDF
 10861                           postinc2	equ	0xFDE
 10862                           postdec2	equ	0xFDD
 10863                           preinc2	equ	0xFDC
 10864                           plusw2	equ	0xFDB
 10865                           fsr2h	equ	0xFDA
 10866                           fsr2l	equ	0xFD9
 10867                           status	equ	0xFD8

Data Sizes:
    Strings     203
    Constant    0
    Data        71
    BSS         367
    Persistent  0
    Stack       0

Auto Spaces:
    Space          Size  Autos    Used
    COMRAM           95     95      95
    BANK0           160    151     160
    BANK1           256    200     252
    BANK2           256     92     229
    BANK3           256      0     240
    BANK4           256      0       0
    BANK5           256      0       0
    BANK6           256      0       0
    BANK7           256      0       0

Pointer List with Targets:

    mostrar_estadistica$2238	PTR unsigned char  size(2) Largest target is 60
		 -> date(BANK3[60]), 

    strlen@s	PTR const unsigned char  size(2) Largest target is 60
		 -> stoa@nuls(COMRAM[7]), dbuf(BANK2[32]), ?_sprintf(BANK0[2]), date(BANK3[60]), 
		 -> validar@valor_usart_831(BANK2[30]), validar@valor_usart_829(BANK2[30]), validar@valor_usart(BANK2[30]), 

    strlen@a	PTR const unsigned char  size(2) Largest target is 60
		 -> stoa@nuls(COMRAM[7]), dbuf(BANK2[32]), ?_sprintf(BANK0[2]), date(BANK3[60]), 
		 -> validar@valor_usart_831(BANK2[30]), validar@valor_usart_829(BANK2[30]), validar@valor_usart(BANK2[30]), 

    strcpy@dest	PTR unsigned char  size(2) Largest target is 60
		 -> date(BANK3[60]), 

    strcpy@d	PTR unsigned char  size(2) Largest target is 60
		 -> date(BANK3[60]), 

    strcpy@src	PTR const unsigned char  size(2) Largest target is 60
		 -> time(BANK3[60]), 

    strcpy@s	PTR const unsigned char  size(2) Largest target is 60
		 -> time(BANK3[60]), 

    sp__strcpy	PTR unsigned char  size(2) Largest target is 60
		 -> date(BANK3[60]), 

    strcat@src	PTR const unsigned char  size(2) Largest target is 60
		 -> time(BANK3[60]), 

    strcat@dest	PTR unsigned char  size(2) Largest target is 60
		 -> date(BANK3[60]), 

    fputs@s	PTR const unsigned char  size(2) Largest target is 32
		 -> dbuf(BANK2[32]), 

    fputs@fp	PTR struct _IO_FILE size(2) Largest target is 7
		 -> sprintf@f(BANK0[6]), 

    fputc@fp.buffer	PTR unsigned char  size(2) Largest target is 100
		 -> date(BANK3[60]), time(BANK3[60]), mostrar_estadistica@mensaje_usart_840(BANK1[100]), mostrar_estadistica@mensaje_usart_838(BANK1[100]), 
		 -> mostrar_estadistica@mensaje_usart(BANK0[100]), validar@valor_usart_831(BANK2[30]), validar@valor_usart_829(BANK2[30]), validar@valor_usart(BANK2[30]), 
		 -> imprimir@aux_luz(BANK0[16]), imprimir@aux_temp(BANK0[16]), imprimir@aux_dist(BANK0[16]), 

    fputc@fp	PTR struct _IO_FILE size(2) Largest target is 7
		 -> sprintf@f(BANK0[6]), 

    vfprintf@ap	PTR PTR void  size(2) Largest target is 2
		 -> sprintf@ap(BANK0[2]), 

    vfprintf@fp	PTR struct _IO_FILE size(2) Largest target is 7
		 -> sprintf@f(BANK0[6]), 

    vfprintf@fmt	PTR const unsigned char  size(2) Largest target is 42
		 -> STR_14(CODE[16]), STR_13(CODE[16]), STR_12(CODE[18]), STR_11(CODE[18]), 
		 -> STR_10(CODE[42]), STR_9(CODE[33]), STR_8(CODE[34]), STR_7(CODE[3]), 
		 -> STR_6(CODE[3]), STR_5(CODE[3]), STR_4(CODE[4]), STR_3(CODE[4]), 
		 -> STR_2(CODE[5]), 

    vfprintf@cfmt	PTR unsigned char  size(2) Largest target is 42
		 -> STR_14(CODE[16]), STR_13(CODE[16]), STR_12(CODE[18]), STR_11(CODE[18]), 
		 -> STR_10(CODE[42]), STR_9(CODE[33]), STR_8(CODE[34]), STR_7(CODE[3]), 
		 -> STR_6(CODE[3]), STR_5(CODE[3]), STR_4(CODE[4]), STR_3(CODE[4]), 
		 -> STR_2(CODE[5]), 

    vfpfcnvrt@cp	PTR unsigned char  size(2) Largest target is 2
		 -> ?_sprintf(BANK0[2]), date(BANK3[60]), validar@valor_usart_831(BANK2[30]), validar@valor_usart_829(BANK2[30]), 
		 -> validar@valor_usart(BANK2[30]), 

    vfpfcnvrt@fp	PTR struct _IO_FILE size(2) Largest target is 7
		 -> sprintf@f(BANK0[6]), 

    vfpfcnvrt@ap	PTR PTR void  size(2) Largest target is 2
		 -> sprintf@ap(BANK0[2]), 

    vfpfcnvrt@fmt	PTR PTR unsigned char  size(2) Largest target is 2
		 -> vfprintf@cfmt(BANK0[2]), 

    xtoa@fp	PTR struct _IO_FILE size(2) Largest target is 7
		 -> sprintf@f(BANK0[6]), 

    stoa@fp	PTR struct _IO_FILE size(2) Largest target is 7
		 -> sprintf@f(BANK0[6]), 

    stoa@s	PTR unsigned char  size(2) Largest target is 2
		 -> ?_sprintf(BANK0[2]), date(BANK3[60]), validar@valor_usart_831(BANK2[30]), validar@valor_usart_829(BANK2[30]), 
		 -> validar@valor_usart(BANK2[30]), 

    stoa@cp	PTR unsigned char  size(2) Largest target is 7
		 -> stoa@nuls(COMRAM[7]), ?_sprintf(BANK0[2]), date(BANK3[60]), validar@valor_usart_831(BANK2[30]), 
		 -> validar@valor_usart_829(BANK2[30]), validar@valor_usart(BANK2[30]), 

    dtoa@fp	PTR struct _IO_FILE size(2) Largest target is 7
		 -> sprintf@f(BANK0[6]), 

    pad@fp	PTR struct _IO_FILE size(2) Largest target is 7
		 -> sprintf@f(BANK0[6]), 

    pad@buf	PTR unsigned char  size(2) Largest target is 32
		 -> dbuf(BANK2[32]), 

    sprintf@fmt	PTR const unsigned char  size(2) Largest target is 42
		 -> STR_14(CODE[16]), STR_13(CODE[16]), STR_12(CODE[18]), STR_11(CODE[18]), 
		 -> STR_10(CODE[42]), STR_9(CODE[33]), STR_8(CODE[34]), STR_7(CODE[3]), 
		 -> STR_6(CODE[3]), STR_5(CODE[3]), STR_4(CODE[4]), STR_3(CODE[4]), 
		 -> STR_2(CODE[5]), 

    sprintf@s	PTR unsigned char  size(2) Largest target is 100
		 -> date(BANK3[60]), time(BANK3[60]), mostrar_estadistica@mensaje_usart_840(BANK1[100]), mostrar_estadistica@mensaje_usart_838(BANK1[100]), 
		 -> mostrar_estadistica@mensaje_usart(BANK0[100]), validar@valor_usart_831(BANK2[30]), validar@valor_usart_829(BANK2[30]), validar@valor_usart(BANK2[30]), 
		 -> imprimir@aux_luz(BANK0[16]), imprimir@aux_temp(BANK0[16]), imprimir@aux_dist(BANK0[16]), 

    sprintf@ap	PTR void [1] size(2) Largest target is 2
		 -> ?_sprintf(BANK0[2]), 

    S1765_IO_FILE$buffer	PTR unsigned char  size(2) Largest target is 100
		 -> date(BANK3[60]), time(BANK3[60]), mostrar_estadistica@mensaje_usart_840(BANK1[100]), mostrar_estadistica@mensaje_usart_838(BANK1[100]), 
		 -> mostrar_estadistica@mensaje_usart(BANK0[100]), validar@valor_usart_831(BANK2[30]), validar@valor_usart_829(BANK2[30]), validar@valor_usart(BANK2[30]), 
		 -> imprimir@aux_luz(BANK0[16]), imprimir@aux_temp(BANK0[16]), imprimir@aux_dist(BANK0[16]), 

    f.buffer	PTR unsigned char  size(2) Largest target is 100
		 -> date(BANK3[60]), time(BANK3[60]), mostrar_estadistica@mensaje_usart_840(BANK1[100]), mostrar_estadistica@mensaje_usart_838(BANK1[100]), 
		 -> mostrar_estadistica@mensaje_usart(BANK0[100]), validar@valor_usart_831(BANK2[30]), validar@valor_usart_829(BANK2[30]), validar@valor_usart(BANK2[30]), 
		 -> imprimir@aux_luz(BANK0[16]), imprimir@aux_temp(BANK0[16]), imprimir@aux_dist(BANK0[16]), 

    sp__strcat	PTR unsigned char  size(2) Largest target is 60
		 -> date(BANK3[60]), 

    USART_SendString@out	PTR const unsigned char  size(2) Largest target is 100
		 -> mostrar_estadistica@mensaje_usart_840(BANK1[100]), mostrar_estadistica@mensaje_usart_838(BANK1[100]), mostrar_estadistica@mensaje_usart(BANK0[100]), 

    sp__obtener_tiempo_fecha	PTR unsigned char  size(2) Largest target is 60
		 -> date(BANK3[60]), 

    mostrar_estadistica@valor_usart	PTR unsigned char  size(2) Largest target is 30
		 -> validar@valor_usart_831(BANK2[30]), validar@valor_usart_829(BANK2[30]), validar@valor_usart(BANK2[30]), 

    LCD_Custom_Char@msg	PTR unsigned char  size(2) Largest target is 8
		 -> iniciar_emoticones@todo_bien(COMRAM[8]), iniciar_emoticones@luz(COMRAM[8]), iniciar_emoticones@distancia(COMRAM[8]), iniciar_emoticones@temperatura(COMRAM[8]), 

    LCD_String_xy@msg	PTR const unsigned char  size(2) Largest target is 17
		 -> Reloj_Calendario@Time(BANK1[15]), Reloj_Calendario@Date(BANK2[17]), imprimir@aux_luz(BANK0[16]), imprimir@aux_temp(BANK0[16]), 
		 -> imprimir@aux_dist(BANK0[16]), STR_1(CODE[7]), 

    LCD_String@msg	PTR const unsigned char  size(2) Largest target is 17
		 -> Reloj_Calendario@Time(BANK1[15]), Reloj_Calendario@Date(BANK2[17]), imprimir@aux_luz(BANK0[16]), imprimir@aux_temp(BANK0[16]), 
		 -> imprimir@aux_dist(BANK0[16]), STR_1(CODE[7]), 


Critical Paths under _main in COMRAM

    _strcat->_strcpy
    _strcpy->_strlen
    _RTC_Read_Clock->_I2C_Read
    _RTC_Read_Clock->_I2C_Repeated_Start
    _RTC_Read_Clock->_I2C_Start
    _RTC_Read_Calendar->_I2C_Read
    _RTC_Read_Calendar->_I2C_Repeated_Start
    _RTC_Read_Calendar->_I2C_Start
    _I2C_Start->_I2C_Write
    _I2C_Repeated_Start->_I2C_Write
    _USART_SendString->_USART_TxChar
    _mostrar_emoticon->_LCD_Char
    _mostrar_emoticon->_LCD_Command
    _sensor_temperatura->___fltol
    ___flmul->___xxtofl
    _sensor_luz->___lwdiv
    _adc_init10Bits->_adc_config
    ___lwdiv->___wmul
    _sensor_distancia->_obtener_distancia
    _vfprintf->_vfpfcnvrt
    _vfpfcnvrt->_xtoa
    _xtoa->_pad
    _toupper->_islower
    _stoa->_fputc
    _dtoa->_pad
    _pad->_fputs
    _fputs->_fputc
    _abs->___aomod
    _LCD_String_xy->_LCD_String
    _LCD_String->_LCD_Char
    _LCD_Clear->_LCD_Command
    _iniciar_pic->_pines_ConfigurarHora
    _pines_ConfigurarHora->_inicializar_lcd
    _inicializar_lcd->_LCD_Command
    _iniciar_emoticones->_LCD_Custom_Char
    _LCD_Custom_Char->_LCD_Char
    _LCD_Custom_Char->_LCD_Command
    _USART_Init->___fladd
    ___fltol->___flmul
    ___fldiv->___xxtofl
    ___fladd->___fldiv

Critical Paths under _main in BANK0

    _main->_principal
    _principal->_encender_leds
    _validar->_mostrar_estadistica
    _mostrar_estadistica->_obtener_tiempo_fecha
    _obtener_tiempo_fecha->_RTC_obtener_hora
    _RTC_obtener_hora->_sprintf
    _RTC_obtener_fecha->_sprintf
    _imprimir->_sprintf
    _sprintf->_vfprintf
    _encender_leds->_validar

Critical Paths under _main in BANK1

    _validar->_mostrar_estadistica

Critical Paths under _main in BANK2

    _principal->_validar
    _encender_leds->_validar

Critical Paths under _main in BANK3

    None.

Critical Paths under _main in BANK4

    None.

Critical Paths under _main in BANK5

    None.

Critical Paths under _main in BANK6

    None.

Critical Paths under _main in BANK7

    None.

Call Graph Tables:

 ---------------------------------------------------------------------------------
 (Depth) Function   	        Calls       Base Space   Used Autos Params    Refs
 ---------------------------------------------------------------------------------
 (0) _main                                                 0     0      0  105503
                         _USART_Init
                    _inicializar_lcd
                 _iniciar_emoticones
                        _iniciar_pic
                          _init_leds
                          _principal
 ---------------------------------------------------------------------------------
 (1) _principal                                            8     8      0  100030
                                            143 BANK0      8     8      0
                      _encender_leds
                           _imprimir
                   _sensor_distancia
                         _sensor_luz
                 _sensor_temperatura
                            _validar
 ---------------------------------------------------------------------------------
 (2) _validar                                             98    92      6   75570
                                            135 BANK0      6     0      6
                                              0 BANK2     92    92      0
                   _mostrar_emoticon
                _mostrar_estadistica
                            _sprintf
 ---------------------------------------------------------------------------------
 (3) _mostrar_estadistica                                306   302      4   56605
                                             29 BANK0    106   102      4
                                              0 BANK1    200   200      0
                   _USART_SendString
               _obtener_tiempo_fecha
                            _sprintf
 ---------------------------------------------------------------------------------
 (4) _obtener_tiempo_fecha                                 2     0      2   37404
                                             27 BANK0      2     0      2
                           _I2C_Init
                  _RTC_obtener_fecha
                   _RTC_obtener_hora
                             _strcat
 ---------------------------------------------------------------------------------
 (5) _strcat                                               4     0      4     806
                                             12 COMRAM     4     0      4
                             _strcpy
                             _strlen
 ---------------------------------------------------------------------------------
 (6) _strcpy                                               8     4      4     248
                                              4 COMRAM     8     4      4
                             _strlen (ARG)
 ---------------------------------------------------------------------------------
 (5) _RTC_obtener_hora                                     2     2      0   18322
                                             26 BANK0      1     1      0
                           _I2C_Stop
                     _RTC_Read_Clock
                            _sprintf
 ---------------------------------------------------------------------------------
 (6) _RTC_Read_Clock                                       2     2      0     177
                                              2 COMRAM     2     2      0
                           _I2C_Read
                 _I2C_Repeated_Start
                          _I2C_Start
                           _I2C_Stop
                          _I2C_Write
 ---------------------------------------------------------------------------------
 (5) _RTC_obtener_fecha                                    0     0      0   18276
                  _RTC_Read_Calendar
                            _sprintf
 ---------------------------------------------------------------------------------
 (6) _RTC_Read_Calendar                                    2     2      0     177
                                              2 COMRAM     2     2      0
                           _I2C_Read
                 _I2C_Repeated_Start
                          _I2C_Start
                           _I2C_Stop
                          _I2C_Write
 ---------------------------------------------------------------------------------
 (7) _I2C_Stop                                             0     0      0       0
 ---------------------------------------------------------------------------------
 (7) _I2C_Start                                            1     1      0      44
                                              1 COMRAM     1     1      0
                          _I2C_Write
 ---------------------------------------------------------------------------------
 (7) _I2C_Repeated_Start                                   1     1      0      44
                                              1 COMRAM     1     1      0
                          _I2C_Write
 ---------------------------------------------------------------------------------
 (7) _I2C_Write                                            1     1      0      22
                                              0 COMRAM     1     1      0
                          _I2C_Ready
 ---------------------------------------------------------------------------------
 (7) _I2C_Read                                             2     2      0      45
                                              0 COMRAM     2     2      0
                            _I2C_Ack
                           _I2C_Nack
                          _I2C_Ready
 ---------------------------------------------------------------------------------
 (8) _I2C_Ready                                            0     0      0       0
 ---------------------------------------------------------------------------------
 (8) _I2C_Nack                                             0     0      0       0
 ---------------------------------------------------------------------------------
 (8) _I2C_Ack                                              0     0      0       0
 ---------------------------------------------------------------------------------
 (4) _USART_SendString                                     2     0      2     295
                                              1 COMRAM     2     0      2
                       _USART_TxChar
 ---------------------------------------------------------------------------------
 (5) _USART_TxChar                                         1     1      0      22
                                              0 COMRAM     1     1      0
 ---------------------------------------------------------------------------------
 (3) _mostrar_emoticon                                     1     1      0     132
                                              2 COMRAM     1     1      0
                           _LCD_Char
                        _LCD_Command
 ---------------------------------------------------------------------------------
 (2) _sensor_temperatura                                   2     0      2    2918
                                             49 COMRAM     2     0      2
                            ___flmul
                            ___fltol
                           ___xxtofl
                     _adc_init10Bits
                     _adc_read10Bits
 ---------------------------------------------------------------------------------
 (3) ___flmul                                             25    17      8    1744
                                             14 COMRAM    25    17      8
                           ___xxtofl (ARG)
 ---------------------------------------------------------------------------------
 (2) _sensor_luz                                           3     1      2    1326
                                             13 COMRAM     3     1      2
                            ___lwdiv
                             ___wmul
                     _adc_init10Bits
                     _adc_read10Bits
 ---------------------------------------------------------------------------------
 (3) _adc_read10Bits                                       6     4      2      47
                                              0 COMRAM     6     4      2
 ---------------------------------------------------------------------------------
 (3) _adc_init10Bits                                       2     0      2     272
                                              2 COMRAM     2     0      2
                         _adc_config
 ---------------------------------------------------------------------------------
 (4) _adc_config                                           2     0      2      98
                                              0 COMRAM     2     0      2
 ---------------------------------------------------------------------------------
 (3) ___wmul                                               6     2      4     693
                                              0 COMRAM     6     2      4
 ---------------------------------------------------------------------------------
 (3) ___lwdiv                                              7     3      4     314
                                              6 COMRAM     7     3      4
                             ___wmul (ARG)
 ---------------------------------------------------------------------------------
 (2) _sensor_distancia                                     2     0      2      24
                                              4 COMRAM     2     0      2
                         _init_ports
                  _obtener_distancia
 ---------------------------------------------------------------------------------
 (3) _obtener_distancia                                    4     2      2      24
                                              0 COMRAM     4     2      2
 ---------------------------------------------------------------------------------
 (3) _init_ports                                           0     0      0       0
 ---------------------------------------------------------------------------------
 (2) _imprimir                                            56    50      6   19890
                                             26 BANK0     56    50      6
                          _LCD_Clear
                        _LCD_Command
                      _LCD_String_xy
                            _sprintf
 ---------------------------------------------------------------------------------
 (3) _sprintf                                             20    10     10   18099
                                              8 BANK0     18     8     10
                           _vfprintf
 ---------------------------------------------------------------------------------
 (4) _vfprintf                                             8     2      6   15920
                                              0 BANK0      8     2      6
                          _vfpfcnvrt
 ---------------------------------------------------------------------------------
 (5) _vfpfcnvrt                                           43    37      6   15558
                                             66 COMRAM    29    23      6
                               _dtoa
                              _fputc
                               _stoa
                               _xtoa
 ---------------------------------------------------------------------------------
 (6) _xtoa                                                39    28     11    5555
                                             27 COMRAM    39    28     11
                            _isalpha
                            _isupper
                                _pad
                            _toupper
 ---------------------------------------------------------------------------------
 (7) _toupper                                              8     6      2     412
                                              6 COMRAM     8     6      2
                            _islower
 ---------------------------------------------------------------------------------
 (8) _islower                                              6     4      2     161
                                              0 COMRAM     6     4      2
 ---------------------------------------------------------------------------------
 (7) _isupper                                              6     4      2     161
                                              0 COMRAM     6     4      2
 ---------------------------------------------------------------------------------
 (7) _isalpha                                              6     4      2     161
                                              0 COMRAM     6     4      2
 ---------------------------------------------------------------------------------
 (6) _stoa                                                22    18      4    2215
                                              9 COMRAM    22    18      4
                              _fputc
                             _strlen
 ---------------------------------------------------------------------------------
 (6) _dtoa                                                36    26     10    5650
                                             27 COMRAM    36    26     10
                            ___aodiv
                            ___aomod
                                _abs
                                _pad
 ---------------------------------------------------------------------------------
 (7) _pad                                                 11     5      6    4001
                                             16 COMRAM    11     5      6
                              _fputc
                              _fputs
                             _strlen
 ---------------------------------------------------------------------------------
 (8) _strlen                                               4     2      2     318
                                              0 COMRAM     4     2      2
 ---------------------------------------------------------------------------------
 (8) _fputs                                                7     3      4    1691
                                              9 COMRAM     7     3      4
                              _fputc
 ---------------------------------------------------------------------------------
 (9) _fputc                                                9     5      4    1290
                                              0 COMRAM     9     5      4
                              _putch
 ---------------------------------------------------------------------------------
 (10) _putch                                               1     1      0       0
 ---------------------------------------------------------------------------------
 (7) _abs                                                  4     2      2     142
                                             18 COMRAM     4     2      2
                            ___aomod (ARG)
 ---------------------------------------------------------------------------------
 (7) ___aomod                                             18     2     16     448
                                              0 COMRAM    18     2     16
 ---------------------------------------------------------------------------------
 (7) ___aodiv                                             26    10     16     452
                                              0 COMRAM    26    10     16
 ---------------------------------------------------------------------------------
 (3) _LCD_String_xy                                        5     2      3    1256
                                              4 COMRAM     5     2      3
                        _LCD_Command
                         _LCD_String
 ---------------------------------------------------------------------------------
 (4) _LCD_String                                           2     0      2     165
                                              2 COMRAM     2     0      2
                           _LCD_Char
 ---------------------------------------------------------------------------------
 (3) _LCD_Clear                                            0     0      0      44
                        _LCD_Command
 ---------------------------------------------------------------------------------
 (2) _encender_leds                                        2     0      2     164
                                            141 BANK0      2     0      2
                            _validar (ARG)
 ---------------------------------------------------------------------------------
 (1) _init_leds                                            0     0      0       0
 ---------------------------------------------------------------------------------
 (1) _iniciar_pic                                          0     0      0      44
                           _init_rtc
               _pines_ConfigurarHora
 ---------------------------------------------------------------------------------
 (2) _pines_ConfigurarHora                                 1     1      0      44
                                              3 COMRAM     1     1      0
                    _inicializar_lcd
 ---------------------------------------------------------------------------------
 (3) _inicializar_lcd                                      1     1      0      44
                                              2 COMRAM     1     1      0
                        _LCD_Command
 ---------------------------------------------------------------------------------
 (2) _init_rtc                                             0     0      0       0
                           _I2C_Init
 ---------------------------------------------------------------------------------
 (5) _I2C_Init                                             0     0      0       0
 ---------------------------------------------------------------------------------
 (1) _iniciar_emoticones                                  32    32      0     622
                                              6 COMRAM    32    32      0
                    _LCD_Custom_Char
 ---------------------------------------------------------------------------------
 (2) _LCD_Custom_Char                                      4     2      2     526
                                              2 COMRAM     4     2      2
                           _LCD_Char
                        _LCD_Command
 ---------------------------------------------------------------------------------
 (4) _LCD_Command                                          2     2      0      44
                                              0 COMRAM     2     2      0
 ---------------------------------------------------------------------------------
 (4) _LCD_Char                                             2     2      0      44
                                              0 COMRAM     2     2      0
 ---------------------------------------------------------------------------------
 (1) _USART_Init                                           8     4      4    4763
                                             55 COMRAM     8     4      4
                            ___fladd
                            ___fldiv
                            ___fltol
                           ___xxtofl
 ---------------------------------------------------------------------------------
 (3) ___xxtofl                                            14    10      4     474
                                              0 COMRAM    14    10      4
 ---------------------------------------------------------------------------------
 (3) ___fltol                                             10     6      4     381
                                             39 COMRAM    10     6      4
                            ___flmul (ARG)
                           ___xxtofl (ARG)
 ---------------------------------------------------------------------------------
 (2) ___fldiv                                             25    17      8    1399
                                             14 COMRAM    25    17      8
                           ___xxtofl (ARG)
 ---------------------------------------------------------------------------------
 (2) ___fladd                                             16     8      8    2388
                                             39 COMRAM    16     8      8
                            ___fldiv (ARG)
                           ___xxtofl (ARG)
 ---------------------------------------------------------------------------------
 Estimated maximum stack depth 10
 ---------------------------------------------------------------------------------

 Call Graph Graphs:

 _main (ROOT)
   _USART_Init
     ___fladd
       ___fldiv (ARG)
         ___xxtofl (ARG)
       ___xxtofl (ARG)
     ___fldiv
     ___fltol
       ___flmul (ARG)
         ___xxtofl (ARG)
       ___xxtofl (ARG)
     ___xxtofl
   _inicializar_lcd
     _LCD_Command
   _iniciar_emoticones
     _LCD_Custom_Char
       _LCD_Char
       _LCD_Command
   _iniciar_pic
     _init_rtc
       _I2C_Init
     _pines_ConfigurarHora
       _inicializar_lcd
   _init_leds
   _principal
     _encender_leds
       _validar (ARG)
         _mostrar_emoticon
           _LCD_Char
           _LCD_Command
         _mostrar_estadistica
           _USART_SendString
             _USART_TxChar
           _obtener_tiempo_fecha
             _I2C_Init
             _RTC_obtener_fecha
               _RTC_Read_Calendar
                 _I2C_Read
                   _I2C_Ack
                   _I2C_Nack
                   _I2C_Ready
                 _I2C_Repeated_Start
                   _I2C_Write
                     _I2C_Ready
                 _I2C_Start
                   _I2C_Write
                 _I2C_Stop
                 _I2C_Write
               _sprintf
                 _vfprintf
                   _vfpfcnvrt
                     _dtoa
                       ___aodiv
                       ___aomod
                       _abs
                         ___aomod (ARG)
                       _pad
                         _fputc
                           _putch
                         _fputs
                           _fputc
                         _strlen
                     _fputc
                     _stoa
                       _fputc
                       _strlen
                     _xtoa
                       _isalpha
                       _isupper
                       _pad
                       _toupper
                         _islower
             _RTC_obtener_hora
               _I2C_Stop
               _RTC_Read_Clock
                 _I2C_Read
                 _I2C_Repeated_Start
                 _I2C_Start
                 _I2C_Stop
                 _I2C_Write
               _sprintf
             _strcat
               _strcpy
                 _strlen (ARG)
               _strlen
           _sprintf
         _sprintf
     _imprimir
       _LCD_Clear
         _LCD_Command
       _LCD_Command
       _LCD_String_xy
         _LCD_Command
         _LCD_String
           _LCD_Char
       _sprintf
     _sensor_distancia
       _init_ports
       _obtener_distancia
     _sensor_luz
       ___lwdiv
         ___wmul (ARG)
       ___wmul
       _adc_init10Bits
         _adc_config
       _adc_read10Bits
     _sensor_temperatura
       ___flmul
       ___fltol
       ___xxtofl
       _adc_init10Bits
       _adc_read10Bits
     _validar

 Address spaces:
Name               Size   Autos  Total    Cost      Usage
BIGRAM             7FF      0       0      21        0.0%
EEDATA             100      0       0       0        0.0%
BITBANK7           100      0       0      18        0.0%
BANK7              100      0       0      19        0.0%
BITBANK6           100      0       0      16        0.0%
BANK6              100      0       0      17        0.0%
BITBANK5           100      0       0      14        0.0%
BANK5              100      0       0      15        0.0%
BITBANK4           100      0       0      12        0.0%
BANK4              100      0       0      13        0.0%
BITBANK3           100      0       0      10        0.0%
BANK3              100      0      F0      11       93.8%
BITBANK2           100      0       0       8        0.0%
BANK2              100     5C      E5       9       89.5%
BITBANK1           100      0       0       6        0.0%
BANK1              100     C8      FC       7       98.4%
BITBANK0            A0      0       0       4        0.0%
BANK0               A0     97      A0       5      100.0%
BITCOMRAM           5F      0       0       0        0.0%
COMRAM              5F     5F      5F       1      100.0%
BITSFR               0      0       0     200        0.0%
SFR                  0      0       0     200        0.0%
STACK                0      0       0       2        0.0%
NULL                 0      0       0       0        0.0%
ABS                  0      0     3D0      20        0.0%
DATA                 0      0     3D0       3        0.0%
CODE                 0      0       0       0        0.0%


Microchip Technology PIC18 Macro Assembler V2.32 build 20210201212658 
Symbol Table                                                                                   Thu Oct 07 11:44:33 2021

              __end_of_mostrar_emoticon 38F8           __size_of_obtener_tiempo_fecha 002A  
                          ___fldiv@aexp 0027                            ___fldiv@bexp 0026  
                                     _i 01E4                      __size_of_I2C_Ready 0012  
                          ___fldiv@sign 001F                      __size_of_I2C_Start 002E  
                          ?_LCD_Command 0001                             _SSPSTATbits 000FC7  
                    __size_of_I2C_Write 0022                     ___wmul@multiplicand 0003  
                           ?_LCD_String 0003                         _LCD_Custom_Char 3382  
RTC_Read_Calendar@read_calendar_address 0004                                     l120 2A12  
                                   l201 34CE                                     l123 389A  
                                   l212 38F6                                     l134 2E98  
                                   l143 292E                                     l400 38CE  
                                   l209 3974                                     l161 3954  
                                   l218 33C8                                     l403 38E0  
                                   l164 37C0                                     l500 37A2  
                                   l341 396C                                     l157 343C  
                                   l190 32EC                                     l350 2E16  
                                   l262 334C                                     l158 344E  
                                   l166 37CE                                     l502 37BC  
                                   l167 37E8                                     l271 2F94  
                                   l511 390A                                     l184 36D0  
                                   l256 2D94                                     l416 3732  
                                   l274 2F18                                     l522 3932  
                                   l370 2844                                     l187 329C  
                                   l259 3962                                     l267 3378  
                                   l515 385A                                     l507 38FA  
                                   l348 2E10                                     l196 31A0  
                                   l268 3380                                     l364 201C  
                                   l525 3910                                     l509 3908  
                                   l605 3336                                     l621 3812  
                                   l471 38B4                                     l519 3924  
                                   l463 358C                                     l615 2ADE  
                                   l800 2358                                     l528 391E  
                                   l608 31FA                                     l465 359A  
                                   l474 3934                                     l618 3666  
                                   l467 35BA                                     l491 3766  
                                   l476 3942                                     l468 35C0  
                                   l397 2D02                                     l813 2642  
                                   l477 3944                                     l493 3774  
                      ?_inicializar_lcd 0001                                     l495 378E  
                                   l665 397A                                     l498 3794  
                                   l668 387C                                     l686 3838  
                                   l983 2748                                     _PEN 007E2A  
                                   _Day 01D4                                     _abs 3450  
                                   _day 00FB                         __end_of_I2C_Ack 3934  
                                   _pad 2BAA                                     _min 01D6  
                                   _sec 01D8                                     _var 0300  
                                   wreg 000FE8                            ___flmul@aexp 0020  
                          ___flmul@bexp 0021                            ___flmul@sign 001B  
                          ___flmul@temp 0026                            ___flmul@prod 0022  
                           LCD_Char@dat 0002                            ___fltol@exp1 0031  
                                  ?_abs 0013                                    l1300 0E52  
                                  l1214 0ABC                                    l1310 10AE  
                                  l1231 0BD6                                    l1223 0D8C  
                                  l1215 0AAA                                    l1240 0CA6  
                                  l1216 0A70                                    l1400 2C32  
                                  l1304 11B6                                    l1241 0C94  
                                  l1402 2C6E                                    l1410 1910  
                                  l1307 1048                                    l1341 2074  
                                  l1317 1178                                    l1309 10C0  
                                  l1270 13B0                                    l1503 3486  
                                  l1344 21D0                                    l1408 1908  
                                  l1184 3082                                    l1281 146E  
                                  l1273 1374                                    l4001 3342  
                                  l1177 307A                                    l1282 145C  
                                  l1506 348E                                    l1530 2BA8  
                                  l1355 2168                                    l1451 24DE  
                                  l1435 23DA                                    l1515 3630  
                                  l4003 334A                                    l4011 274A  
                                  l1268 1550                                    l1348 210C  
                                  l1428 1B4C                                    l1364 324C  
                                  l1541 397C                                    l1437 23E2  
                                  l1509 3586                                    l4005 335E  
                                  l4101 0F4E                                    l4021 27E4  
                                  l4013 275E                                    l1446 248C  
                                  l1279 13F6                                    l1447 24D6  
                                  l4007 3362                                    l4031 3830  
                                  l4111 0FCC                                    l4103 0F5E  
                                  l4023 27F0                                    l4015 2790  
                                  l1560 369C                                    l1456 1B8A  
                                  l4201 2718                                    l3401 2338  
                                  l1481 1E2C                                    l1465 1C2A  
                                  l4009 336A                                    l4121 1046  
                                  l4113 1002                                    l4105 0F7A  
                                  l4041 0DAA                                    l4025 2806  
                                  l4017 279C                                    l1538 340C  
                                  l1570 3142                                    l1458 1B92  
                                  l1554 354A                                    l4203 2728  
                                  l3411 2512                                    l3331 2B0E  
                                  l4211 3018                                    l4131 10A6  
                                  l4123 1058                                    l4115 1010  
                                  l4107 0F86                                    l4051 0DF0  
                                  l4043 0DBA                                    l4035 0D8E  
                                  l4027 2838                                    l4019 27B2  
                                  l1548 3760                                    l4205 2738  
                                  l3421 256A                                    l3413 2516  
                                  l3405 24E0                                    l3333 2B2C  
                                  l3325 2AE0                                    l3341 33D6  
                                  l1397 2BF0                                    l3501 1918  
                                  l1565 313A                                    l4221 304E  
                                  l4213 302A                                    l4029 3814  
                                  l4141 1114                                    l4125 1066  
                                  l4117 102E                                    l4109 0FA2  
                                  l4061 0E1C                                    l4053 0DF6  
                                  l4045 0DCA                                    l4037 0D9A  
                                  l4301 2F1C                                    l4231 2020  
                                  l3431 25EC                                    l3423 257E  
                                  l3415 2524                                    l3407 24E4  
                                  l3335 2B62                                    l3327 2AF2  
                                  l3343 33E8                                    l3351 3678  
                                  l3511 1952                                    l3503 192A  
                                  l1479 1DC8                                    l4223 3064  
                                  l4215 3032                                    l4311 2E9A  
                                  l4151 117C                                    l4135 10D0  
                                  l4143 1118                                    l4127 106A  
                                  l4119 1038                                    l4071 0E72  
                                  l4063 0E2C                                    l4055 0DFC  
                                  l4047 0DDA                                    l4039 0DA8  
                                  l4303 2F28                                    l1576 35F8  
                                  l1488 1862                                    l4233 2030  
                                  l4401 2D96                                    l3361 21D2  
                                  l3425 258C                                    l3433 25F2  
                                  l3417 2544                                    l3409 24F2  
                                  l3329 2B04                                    l3345 33EC  
                                  l3353 3690                                    l3441 2BAA  
                                  l3513 1958                                    l3521 1A4A  
                                  l3505 193A                                    l3601 1BB2  
                                  l4225 306C                                    l4217 303A  
                                  l4209 3010                                    l4321 2F10  
                                  l4313 2E9C                                    l4161 11A6  
                                  l4153 118C                                    l4145 1132  
                                  l4137 10DC                                    l4129 1078  
                                  l4081 0EB2                                    l4065 0E3C  
                                  l4057 0E0A                                    l4049 0DE0  
                                  l4305 2F34                                    l1498 30DC  
                                  l4171 266E                                    l4251 20F6  
                                  l4243 20AE                                    l4235 203E  
                                  l4411 2DEA                                    l4403 2DAA  
                                  l3371 2216                                    l3363 21D6  
                                  l3435 2602                                    l3427 25BA  
                                  l3419 2562                                    l3339 33CA  
                                  l3347 3668                                    l3451 2BFC  
                                  l3443 2BBA                                    l3523 1A64  
                                  l3531 1AC6                                    l3515 19DA  
                                  l3507 1940                                    l3611 1BF2  
                                  l3603 1BD2                                    l1499 30E4  
                                  l4331 2882                                    l4227 306E  
                                  l4219 3048                                    l4315 2EA8  
                                  l4155 119A                                    l4147 1146  
                                  l4139 10EA                                    l4091 0EFC  
                                  l4083 0EBE                                    l4075 0E86  
                                  l4067 0E42                                    l4059 0E0C  
                                  l4307 2F8C                                    l4501 091C  
                                  l4181 26BC                                    l4173 2698  
                                  l4165 2644                                    l4261 2176  
                                  l4253 2102                                    l4245 20B6  
                                  l4237 2084                                    l4421 3878  
                                  l4413 2E06                                    l4405 2DB4  
                                  l3381 226C                                    l3373 2236  
                                  l3365 21E4                                    l3437 2622  
                                  l3429 25DA                                    l3349 3674  
                                  l3453 2C10                                    l3445 2BCE  
                                  l3541 1B0C                                    l3533 1AD8  
                                  l3525 1A82                                    l3517 19E0  
                                  l3509 1948                                    l3357 35C2  
                                  l3621 1C70                                    l3613 1C0E  
                                  l3605 1BDA                                    l4341 28DC  
                                  l4333 288E                                    l4325 2846  
                                  l4229 3074                                    l4317 2EB4  
                                  l4157 119C                                    l4149 1160  
                                  l4093 0F08                                    l4085 0ED6  
                                  l4077 0E92                                    l4069 0E62  
                                  l4511 094E                                    l4503 0924  
                                  l4191 26E8                                    l4175 269A  
                                  l4167 265A                                    l4271 21BE  
                                  l4263 2178                                    l4255 213E  
                                  l4247 20C2                                    l4239 209A  
                                  l4423 3384                                    l4415 3976  
                                  l4407 2DC6                                    l3391 22EE  
                                  l3383 2280                                    l3375 223A  
                                  l3367 2204                                    l3463 3450  
                                  l3455 2C14                                    l3447 2BDC  
                                  l3543 1B14                                    l3535 1AE8  
                                  l3527 1A9C                                    l3519 19E6  
                                  l3551 236C                                    l3471 354C  
                                  l3631 1CE0                                    l3615 1C1E  
                                  l3607 1BE4                                    l3711 1748  
                                  l3703 16DC                                    l4343 28EE  
                                  l4335 28AC                                    l4327 2858  
                                  l4319 2EE0                                    l4159 11A2  
                                  l4095 0F18                                    l4087 0EE2  
                                  l4079 0E9C                                    l4351 1E2E  
                                  l4601 0B26                                    l4521 0984  
                                  l4513 0954                                    l4505 0934  
                                  l4177 26AA                                    l4273 21C0  
                                  l4265 217C                                    l4257 214A  
                                  l4249 20F4                                    l4433 33A4  
                                  l4425 3394                                    l4417 385C  
                                  l4409 2DD0                                    l3393 22F0  
                                  l3385 228E                                    l3377 2246  
                                  l3369 2208                                    l3465 346A  
                                  l3457 2C42                                    l3449 2BE8  
                                  l3537 1AEE                                    l3545 1B24  
                                  l3529 1AB6                                    l3561 23AA  
                                  l3553 2374                                    l3481 312E  
                                  l3641 1D84                                    l3633 1CE6  
                                  l3625 1CAA                                    l3609 1BEA  
                                  l3721 17F2                                    l3713 1784  
                                  l3705 1700                                    l4345 2900  
                                  l4337 28B8                                    l4329 2864  
                                  l4281 2D14                                    l4097 0F24  
                                  l4089 0EEE                                    l3801 3322  
                                  l4361 1EC4                                    l4353 1E38  
                                  l4603 0B2A                                    l4611 0B4A  
                                  l4531 09C0                                    l4523 0994  
                                  l4515 0962                                    l4507 093A  
                                  l4187 26D4                                    l4179 26AE  
                                  l4267 21A0                                    l4259 2158  
                                  l4435 33B6                                    l4427 33A0  
                                  l4419 3876                                    l3395 2302  
                                  l3387 22A0                                    l3379 2264  
                                  l3459 2C56                                    l3539 1B00  
                                  l3491 18AC                                    l3571 241E  
                                  l3563 23B8                                    l3555 2386  
                                  l3467 35FA                                    l3475 30E6  
                                  l3651 1DEE                                    l3643 1D9E  
                                  l3635 1CEC                                    l3627 1CBC  
                                  l3619 1C5E                                    l3723 1806  
                                  l3707 1724                                    l4347 2912  
                                  l4339 28D6                                    l4291 2D70  
                                  l4283 2D2C                                    l4099 0F34  
                                  l3811 31D6                                    l3803 3332  
                                  l4371 1F16                                    l4363 1ECC  
                                  l4355 1E56                                    l4613 0B70  
                                  l4621 0BC6                                    l4605 0B38  
                                  l4541 09DE                                    l4533 09CE  
                                  l4525 0996                                    l4517 0964  
                                  l4509 094C                                    l4701 1204  
                                  l4197 26FC                                    l4189 26DE  
                                  l4269 21B0                                    l3821 32A0  
                                  l3901 328C                                    l4437 33B8  
                                  l3389 22CE                                    l3397 2308  
                                  l3493 18CC                                    l3581 246E  
                                  l3573 243C                                    l3557 238E  
                                  l3549 235A                                    l3653 1E04  
                                  l3645 1DB8                                    l3629 1CD0  
                                  l3637 1D4A                                    l3709 173A  
                                  l3717 17C0                                    l3733 182C  
                                  l4349 292A                                    l4293 2D86  
                                  l4285 2D42                                    l4277 2D04  
                                  l3485 3934                                    l3741 358A  
                                  l3661 383C                                    l3813 31E6  
                                  l3805 31A4                                    l4381 1F7A  
                                  l4373 1F48                                    l4365 1ED2  
                                  l4357 1E72                                    ?_pad 0011  
                                  l4631 0C1A                                    l4623 0BEC  
                                  l4615 0BA4                                    l4607 0B3A  
                                  l4551 09F2                                    l4543 09E2  
                                  l4535 09D2                                    l4519 0974  
                                  l4527 099E                                    l4711 122A  
                                  l4703 1206                                    l4199 2708  
                                  l3831 32B8                                    l3823 32B0  
                                  l3399 2318                                    l3495 18DC  
                                  l3487 1864                                    l3575 2448  
                                  l3567 2406                                    l3559 23A2  
                                  l3479 311C                                    l3647 1DD8  
                                  l3639 1D66                                    l3591 1B4E  
                                  l3735 1850                                    l3719 17E4  
                                  l3727 1812                                    l4295 2D8C  
                                  l4287 2D4E                                    l4279 2D08  
                                  l3911 344C                                    l3903 340E  
                                  l3743 359E                                    l3663 3840  
                                  l3815 31F6                                    l3807 31B6  
                                  l4391 1FF2                                    l4383 1F96  
                                  l4375 1F50                                    l4359 1E92  
                                  l4367 1ED8                                    l4641 0C44  
                                  l4633 0C28                                    l4625 0BFC  
                                  l4617 0BA6                                    l4609 0B44  
                                  l4561 0A06                                    l4553 09F6  
                                  l4545 09E6                                    l4537 09D6  
                                  l4529 09AE                                    l4801 14C2  
                                  l4721 126A                                    l4713 1238  
                                  l4705 120E                                    l3833 32C6  
                                  l3825 32B2                                    l3913 3144  
                                  l3497 18E0                                    l3489 1884  
                                  l3585 24A0                                    l3577 2466  
                                  l3569 241A                                    l3649 1DDE  
                                  l3593 1B5E                                    l3729 1820  
                                  l3681 1584                                    l4289 2D64  
                                  l3905 341A                                    l3841 38CE  
                                  l3657 3920                                    l3745 35AE  
                                  l3673 3858                                    l3665 3844  
                                  l3753 38F8                                    l3809 31C6  
                                  l3817 350E                                    l3921 37EA  
                                  l4385 1F9C                                    l4393 1FFA  
                                  l4377 1F56                                    l4369 1EF6  
                                  l4651 0C76                                    l4643 0C54  
                                  l4635 0C2A                                    l4619 0BB6  
                                  l4571 0A58                                    l4563 0A0A  
                                  l4555 09FA                                    l4547 09EA  
                                  l4539 09DA                                    l4491 08E8  
                                  l4811 152C                                    l4803 14C6  
                                  l4731 12AA                                    l4723 126C  
                                  l4715 123A                                    l4707 121E  
                                  l3835 32D8                                    l3827 32B4  
                                  l3851 38B2                                    l3915 3148  
                                  l3499 18FC                                    l3587 24B4  
                                  l3579 246A                                    l3595 1B62  
                                  l3691 162A                                    l3683 1596  
                                  l3907 342C                                    l4299 2F1A  
                                  l3843 38DC                                    l3931 3704  
                                  l3659 390C                                    l3747 35B6  
                                  l3667 3852                                    l3763 3792  
                                  l3755 3764                                    l3819 351E  
                                  l3923 37EE                                    l4395 200E  
                                  l4387 1FA2                                    l4379 1F5C  
                                  l4661 0CD0                                    l4653 0C8C  
                                  l4637 0C38                                    l4629 0C10  
                                  l4645 0C56                                    l4581 0A9C  
                                  l4573 0A68                                    l4557 09FE  
                                  l4549 09EE                                    l4565 0A0E  
                                  l4493 08EA                                    l4813 1530  
                                  l4805 14E0                                    l4741 12DA  
                                  l4733 12B2                                    l4717 124A  
                                  l4725 1274                                    l4709 1224  
                                  l3837 32DA                                    l3829 32B6  
                                  l3845 389C                                    l3941 36A2  
                                  l3917 316C                                    l3589 24B8  
                                  l3597 1B7E                                    l3685 159A  
                                  l3677 1552                                    l3781 30C0  
                                  l3909 3434                                    l3933 3708  
                                  l3749 35BE                                    l3861 2A34  
                                  l3853 2A14                                    l3925 37F2  
                                  l4397 2014                                    l4389 1FC0  
                                  l4671 0D4C                                    l4663 0D0A  
                                  l4639 0C40                                    l4647 0C64  
                                  l4583 0A9E                                    l4575 0A7E  
                                  l4567 0A12                                    l4559 0A02  
                                  l4495 08FA                                    l4487 08CE  
                                  l4815 153E                                    l4807 14F6  
                                  l4751 1318                                    l4743 12DA  
                                  l4735 12B6                                    l4727 1284  
                                  l4719 125A                                    l4831 2CFA  
                                  l3839 32DC                                    l3847 38A0  
                                  l3951 36CA                                    l3943 36B2  
                                  l3919 3170                                    l3599 1BAA  
                                  l3695 1662                                    l3687 15BE  
                                  l3679 1576                                    l3775 3084  
                                  l3791 323A                                    l3783 31FC  
                                  l3935 3716                                    l3767 37B6  
                                  l3759 3788                                    l3871 2AB2  
                                  l3863 2A42                                    l3855 2A1A  
                                  l3927 37F6                                    l4681 0D6C  
                                  l4673 0D50                                    l4657 0CB6  
                                  l4665 0D0C                                    l4649 0C68  
                                  l4593 0AEE                                    l4585 0AA8  
                                  l4577 0A8A                                    l4569 0A3C  
                                  l4497 090A                                    l4489 08DA  
                                  l4817 1544                                    l4809 1510  
                                  l4761 1364                                    l4753 1328  
                                  l4729 129A                                    l4833 2CFE  
                                  l3849 38B0                                    l3945 36B8  
                                  l4841 3894                                    l3961 34B4  
                                  l3953 3492                                    l3697 1686  
                                  l3689 15E2                                    l3777 308C  
                                  l3785 320E                                    l3937 371A  
                                  l3769 37BC                                    l3873 3632  
                                  l3865 2A4A                                    l3857 2A20  
                                  l4683 0D7A                                    l4675 0D5E  
                                  l4667 0D1C                                    l4659 0CC2  
                                  l4595 0AFE                                    l4587 0ACA  
                                  l4579 0A8E                                    l4499 091A  
                                  l4819 1546                                    l4771 13AE  
                                  l4763 1372                                    l4755 1338  
                                  l4747 12EE                                    l4739 12CA  
                                  l4691 11C4                                    l4827 2C70  
                                  l3891 3266                                    l3883 3250  
                                  l4851 2E6E                                    l3947 36BE  
                                  l3939 369E                                    l4843 3898  
                                  l4835 387E                                    l3963 34BC  
                                  l3955 3492                                    l3699 16BC  
                                  l3779 309A                                    l3787 3216  
                                  l3971 3952                                    l3875 3638  
                                  l3795 32F0                                    l3867 2A7A  
                                  l3859 2A24                                    l4685 0D7C  
                                  l4677 0D64                                    l4669 0D2C  
                                  l4597 0B0C                                    l4589 0ADA  
                                  l4781 13F4                                    l4773 13C0  
                                  l4765 137E                                    l4757 1340  
                                  l4749 1308                                    l4693 11D2  
                                  l4829 2C74                                    l3893 3268  
                                  l3885 3260                                    l4853 2E7C  
                                  l3949 36C4                                    l4837 388E  
                                  l4845 3964                                    l3965 34C2  
                                  l3957 34A2                                    l3789 321E  
                                  l3973 37BE                                    l3797 3302  
                                  l3869 2AAA                                    l3877 3734  
                                  l4861 294E                                    l4679 0D66  
                                  l4599 0B1A                                    l4791 1454  
                                  l4775 13D6                                    l4783 1406  
                                  l4767 139C                                    l4759 1350  
                                  l4695 11D4                                    l3895 3276  
                                  l3887 3262                                    l4855 2E8A  
                                  l4847 2E18                                    l4839 3890  
                                  l3967 396E                                    l3959 34AA  
                                  l3991 395C                                    l3975 37BE  
                                  l3983 38E4                                    l3799 3312  
                                  l3879 3758                                    l4871 2996  
                                  l4863 295A                                    l4785 1414  
                                  l4777 13DC                                    l4769 139E  
                                  l4697 11E4                                    l4689 11B8  
                                  l3897 3288                                    l3889 3264  
                                  l4849 2E60                                    l3993 395E  
                                  l3969 3946                                    l3977 37D4  
                                  l3985 38F0                                    l4873 29B4  
                                  l4865 296A                                    l4857 2930  
                                  l4795 147E                                    l4787 1418  
                                  l4779 13E6                                    l4699 11F4  
                                  l3899 328A                                    l3995 3960  
                                  l3987 3956                                    l3979 37E0  
                                  l4875 29BC                                    l4867 2970  
                                  l4859 2942                                    l4797 148A  
                                  l4789 1426                                    l3989 395A  
                                  l3997 3338                                    l4877 29CE  
                                  l4869 2988                                    l4981 34F0  
                                  l4799 1498                                    l3999 3340  
                                  l4879 29EA                                    l4983 34F4  
                                  l4985 34F8                                    l4977 34D0  
                                  l4987 3502                                    l4979 34EC  
                                  STR_1 08B2                                    STR_2 08B9  
                                  STR_3 08BE                                    STR_4 08C2  
                                  STR_5 08C9                                    STR_6 08C9  
                                  STR_7 08C9                                    STR_8 082B  
                                  STR_9 084D                    _pines_ConfigurarHora 385C  
                                  _CREN 007D5C                         ??_encender_leds 0060  
                                  u3000 3116                                    u3001 3110  
                                  u3010 3118                                    u3100 193A  
                                  u3020 312E                                    u3101 1936  
                                  u3021 312A                                    u3110 1A64  
                                  u3030 3942                                    u3111 1A60  
                                  u3031 393E                                    u4000 26BC  
                                  u3120 1A82                                    u3040 1894  
                                  u3200 2386                                    _LATD 000F8C  
                                  u4001 26B8                                    u3121 1A7E  
                                  u3041 188E                                    u3201 2382  
                                  u4010 26D0                                    u3130 1A9C  
                                  u3050 1896                                    u3210 23B8  
                                  u4011 26CC                                    u3131 1A98  
                                  u3211 23B4                                    u4020 26F8  
                                  u4100 209A                                    u3140 1AB6  
                                  u3060 18AC                                    u3220 23D6  
                                  u3300 1BAA                                    u4021 26F4  
                                  u4101 2096                                    u3141 1AB2  
                                  u3061 18A8                                    u3221 23D2  
                                  u3301 1BA6                                    u4030 2718  
                                  u4110 20F0                                    u3150 1AC6  
                                  u3070 18DC                                    u3230 2402  
                                  u3310 1C0E                                    u4031 2714  
                                  u4111 20EC                                    u3151 1AC2  
                                  u3071 18D8                                    u3231 23FE  
                                  u3311 1C0A                                    u5000 13F4  
                                  u4040 2728                                    u4120 213A  
                                  u3160 1AD8                                    u3080 18FC  
                                  u3240 243C                                    u3400 1D84  
                                  u3320 1C58                                    u4200 2D64  
                                  u5001 13F0                                    u4041 2724  
                                  u4121 2136                                    u3161 1AD4  
                                  u3081 18F8                                    u3241 2438  
                                  u3401 1D80                                    u3321 1C52  
                                  u4201 2D60                                    u5010 1414  
                                  u4130 2158                                    u3170 1AE8  
                                  u3090 192A                                    u3250 248C  
                                  u3410 1D9E                                    u3330 1C5A  
                                  u4210 2D86                                    u4050 302A  
                                  u5011 1410                                    u4131 2154  
                                  u3171 1AE4                                    u3091 1926  
                                  u3251 2488                                    u3411 1D9A  
                                  u4211 2D82                                    u4051 3026  
                                  u5020 1426                                    u4140 2168  
                                  u2700 2AF2                                    u3180 1B00  
                                  u3260 249C                                    u3420 1DB8  
                                  u3340 1C70                                    u3500 15E2  
                                  u4060 3048                                    u4300 1F16  
                                  u5021 1422                                    u4141 2164  
                                  u5101 2E22                                    u2701 2AEE  
                                  u3181 1AFC                                    u3261 2498  
                                  u3421 1DB4                                    u3341 1C6C  
                                  u3501 15DE                                    u4061 3044  
                                  u4301 1F12                                    u5030 1454  
                                  u4150 2176                                    u2710 2B04  
                                  u3270 24D6                                    u3430 1DC8  
                                  u3350 1CA4                                    u3510 1686  
                                  u4070 3064                                    u4310 1F7A  
                                  u5031 1450                                    u4151 2172  
                                  u5111 2E34                                    u2711 2B00  
                                  u3271 24D2                                    u3191 2364  
                                  u3431 1DC4                                    u3351 1C9E  
                                  u3511 1682                                    u4231 285E  
                                  u4071 3060                                    u4311 1F76  
                                  u5040 146A                                    u4160 21B0  
                                  u4080 2030                                    u4400 33C8  
                                  u2720 2B2C                                    u3440 1DD8  
                                  u3360 1CA6                                    u3280 1B5E  
                                  u3520 1700                                    u3600 37A2  
                                  u4320 1F96                                    u5041 1466  
                                  u4161 21AC                                    u4081 202C  
                                  u4401 33C4                                    u5121 2E46  
                                  u2801 2240                                    u2721 2B28  
                                  u3441 1DD4                                    u3281 1B5A  
                                  u3521 16FC                                    u4241 2888  
                                  u4225 2ECC                                    u3601 379E  
                                  u4321 1F92                                    u5050 147E  
                                  u4170 21BE                                    u4090 203E  
                                  u2810 2264                                    u2730 2B62  
                                  u3370 1CBC                                    u3290 1B7E  
                                  u3530 1724                                    u3450 3932  
                                  u3610 37B2                                    u4330 1FC0  
                                  u5051 147A                                    u4171 21BA  
                                  u4091 203A                                    u5131 2E58  
                                  u2811 2260                                    u2731 2B5E  
                                  u3371 1CB8                                    u3291 1B7A  
                                  u3531 1720                                    u4251 28B2  
                                  u3451 392E                                    u3611 37AE  
                                  u4331 1FBC                                    u4500 090A  
                                  u5060 1498                                    u3700 31A0  
                                  u2820 228E                                    u2900 2602  
                                  u2740 340C                                    u3380 1D24  
                                  u3540 17E4                                    u3620 30DC  
                                  u4180 2D2C                                    u3460 391E  
                                  u4340 200E                                    u4260 1E56  
                                  u5140 2996                                    u4501 0906  
                                  u5061 1494                                    u3701 319C  
                                  u2821 228A                                    u2901 25FE  
                                  u2741 3408                                    u3541 17E0  
                                  u3621 30D8                                    u4181 2D28  
                                  u3461 391A                                    u4341 200A  
                                  u4261 1E52                                    u5141 2992  
                                  u4510 094C                                    u5070 14E0  
                                  u4350 2DAA                                    u2830 22CE  
                                  u2750 3690                                    u2910 2BBA  
                                  u3390 1D66                                    u4190 2D42  
                                  u3710 3732                                    u3550 359A  
                                  u3470 3852                                    u3630 354A  
                                  u4270 1E72                                    u5150 29B4  
                                  u4511 0948                                    u5071 14DC  
                                  u4351 2DA6                                    u2831 22CA  
                                  u2751 368C                                    u2911 2BB6  
                                  u3391 1D62                                    u4191 2D3E  
                                  u3711 372E                                    u3551 3596  
                                  u3471 384E                                    u3631 3546  
                                  u4271 1E6E                                    u5151 29B0  
                                  u4600 0A7E                                    u4520 0962  
                                  u5080 1510                                    u4360 2DC6  
                                  u3720 34A2                                    u2840 2318  
                                  u2920 2BDC                                    u2760 35F2  
                                  u3480 1576                                    u3800 0DBA  
                                  u3640 38DC                                    u3560 35AE  
                                  u4280 1E92                                    u5160 29CE  
                                  u4601 0A7A                                    u4521 095E  
                                  u5081 150C                                    u4361 2DC2  
                                  u3721 349E                                    u2841 2314  
                                  u2921 2BD8                                    u2761 35EC  
                                  u3385 1D12                                    u3481 1572  
                                  u3801 0DB6                                    u3641 38D8  
                                  u3561 35AA                                    u4281 1E8E  
                                  u5161 29CA                                    u4610 0A9C  
                                  u4530 0974                                    u5090 153E  
                                  u4370 2DEA                                    u2850 24F2  
                                  u2930 2C32                                    u2770 35F4  
                                  u3490 15BE                                    u3730 37CE  
                                  u3810 0DCA                                    u3570 3908  
                                  u3650 2A34                                    u4290 1EF6  
                                  u4611 0A98                                    u4531 0970  
                                  u5091 153A                                    u4371 2DE6  
                                  u2851 24EE                                    u2931 2C2E  
                                  u3491 15BA                                    u3731 37CA  
                                  u3811 0DC6                                    u3571 3904  
                                  u3651 2A30                                    u4291 1EF2  
                                  u4700 0BEC                                    u4620 0ABC  
                                  u4540 0984                                    u4380 2E06  
                                  u2780 21E4                                    u2860 2524  
                                  u2940 2C42                                    u3740 335A  
                                  u3900 1078                                    u3820 0E0A  
                                  u3580 3774                                    u3660 2A42  
                                  u4701 0BE8                                    u4621 0AB8  
                                  u4541 0980                                    u4381 2E02  
                                  u2781 21E0                                    u2861 2520  
                                  u2941 2C3E                                    u3741 3356  
                                  u3901 1074                                    u3821 0E06  
                                  u3581 3770                                    u3661 2A3E  
                                  u4710 0BFC                                    u4630 0ACA  
                                  u4550 09C0                                    u4390 3394  
                                  u2790 2216                                    u2870 2562  
                                  u2950 346A                                    u3750 3378  
                                  u3670 342C                                    u3910 10A6  
                                  u3830 0E1C                                    u3590 3784  
                                  u4711 0BF8                                    u4631 0AC6  
                                  u4551 09BC                                    u4391 3390  
                                  u2791 2212                                    u2871 255E  
                                  u2951 3466                                    u3751 3374  
                                  u3671 3428                                    u3911 10A2  
                                  u3831 0E18                                    u3591 3780  
                                  u4800 0CD0                                    u4720 0C28  
                                  u4640 0ADA                                    u4560 09CE  
                                  u4480 08E8                                    u3680 3168  
                                  u2880 258C                                    u2960 362A  
                                  u3920 10BC                                    u3840 0E2C  
                                  u3760 275E                                    u4801 0CCC  
                                  u4721 0C24                                    u4641 0AD6  
                                  u4561 09CA                                    u4481 08E4  
                                  u2881 2588                                    u2961 3624  
                                  u3921 10B8                                    u3841 0E28  
                                  u3761 275A                                    u4810 0D0A  
                                  u4730 0C38                                    u4650 0B0C  
                                  u4570 0A3C                                    u4490 08FA  
                                  u3690 3190                                    u2890 25BA  
                                  u2970 362C                                    u3930 10D0  
                                  u3850 0E62                                    u3770 27B2  
                                  u4811 0D06                                    u4731 0C34  
                                  u4651 0B08                                    u4571 0A38  
                                  u4491 08F6                                    u2891 25B6  
                                  u5507 3344                                    u3931 10CC  
                                  u3851 0E5E                                    u3771 27AE  
                                  u4820 0D1C                                    u4740 0C54  
                                  u4660 0B1A                                    u4580 0A54  
                                  u4900 1238                                    u2980 3580  
                                  u3940 10EA                                    u3860 0E72  
                                  u3780 2806                                    _RCIF 007CF5  
                                  _RCEN 007E2B                                    u4821 0D18  
                                  u4741 0C50                                    u4661 0B16  
                                  u4581 0A4E                                    u4901 1234  
                                  u2981 357A                                    u5517 3364  
                                  u3941 10E6                                    u3861 0E6E  
                                  u3781 2802                                    u4830 0D2C  
                                  u4750 0C64                                    u4670 0B38  
                                  u4590 0A56                                    u4910 124A  
                                  u2990 3582                                    u3950 1132  
                                  u3870 0FEC                                    u3790 0DA8  
                                  u4831 0D28                                    u4751 0C60  
                                  u4671 0B34                                    u4911 1246  
                                  u3687 315E                                    u5527 291E  
                                  u3951 112E                                    u3791 0DA4  
                                  u4840 0D4C                                    u4760 0C76  
                                  u4680 0B70                                    u4920 125A  
                                  u3960 1160                                    u3880 1046  
                                  u4841 0D48                                    u4761 0C72  
                                  u4681 0B6C                                    u4921 1256  
                                  u5537 36A8                                    u3697 3186  
                                  u3961 115C                                    u3881 1042  
                                  u4850 0D5E                                    u4770 0C8C  
                                  u4690 0BB6                                    u4930 129A  
                                  u3970 119A                                    u3890 1066  
                                  u4851 0D5A                                    u4771 0C88  
                                  u4691 0BB2                                    u4931 1296  
                                  u5547 326E                                    u3971 1196  
                                  u3891 1062                                    u3875 0FE2  
                                  u4860 0D7A                                    u4780 0CA2  
                                  u4940 12DA                                    u3980 265A  
                                  u4861 0D76                                    u4781 0C9E  
                                  u4941 12D6                                    u3981 2656  
                                  u5557 3294                                    u4790 0CB6  
                                  u4950 1350                                    u4870 11D2  
                                  u3990 268E                                    u4791 0CB2  
                                  u4951 134C                                    u4871 11CE  
                                  u5567 32BE                                    u4960 1372  
                                  u4880 11E4                                    u4961 136E  
                                  u4881 11E0                                    u5577 32E4  
                                  u5497 297C                                    u4970 139C  
                                  u4890 11F4                                    u4971 1398  
                                  u4891 11F0                                    u3995 2684  
                                  u4980 13C0                                    u4981 13BC  
                                  u4990 13D6                                    u4991 13D2  
                                  _RBPU 007F8F                                    _RSEN 007E29  
                                  _TXIF 007CF4                                    _Date 01D2  
                                  _Year 01CE                                    abs@a 0013  
                                  _date 03B4                                    _dbuf 0294  
                                  _main 34D0                                    _dtoa 1864  
                       ?_RTC_Read_Clock 0001                                    _hour 00F9  
                      __end_of_I2C_Nack 3920                      __size_of_LCD_Clear 0008  
                                  _prec 01CC                        __end_of_I2C_Init 38B6  
                      __end_of_I2C_Read 35C2                                    _time 0378  
                                  _nout 01C8                                    _year 00FD  
                                  pad@i 0018                                    pad@p 0015  
                                  fsr0h 000FEA                                    fsr1h 000FE2  
                                  indf0 000FEF                                    fsr2h 000FDA  
                                  fsr0l 000FE9                                    indf1 000FE7  
                                  indf2 000FDF                                    fsr1l 000FE1  
                                  pad@w 001A                                    fsr2l 000FD9  
                                  _stoa 235A                __end_of_USART_SendString 3734  
                        principal@s_luz 00F5                                    _xtoa 1B4E  
                      __end_of_I2C_Stop 390C                                    prodh 000FF4  
                                  prodl 000FF3                                    start 0000  
                       ___fldiv@new_exp 0020                            ?_iniciar_pic 0001  
                         _LCD_String_xy 3490                            ___param_bank 000000  
      RTC_Read_Clock@read_clock_address 0004                                   ??_abs 0015  
                                 ??_pad 0017                        __end_of_LCD_Char 32EE  
                         imprimir@F3825 027C                           imprimir@F3827 026C  
                         imprimir@F3829 025C                      _iniciar_emoticones 2E18  
                         ___fltol@sign1 0030                         __end_of___aodiv 235A  
                       __end_of___fladd 0D8E                                   ?_main 0001  
                                 ?_dtoa 001C                         __end_of___aomod 2644  
                                 _ACKEN 007E2C                                   _ACKDT 007E2D  
                       __end_of___fldiv 1552                                   STR_10 0801  
                                 STR_11 0880                                   STR_12 086E  
                                 STR_13 08A2                                   STR_14 0892  
                                 STR_15 08C6                         __end_of___flmul 11B8  
                       __end_of___fltol 274A                                   ?_stoa 000A  
                                 ?_xtoa 001C                                   _LATB3 007C53  
                                 _LATD0 007C60                                   _LATB4 007C54  
                                 _LATD1 007C61                                   _LATB5 007C55  
                       __end_of___lwdiv 3084                                   _RCREG 000FAE  
                                 _RCSTA 000FAB                            vfpfcnvrt@fmt 0045  
                          vfpfcnvrt@llu 0055                                   _SPBRG 000FAF  
                                 _TRISD 000F95                                   _SSPIE 007CEB  
                                 _SSPIF 007CF3             __size_of_sensor_temperatura 007C  
                                 _TXREG 000FAD                                   _TXSTA 000FAC  
                                 _Month 01D0                     ?_iniciar_emoticones 0001  
                                 _flags 00F7                                   _fputc 2AE0  
                       __end_of_isalpha 3588                                   _fputs 33CA  
              __end_of_RTC_obtener_hora 2AE0                                   _hours 00FF  
                                 _month 00FC                   ?_pines_ConfigurarHora 0001  
                       principal@s_dist 00F1                       __end_of_I2C_Ready 3946  
                                 pad@fp 0011                                   _width 01CA  
                                 _putch 397C                                   dtoa@d 001E  
                                 dtoa@i 003E                                   dtoa@n 0036  
                                 dtoa@p 0030                                   dtoa@s 0034  
                                 dtoa@w 0032                         principal@s_temp 00F3  
                       __end_of_islower 35FA                       __end_of_I2C_Start 3790  
                     __end_of_I2C_Write 385C                         __end_of_isupper 3632  
                       __end_of_validar 201E                                   tablat 000FF5  
                                 plusw1 000FE3                                   plusw2 000FDB  
                                 stoa@i 0016                                   stoa@l 001E  
                                 stoa@p 001C                                   stoa@s 000C  
                                 stoa@w 0018                                   status 000FD8  
                   __size_of_LCD_String 005E                         __end_of_sprintf 324E  
                                 xtoa@c 0041                                   xtoa@d 001E  
                                 xtoa@i 003F                                   xtoa@n 0037  
                                 xtoa@p 0033                                   xtoa@w 0035  
                                 xtoa@x 0026                         __end_of_toupper 3144  
                        ?_LCD_String_xy 0005                       ?_sensor_distancia 0005  
                           ?_USART_Init 0038                            _toupper$1979 000D  
                  ??_iniciar_emoticones 0007                 __end_of_LCD_Custom_Char 33CA  
                       __initialization 2F96                     adc_init10Bits@canal 0003  
                  Reloj_Calendario@Date 02D4                      ??_sensor_distancia 0007  
                  Reloj_Calendario@Time 01ED                            __end_of_main 350E  
                          __end_of_dtoa 1B4E                            __end_of_stoa 24E0  
                          __end_of_xtoa 1E2E                               ??_I2C_Ack 0001  
                                ??_main 0060                                  ??_dtoa 0026  
                                ??_stoa 000E                                  ??_xtoa 0027  
                     __end_of_LCD_Clear 3976                           __activetblptr 000002  
               __size_of_adc_init10Bits 0010                 __size_of_adc_read10Bits 002C  
                                _ADCON1 000FC1                                  ?_fputc 0001  
                                ?_fputs 000A                                  _ADRESH 000FC4  
                                _ADRESL 000FC3                                  ?_putch 0001  
                      LCD_String_xy@msg 0006                        LCD_String_xy@pos 0005  
                      LCD_String_xy@row 0008                     _mostrar_estadistica 274A  
                                _OSCCON 000FD3                                  _SSPADD 000FC8  
                                _TRISB0 007C98                                  _TRISB1 007C99  
                                _TRISB3 007C9B                                  _TRISB4 007C9C  
                                _TRISB5 007C9D                                  _TRISB6 007C9E  
                                _TRISC6 007CA6                                  _TRISC7 007CA7  
                                _SSPBUF 000FC9                        __end_of___xxtofl 21D2  
                          vfprintf@cfmt 0066                               ??___aodiv 0011  
                             ??___fladd 0030                               ??___aomod 0011  
                                ___wmul 3814                               ??___fldiv 0017  
                             ??___flmul 0017                               ??___fltol 002C  
                             ??___lwdiv 000B                    ?_mostrar_estadistica 007D  
                                _estado 028C                        __end_of_init_rtc 397C  
                                clear_0 2FDC                                  clear_1 2FE8  
                                clear_2 2FF4                                  clear_3 3000  
                                isa$std 000001                        __end_of_imprimir 2930  
                    _I2C_Repeated_Start 3790                                  pad@buf 0013  
                  __size_of_LCD_Command 0050                                  _strcat 3734  
                                dtoa@fp 001C                                  _strcpy 350E  
                                _strlen 3668                                  fputc@c 0001  
                                fputs@c 000E                        LCD_Custom_Char@i 0006  
                                fputs@i 000F                               ?_I2C_Nack 0001  
                                fputs@s 000A                               ??_isalpha 0003  
                             ?_I2C_Init 0001                               ?_I2C_Read 0001  
                             ?_I2C_Stop 0001                               ??_islower 0003  
                          __mediumconst 0000                                  tblptrh 000FF7  
                             ??_validar 0060                               ??_isupper 0003  
                                tblptrl 000FF6                                  tblptru 000FF8  
                   ?_I2C_Repeated_Start 0001                     __size_of_USART_Init 0094  
                ??_pines_ConfigurarHora 0004                                  stoa@cp 001A  
                                stoa@fp 000A                                  putch@c 0001  
                      __end_of_vfprintf 30E6                               ??_sprintf 0060  
                                xtoa@fp 001C                               ??_toupper 0009  
                          ___xxtofl@arg 000B                      validar@valor_usart 0200  
                          ___xxtofl@exp 000A                            ___xxtofl@val 0001  
                             ?_LCD_Char 0001                              __accesstop 0060  
               __end_of__initialization 3006                         ??_LCD_String_xy 0008  
                         ___rparam_used 000001                        validar@distancia 00E9  
                            ___fltol@f1 0028                    ??_I2C_Repeated_Start 0002  
                      ?_LCD_Custom_Char 0003                          __pcstackCOMRAM 0001  
                          __pidataBANK1 38B6                            __pidataBANK2 36D2  
                            _adc_config 340E                       ?_mostrar_emoticon 0001  
                  __size_of_iniciar_pic 001E                   ??_mostrar_estadistica 0060  
                           imprimir@luz 007E                           __end_of_fputc 2BAA  
                         __end_of_fputs 340E                           __end_of_putch 397E  
                    ??_mostrar_emoticon 0003                            ??_LCD_String 0005  
                            ??_I2C_Nack 0001                              ??_I2C_Init 0001  
                            ??_I2C_Read 0001           iniciar_emoticones@temperatura 0007  
                            ??_I2C_Stop 0001            __end_of_obtener_tiempo_fecha 3814  
                      ??_RTC_Read_Clock 0003                                 ??_fputc 0005  
                               ??_fputs 000E                                 ??_putch 0001  
                            __pbssBANK0 00F7                              __pbssBANK1 01C8  
                            __pbssBANK2 025C                              __pbssBANK3 0300  
                            ??_LCD_Char 0001                      __end_of_LCD_String 31A2  
                     ?_USART_SendString 0002                      __size_of_init_leds 000A  
                   obtener_distancia@cm 0003                      ??_USART_SendString 0004  
                          I2C_Read@flag 0001                          I2C_Read@buffer 0002  
                               ?___wmul 0001        mostrar_estadistica@mensaje_usart 0081  
                               _I2C_Ack 3920                                 _ACKSTAT 007E2E  
                               ?_strcat 000D                                 ?_strcpy 0005  
                               ?_strlen 0001                          _adc_init10Bits 3946  
                    __size_of_principal 00E4                               ?___xxtofl 0001  
                        _adc_read10Bits 37BE                          _val_intensidad 01DC  
                    __size_of_vfpfcnvrt 0312                                 _SSPCON1 000FC6  
                               _SSPCON2 000FC5                __size_of_inicializar_lcd 0034  
                               _SSPSTAT 000FC7                       ?_RTC_obtener_hora 0001  
                 __end_of_encender_leds 2E18                      ??_RTC_obtener_hora 0060  
                             ?_init_rtc 0001                               _I2C_Ready 3934  
                             ?_imprimir 007A                      encender_leds@valor 00ED  
                             _I2C_Start 3762                               _I2C_Write 383A  
                         LCD_String@msg 0003                       mostrar_emoticon@i 0003  
                          ??_USART_Init 003C                                 __Hparam 0000  
                               __Lparam 0000                             ?_adc_config 0001  
                               ___aodiv 21D2                                 ___fladd 08CE  
                     _RTC_Read_Calendar 31A2                                 ___aomod 24E0  
                               ___fldiv 11B8                                 ___flmul 0D8E  
                               ___fltol 2644                         __size_of___wmul 0026  
                               ___lwdiv 3010                               ?_vfprintf 0060  
                          __psmallconst 0800                      ?_RTC_Read_Calendar 0001  
                       imprimir@aux_luz 00A2                                 __pcinit 2F96  
                __end_of_adc_init10Bits 3956                             validar@temp 00E7  
                            _init_ports 3956                                 __ramtop 0800  
            __end_of_sensor_temperatura 2F96                                 __ptext0 34D0  
                               __ptext1 2930                                 __ptext2 1E2E  
                               __ptext3 274A                                 __ptext4 37EA  
                               __ptext5 3734                                 __ptext6 350E  
                               __ptext7 2A14                                 __ptext8 32EE  
                               __ptext9 3632                     USART_SendString@out 0002  
                __end_of_adc_read10Bits 37EA                         __size_of_strcat 002E  
                       __size_of_strcpy 003E                         __size_of_strlen 0036  
                        USART_Init@temp 003C               __size_of_sensor_distancia 0092  
                          __size_of_abs 0040                            __size_of_pad 00C6  
                               _isalpha 354C                       __end_of_init_leds 396E  
                            ??___xxtofl 0005                     ??_RTC_Read_Calendar 0003  
                               _islower 35C2                                 _minutes 00FE  
                               _seconds 01E5                                 _lum_ant 028E  
                               _isupper 35FA                                 _validar 1E2E  
                             _LCD_Clear 396E                      __end_of_USART_Init 2D04  
                               _sprintf 31FC                                 _toupper 30E6  
                  end_of_initialization 3006                                 fputc@fp 0003  
                        LCD_Command@cmd 0002                           __Lmediumconst 0000  
                               fputs@fp 000C                              ??_init_rtc 0001  
                            ?_I2C_Ready 0001                              ??_imprimir 0080  
                            ?_I2C_Start 0001                              ?_I2C_Write 0001  
                     __end_of_principal 2A14               __end_of_RTC_Read_Calendar 31FC  
           __size_of_iniciar_emoticones 0082                       __end_of_vfpfcnvrt 1864  
                             _RCSTAbits 000FAB                                 postdec1 000FE5  
                               postdec2 000FDD                    _obtener_tiempo_fecha 37EA  
                               postinc0 000FEE                                 postinc1 000FE6  
                               postinc2 000FDE                              ??_vfprintf 0060  
                       adc_config@canal 0001                              _sensor_luz 2E9A  
                               strcpy@d 000B                                 strlen@a 0003  
                               strcpy@s 0009                                 strlen@s 0001  
                       ?_adc_init10Bits 0003                               _PORTAbits 000F80  
                             _PORTCbits 000F82                         ?_adc_read10Bits 0001  
                 iniciar_emoticones@luz 0017                             ___fladd@grs 0037  
                         ___xxtofl@sign 0009                               _TRISAbits 000F92  
                             _TRISBbits 000F93                               _TRISCbits 000F94  
                            ?_LCD_Clear 0001                       __size_of_I2C_Nack 0014  
                     __size_of_I2C_Init 001A                       __size_of_I2C_Read 003A  
                           ___fldiv@grs 0022                             ___fldiv@rem 001B  
                     __size_of_I2C_Stop 0014                     __size_of_adc_config 0042  
                   USART_Init@baud_rate 0038                             ___flmul@grs 001C  
                         ?_USART_TxChar 0001                       ??_inicializar_lcd 0003  
                     __size_of_LCD_Char 0050                   ?_obtener_tiempo_fecha 007B  
                         ??_LCD_Command 0001                             vfpfcnvrt@ap 0047  
                           vfpfcnvrt@cp 005D                             vfpfcnvrt@fp 0043  
                           vfpfcnvrt@ll 004D                          __end_of___wmul 383A  
                           ?_init_ports 0001                            imprimir@dist 007A  
                          imprimir@temp 007C          mostrar_estadistica@valor_usart 007F  
                        __end_of_strcat 3762                          __end_of_strcpy 354C  
                        __end_of_strlen 369E                     start_initialization 2F96  
               adc_read10Bits@value_adc 0005                             __end_of_abs 3490  
                           __end_of_pad 2C70               __size_of_mostrar_emoticon 0016  
  I2C_Repeated_Start@slave_read_address 0002           __size_of_pines_ConfigurarHora 0022  
                        ??_USART_TxChar 0001                             ??_I2C_Ready 0001  
                           ??_I2C_Start 0002                             ??_I2C_Write 0001  
                 __end_of_LCD_String_xy 34D0             __end_of_mostrar_estadistica 2846  
                         ??_iniciar_pic 0005              __size_of_RTC_Read_Calendar 005A  
                           vfprintf@fmt 0062             __size_of_I2C_Repeated_Start 002E  
                              ??___wmul 0005                             __pdataBANK1 01E6  
                           __pdataBANK2 02B4                             ?_sensor_luz 000E  
                              ?_I2C_Ack 0001                                ??_strcat 0011  
                              ??_strcpy 0009                                ??_strlen 0003  
             __size_of_USART_SendString 0030                __size_of_LCD_Custom_Char 0048  
                             ___fladd@a 002C                               ___fladd@b 0028  
                      _sensor_distancia 2D04                               ___fldiv@a 0013  
                             ___fldiv@b 000F                     __end_of_LCD_Command 329E  
                             ___flmul@a 0013                               ___flmul@b 000F  
                       validar@contador 025A                           __pcstackBANK0 0060  
                         __pcstackBANK1 0100                           __pcstackBANK2 0200  
                      ___aodiv@dividend 0001                             ??_LCD_Clear 0003  
                     __size_of___xxtofl 01B4                           _val_distancia 01E2  
                   __size_of_init_ports 000E                       __size_of_init_rtc 0006  
                ??_obtener_tiempo_fecha 0060                        ___lwdiv@dividend 0007  
                             _dtoa$1853 002E                       __size_of_imprimir 00EA  
                          ??_adc_config 0003                                ?___aodiv 0001  
                              ?___fladd 0028                                ?___aomod 0001  
                              ?___fldiv 000F                        ___aodiv@quotient 0013  
             __size_of_RTC_obtener_hora 00CC                                ?___flmul 000F  
                              ?___fltol 0028                                ?___lwdiv 0007  
                   __end_of_iniciar_pic 389C                       __size_of_vfprintf 0062  
                           __smallconst 0800                                _I2C_Nack 390C  
                              ?_isalpha 0001                                _I2C_Init 389C  
                              _I2C_Read 3588                                _I2C_Stop 38F8  
                              ?_islower 0001                                ?_isupper 0001  
                              ?_validar 00E7                        ___lwdiv@quotient 000B  
                 LCD_String_xy@location 0009                               _init_leds 3964  
                              ?_sprintf 0068                              validar@luz 00EB  
                        __size_of_fputc 00CA                          __size_of_fputs 0044  
                              ?_toupper 0007                          __size_of_putch 0002  
                    _sensor_temperatura 2F1A                      __end_of_adc_config 3450  
                   __size_of_sensor_luz 0080                                _LCD_Char 329E  
                        ___wmul@product 0005                                _LATCbits 000F8B  
           iniciar_emoticones@distancia 000F                     ?_sensor_temperatura 0032  
               __size_of_RTC_Read_Clock 004A                        ??_adc_init10Bits 0005  
                             _value_adc 01DE                        ??_adc_read10Bits 0003  
                             _principal 2930                _mostrar_estadistica$2238 00E5  
                     _RTC_obtener_fecha 3632                             _LCD_Command 324E  
                             _vfpfcnvrt 1552                               _xtoa$1875 002F  
                             _xtoa$1876 0031                        __size_of_I2C_Ack 0014  
                    ?_RTC_obtener_fecha 0001                              _ADCON0bits 000FC2  
                            _ADCON1bits 000FC1                              _ADCON2bits 000FC0  
                  __end_of_USART_TxChar 38E2                       ___wmul@multiplier 0001  
                     _obtener_distancia 3338                  __size_of_encender_leds 0082  
                  ??_sensor_temperatura 0034                      ?_obtener_distancia 0001  
                   ??_RTC_obtener_fecha 0060                        _mostrar_emoticon 38E2  
                       _inicializar_lcd 369E                       ??_LCD_Custom_Char 0005  
                            vfpfcnvrt@c 005F                              ?_init_leds 0001  
                             copy_data0 2FAA                               copy_data1 2FCA  
                   ??_obtener_distancia 0003            I2C_Start@slave_write_address 0002  
           iniciar_emoticones@todo_bien 001F    mostrar_estadistica@mensaje_usart_840 0164  
  mostrar_estadistica@mensaje_usart_838 0100              __end_of_iniciar_emoticones 2E9A  
                              __Hrparam 0000                             _iniciar_pic 387E  
                            vfprintf@ap 0064                                __Lrparam 0000  
                            vfprintf@fp 0060               __end_of_RTC_obtener_fecha 3668  
                         I2C_Write@data 0001                              ?_principal 0001  
                      __size_of___aodiv 0188                        __size_of___fladd 04C0  
                      __size_of___aomod 0164                        __size_of___fldiv 039A  
                      __size_of___flmul 042A                        __size_of___fltol 0106  
                            ?_vfpfcnvrt 0043                        __size_of___lwdiv 0074  
             __end_of_obtener_distancia 3382                            ??_init_ports 0001  
                       ___aodiv@divisor 0009                         _val_luminosidad 01DA  
                       ___aodiv@counter 0011                        _USART_SendString 3704  
                            sprintf@fmt 006A                        imprimir@aux_dist 0082  
                              ___xxtofl 201E                        imprimir@aux_temp 0092  
                            strcat@dest 000D                        __size_of_isalpha 003C  
                       ___lwdiv@divisor 0009                        __size_of_islower 0038  
                       ___lwdiv@counter 000D                                __ptext10 31A2  
                              __ptext11 38F8                                __ptext20 38CC  
                              __ptext12 3762                                __ptext21 38E2  
                              __ptext13 3790                                __ptext30 2D04  
                              __ptext22 2F1A                                __ptext14 383A  
                              __ptext31 3338                                __ptext23 0D8E  
                              __ptext15 3588                                __ptext40 35FA  
                              __ptext32 3956                                __ptext24 2E9A  
                              __ptext16 3934                                __ptext41 354C  
                              __ptext33 2846                                __ptext25 37BE  
                              __ptext17 390C                                __ptext50 24E0  
                              __ptext42 235A                                __ptext34 31FC  
                              __ptext26 3946                                __ptext18 3920  
                              __ptext51 21D2                                __ptext43 1864  
                              __ptext35 3084                                __ptext27 340E  
                              __ptext19 3704                                __ptext60 3976  
                              __ptext52 3490                                __ptext44 2BAA  
                              __ptext36 1552                                __ptext28 3814  
                              __ptext61 389C                                __ptext53 3144  
                              __ptext45 3668                                __ptext37 1B4E  
                              __ptext29 3010                                __ptext70 08CE  
                              __ptext62 2E18                                __ptext54 396E  
                              __ptext46 33CA                                __ptext38 30E6  
                              __ptext63 3382                                __ptext55 2D96  
                              __ptext47 2AE0                                __ptext39 35C2  
                              __ptext64 324E                                __ptext56 3964  
                              __ptext48 397C                                __ptext65 329E  
                              __ptext57 387E                                __ptext49 3450  
                              __ptext66 2C70                                __ptext58 385C  
                              __ptext67 201E                                __ptext59 369E  
                              __ptext68 2644                                __ptext69 11B8  
                      __size_of_isupper 0038                        __size_of_validar 01F0  
                              _dist_ant 0290                        __size_of_sprintf 0052  
                            strcpy@dest 0005                        __size_of_toupper 005E  
                         __size_of_main 003E                           __size_of_dtoa 02EA  
                              _init_rtc 3976                           __size_of_stoa 0186  
                         _encender_leds 2D96                           __size_of_xtoa 02E0  
                              _imprimir 2846                      __end_of_init_ports 3964  
              __end_of_sensor_distancia 2D96                                _val_temp 01E0  
                              _temp_ant 0292                               stoa@F1141 01E6  
                              isa$xinst 000000                        _RTC_obtener_hora 2A14  
          __end_of_pines_ConfigurarHora 387E                                _vfprintf 3084  
                          ??_sensor_luz 0010                              _LCD_String 3144  
               __end_of_inicializar_lcd 36D2                        ___aomod@dividend 0001  
                              isalpha@c 0001                         USART_TxChar@out 0001  
             mostrar_estadistica@sensor 007D                             ??_init_leds 0001  
                    LCD_Custom_Char@loc 0005                      LCD_Custom_Char@msg 0003  
                             sprintf@ap 0072                               strcat@src 000F  
                              islower@c 0001                          ?_encender_leds 00ED  
                    __end_of_sensor_luz 2F1A                               strcpy@src 0007  
            __end_of_I2C_Repeated_Start 37BE                                isupper@c 0001  
               iniciar_emoticones@F3813 02CC                 iniciar_emoticones@F3815 02C4  
               iniciar_emoticones@F3817 02BC                 iniciar_emoticones@F3819 02B4  
                        _RTC_Read_Clock 32EE                              _OSCCONbits 000FD3  
            __size_of_RTC_obtener_fecha 0036                   __size_of_USART_TxChar 0016  
                           ??_principal 00EF                         ___aomod@divisor 0009  
                           ??_vfpfcnvrt 0049            __size_of_mostrar_estadistica 00FC  
                              stoa@nuls 000F                         ___aomod@counter 0011  
            __size_of_obtener_distancia 004A                                sprintf@f 0074  
                              sprintf@s 0068                  validar@valor_usart_831 023C  
                validar@valor_usart_829 021E                                toupper@c 0007  
                __size_of_LCD_String_xy 0040                             _SSPCON2bits 000FC5  
                         ___fladd@signs 0034                            ___aodiv@sign 0012  
                          ___fladd@aexp 0035                            ___fladd@bexp 0036  
                __end_of_RTC_Read_Clock 3338                            _USART_TxChar 38CC  
                 RTC_obtener_hora@AM_PM 007A                            ___aomod@sign 0012  
                            _USART_Init 2C70  
