

Microchip MPLAB XC8 Assembler V2.32 build 20210201212658 
                                                                                               Thu Oct 07 15:16:43 2021

Microchip MPLAB XC8 C Compiler v2.32 (Free license) build 20210201212658 Og1 
     1                           	processor	18F4550
     2                           	fnconf	rparam,??,?,0
     3                           	pagewidth 120
     4                           	opt	flic
     5                           	psect	idataBANK1,global,class=CODE,delta=1,noexec
     6                           	psect	idataBANK2,global,class=CODE,delta=1,noexec
     7                           	psect	smallconst,global,reloc=2,class=SMALLCONST,delta=1,noexec
     8                           	psect	cinit,global,reloc=2,class=CODE,delta=1
     9                           	psect	bssBANK0,global,class=BANK0,space=1,delta=1,lowdata,noexec
    10                           	psect	bssBANK1,global,class=BANK1,space=1,delta=1,lowdata,noexec
    11                           	psect	dataBANK1,global,class=BANK1,space=1,delta=1,lowdata,noexec
    12                           	psect	bssBANK2,global,class=BANK2,space=1,delta=1,lowdata,noexec
    13                           	psect	dataBANK2,global,class=BANK2,space=1,delta=1,lowdata,noexec
    14                           	psect	bssBANK3,global,class=BANK3,space=1,delta=1,lowdata,noexec
    15                           	psect	cstackBANK2,global,class=BANK2,space=1,delta=1,lowdata,noexec
    16                           	psect	cstackBANK1,global,class=BANK1,space=1,delta=1,lowdata,noexec
    17                           	psect	cstackBANK0,global,class=BANK0,space=1,delta=1,lowdata,noexec
    18                           	psect	cstackCOMRAM,global,class=COMRAM,space=1,delta=1,lowdata,noexec
    19                           	psect	text0,global,reloc=2,class=CODE,delta=1
    20                           	psect	text1,global,reloc=2,class=CODE,delta=1
    21                           	psect	text2,global,reloc=2,class=CODE,delta=1
    22                           	psect	text3,global,reloc=2,class=CODE,delta=1
    23                           	psect	text4,global,reloc=2,class=CODE,delta=1
    24                           	psect	text5,global,reloc=2,class=CODE,delta=1
    25                           	psect	text6,global,reloc=2,class=CODE,delta=1
    26                           	psect	text7,global,reloc=2,class=CODE,delta=1
    27                           	psect	text8,global,reloc=2,class=CODE,delta=1
    28                           	psect	text9,global,reloc=2,class=CODE,delta=1
    29                           	psect	text10,global,reloc=2,class=CODE,delta=1
    30                           	psect	text11,global,reloc=2,class=CODE,delta=1
    31                           	psect	text12,global,reloc=2,class=CODE,delta=1,group=2
    32                           	psect	text13,global,reloc=2,class=CODE,delta=1,group=2
    33                           	psect	text14,global,reloc=2,class=CODE,delta=1
    34                           	psect	text15,global,reloc=2,class=CODE,delta=1
    35                           	psect	text16,global,reloc=2,class=CODE,delta=1
    36                           	psect	text17,global,reloc=2,class=CODE,delta=1
    37                           	psect	text18,global,reloc=2,class=CODE,delta=1
    38                           	psect	text19,global,reloc=2,class=CODE,delta=1
    39                           	psect	text20,global,reloc=2,class=CODE,delta=1
    40                           	psect	text21,global,reloc=2,class=CODE,delta=1
    41                           	psect	text22,global,reloc=2,class=CODE,delta=1
    42                           	psect	text23,global,reloc=2,class=CODE,delta=1
    43                           	psect	text24,global,reloc=2,class=CODE,delta=1
    44                           	psect	text25,global,reloc=2,class=CODE,delta=1,group=3
    45                           	psect	text26,global,reloc=2,class=CODE,delta=1,group=3
    46                           	psect	text27,global,reloc=2,class=CODE,delta=1
    47                           	psect	text28,global,reloc=2,class=CODE,delta=1
    48                           	psect	text29,global,reloc=2,class=CODE,delta=1
    49                           	psect	text30,global,reloc=2,class=CODE,delta=1,group=3
    50                           	psect	text31,global,reloc=2,class=CODE,delta=1,group=1
    51                           	psect	text32,global,reloc=2,class=CODE,delta=1,group=1
    52                           	psect	text33,global,reloc=2,class=CODE,delta=1,group=1
    53                           	psect	text34,global,reloc=2,class=CODE,delta=1,group=3
    54                           	psect	text35,global,reloc=2,class=CODE,delta=1,group=3
    55                           	psect	text36,global,reloc=2,class=CODE,delta=1,group=3
    56                           	psect	text37,global,reloc=2,class=CODE,delta=1,group=3
    57                           	psect	text38,global,reloc=2,class=CODE,delta=1,group=1
    58                           	psect	text39,global,reloc=2,class=CODE,delta=1,group=1
    59                           	psect	text40,global,reloc=2,class=CODE,delta=1,group=1
    60                           	psect	text41,global,reloc=2,class=CODE,delta=1,group=3
    61                           	psect	text42,global,reloc=2,class=CODE,delta=1,group=3
    62                           	psect	text43,global,reloc=2,class=CODE,delta=1,group=3
    63                           	psect	text44,global,reloc=2,class=CODE,delta=1,group=3
    64                           	psect	text45,global,reloc=2,class=CODE,delta=1,group=3
    65                           	psect	text46,global,reloc=2,class=CODE,delta=1,group=2
    66                           	psect	text47,global,reloc=2,class=CODE,delta=1,group=2
    67                           	psect	text48,global,reloc=2,class=CODE,delta=1
    68                           	psect	text49,global,reloc=2,class=CODE,delta=1
    69                           	psect	text50,global,reloc=2,class=CODE,delta=1
    70                           	psect	text51,global,reloc=2,class=CODE,delta=1
    71                           	psect	text52,global,reloc=2,class=CODE,delta=1
    72                           	psect	text53,global,reloc=2,class=CODE,delta=1
    73                           	psect	text54,global,reloc=2,class=CODE,delta=1
    74                           	psect	text55,global,reloc=2,class=CODE,delta=1
    75                           	psect	text56,global,reloc=2,class=CODE,delta=1
    76                           	psect	text57,global,reloc=2,class=CODE,delta=1
    77                           	psect	text58,global,reloc=2,class=CODE,delta=1
    78                           	psect	text59,global,reloc=2,class=CODE,delta=1
    79                           	psect	text60,global,reloc=2,class=CODE,delta=1
    80                           	psect	text61,global,reloc=2,class=CODE,delta=1
    81                           	psect	text62,global,reloc=2,class=CODE,delta=1,group=2
    82                           	psect	text63,global,reloc=2,class=CODE,delta=1
    83                           	psect	text64,global,reloc=2,class=CODE,delta=1
    84                           	psect	text65,global,reloc=2,class=CODE,delta=1
    85                           	psect	text66,global,reloc=2,class=CODE,delta=1
    86                           	psect	text67,global,reloc=2,class=CODE,delta=1,group=2
    87                           	psect	text68,global,reloc=2,class=CODE,delta=1,group=2
    88                           	psect	text69,global,reloc=2,class=CODE,delta=1
    89                           	psect	text70,global,reloc=2,class=CODE,delta=1
    90                           	psect	text71,global,reloc=2,class=CODE,delta=1
    91                           	psect	text72,global,reloc=2,class=CODE,delta=1
    92                           	psect	text73,global,reloc=2,class=CODE,delta=1
    93                           	psect	text74,global,reloc=2,class=CODE,delta=1
    94                           	psect	text75,global,reloc=2,class=CODE,delta=1
    95                           	psect	text76,global,reloc=2,class=CODE,delta=1
    96                           	psect	text77,global,reloc=2,class=CODE,delta=1
    97                           	psect	text78,global,reloc=2,class=CODE,delta=1
    98                           	psect	text79,global,reloc=2,class=CODE,delta=1
    99                           	psect	text80,global,reloc=2,class=CODE,delta=1
   100                           	psect	text81,global,reloc=2,class=CODE,delta=1,group=2
   101                           	psect	text82,global,reloc=2,class=CODE,delta=1,group=2
   102                           	psect	text83,global,reloc=2,class=CODE,delta=1,group=2
   103                           	psect	text84,global,reloc=2,class=CODE,delta=1,group=2
   104                           	psect	intsave_regs,global,class=BIGRAM,space=1,delta=1,noexec
   105                           	psect	rparam,global,class=COMRAM,space=1,delta=1,noexec
   106                           	psect	idloc,global,abs,ovrld,class=IDLOC,space=5,delta=1,noexec
   107                           	psect	config,global,abs,ovrld,class=CONFIG,space=4,delta=1,noexec
   108  0000                     
   109                           ; Version 2.20
   110                           ; Generated 12/02/2020 GMT
   111                           ; 
   112                           ; Copyright © 2020, Microchip Technology Inc. and its subsidiaries ("Microchip")
   113                           ; All rights reserved.
   114                           ; 
   115                           ; This software is developed by Microchip Technology Inc. and its subsidiaries ("Microch
      +                          ip").
   116                           ; 
   117                           ; Redistribution and use in source and binary forms, with or without modification, are
   118                           ; permitted provided that the following conditions are met:
   119                           ; 
   120                           ;     1. Redistributions of source code must retain the above copyright notice, this lis
      +                          t of
   121                           ;        conditions and the following disclaimer.
   122                           ; 
   123                           ;     2. Redistributions in binary form must reproduce the above copyright notice, this 
      +                          list
   124                           ;        of conditions and the following disclaimer in the documentation and/or other
   125                           ;        materials provided with the distribution.
   126                           ; 
   127                           ;     3. Microchip's name may not be used to endorse or promote products derived from th
      +                          is
   128                           ;        software without specific prior written permission.
   129                           ; 
   130                           ; THIS SOFTWARE IS PROVIDED BY MICROCHIP "AS IS" AND ANY EXPRESS OR IMPLIED WARRANTIES,
   131                           ; INCLUDING, BUT NOT LIMITED TO, THE IMPLIED WARRANTIES OF MERCHANTABILITY AND FITNESS F
      +                          OR
   132                           ; PURPOSE ARE DISCLAIMED.  IN NO EVENT SHALL MICROCHIP BE LIABLE FOR ANY DIRECT, INDIREC
      +                          T,
   133                           ; INCIDENTAL, SPECIAL, EXEMPLARY, OR CONSEQUENTIAL DAMAGES (INCLUDING BUT NOT LIMITED TO
   134                           ; PROCUREMENT OF SUBSTITUTE GOODS OR SERVICES; LOSS OF USE, DATA OR PROFITS; OR BUSINESS
   135                           ; INTERRUPTION) HOWSOEVER CAUSED AND ON ANY THEORY OF LIABILITY, WHETHER IN CONTRACT, ST
      +                          RICT
   136                           ; LIABILITY, OR TORT (INCLUDING NEGLIGENCE OR OTHERWISE) ARISING IN ANY WAY OUT OF THE U
      +                          SE OF
   137                           ; THIS SOFTWARE, EVEN IF ADVISED OF THE POSSIBILITY OF SUCH DAMAGE.
   138                           ; 
   139                           ; 
   140                           ; Code-generator required, PIC18F4550 Definitions
   141                           ; 
   142                           ; SFR Addresses
   143  0000                     
   144                           	psect	idataBANK1
   145  00400E                     __pidataBANK1:
   146                           	callstack 0
   147                           
   148                           ;initializer for iniciar_emoticones@F3817
   149  00400E  04                 	db	4
   150  00400F  15                 	db	21
   151  004010  0E                 	db	14
   152  004011  1F                 	db	31
   153  004012  0E                 	db	14
   154  004013  15                 	db	21
   155  004014  04                 	db	4
   156  004015  00                 	db	0
   157                           
   158                           ;initializer for stoa@F1141
   159  004016  28                 	db	40
   160  004017  6E                 	db	110
   161  004018  75                 	db	117
   162  004019  6C                 	db	108
   163  00401A  6C                 	db	108
   164  00401B  29                 	db	41
   165  00401C  00                 	db	0
   166                           
   167                           ;initializer for Reloj_Calendario@Time
   168  00401D  54                 	db	84
   169  00401E  49                 	db	73
   170  00401F  4D                 	db	77
   171  004020  45                 	db	69
   172  004021  3A                 	db	58
   173  004022  20                 	db	32
   174  004023  30                 	db	48
   175  004024  30                 	db	48
   176  004025  3A                 	db	58
   177  004026  30                 	db	48
   178  004027  30                 	db	48
   179  004028  3A                 	db	58
   180  004029  30                 	db	48
   181  00402A  30                 	db	48
   182  00402B  00                 	db	0
   183                           
   184                           	psect	idataBANK2
   185  003F9C                     __pidataBANK2:
   186                           	callstack 0
   187                           
   188                           ;initializer for iniciar_emoticones@F3823
   189  003F9C  00                 	db	0
   190  003F9D  0A                 	db	10
   191  003F9E  0A                 	db	10
   192  003F9F  00                 	db	0
   193  003FA0  1F                 	db	31
   194  003FA1  0E                 	db	14
   195  003FA2  04                 	db	4
   196  003FA3  00                 	db	0
   197                           
   198                           ;initializer for iniciar_emoticones@F3821
   199  003FA4  0A                 	db	10
   200  003FA5  0A                 	db	10
   201  003FA6  0A                 	db	10
   202  003FA7  1F                 	db	31
   203  003FA8  11                 	db	17
   204  003FA9  0E                 	db	14
   205  003FAA  04                 	db	4
   206  003FAB  04                 	db	4
   207                           
   208                           ;initializer for iniciar_emoticones@F3819
   209  003FAC  00                 	db	0
   210  003FAD  00                 	db	0
   211  003FAE  04                 	db	4
   212  003FAF  02                 	db	2
   213  003FB0  1F                 	db	31
   214  003FB1  02                 	db	2
   215  003FB2  04                 	db	4
   216  003FB3  00                 	db	0
   217                           
   218                           ;initializer for Reloj_Calendario@Date_var
   219  003FB4  44                 	db	68
   220  003FB5  41                 	db	65
   221  003FB6  54                 	db	84
   222  003FB7  45                 	db	69
   223  003FB8  3A                 	db	58
   224  003FB9  20                 	db	32
   225  003FBA  30                 	db	48
   226  003FBB  30                 	db	48
   227  003FBC  2F                 	db	47
   228  003FBD  30                 	db	48
   229  003FBE  30                 	db	48
   230  003FBF  2F                 	db	47
   231  003FC0  32                 	db	50
   232  003FC1  30                 	db	48
   233  003FC2  30                 	db	48
   234  003FC3  30                 	db	48
   235  003FC4  00                 	db	0
   236  0000                     _SSPCON2bits	set	4037
   237  0000                     _SSPADD	set	4040
   238  0000                     _SSPCON2	set	4037
   239  0000                     _SSPCON1	set	4038
   240  0000                     _SSPSTAT	set	4039
   241  0000                     _SSPBUF	set	4041
   242  0000                     _SSPSTATbits	set	4039
   243  0000                     _RCREG	set	4014
   244  0000                     _RCSTAbits	set	4011
   245  0000                     _TXREG	set	4013
   246  0000                     _RCSTA	set	4011
   247  0000                     _TXSTA	set	4012
   248  0000                     _SPBRG	set	4015
   249  0000                     _TRISAbits	set	3986
   250  0000                     _PORTCbits	set	3970
   251  0000                     _TRISCbits	set	3988
   252  0000                     _LATCbits	set	3979
   253  0000                     _LATD	set	3980
   254  0000                     _TRISD	set	3989
   255  0000                     _ADRESL	set	4035
   256  0000                     _ADRESH	set	4036
   257  0000                     _ADCON2bits	set	4032
   258  0000                     _ADCON0bits	set	4034
   259  0000                     _ADCON1bits	set	4033
   260  0000                     _TRISBbits	set	3987
   261  0000                     _OSCCON	set	4051
   262  0000                     _OSCCONbits	set	4051
   263  0000                     _PORTAbits	set	3968
   264  0000                     _ACKEN	set	32300
   265  0000                     _ACKDT	set	32301
   266  0000                     _PEN	set	32298
   267  0000                     _RSEN	set	32297
   268  0000                     _ACKSTAT	set	32302
   269  0000                     _SSPIF	set	31987
   270  0000                     _SSPIE	set	31979
   271  0000                     _TRISB1	set	31897
   272  0000                     _TRISB0	set	31896
   273  0000                     _RCEN	set	32299
   274  0000                     _CREN	set	32092
   275  0000                     _RCIF	set	31989
   276  0000                     _TXIF	set	31988
   277  0000                     _TRISC7	set	31911
   278  0000                     _TRISC6	set	31910
   279  0000                     _LATB3	set	31827
   280  0000                     _LATB4	set	31828
   281  0000                     _LATB5	set	31829
   282  0000                     _TRISB4	set	31900
   283  0000                     _TRISB3	set	31899
   284  0000                     _TRISB5	set	31901
   285  0000                     _TRISB6	set	31902
   286  0000                     _LATD1	set	31841
   287  0000                     _LATD0	set	31840
   288  0000                     _RBPU	set	32655
   289                           
   290                           	psect	smallconst
   291  000800                     __psmallconst:
   292                           	callstack 0
   293  000800  00                 	db	0
   294  000801                     STR_10:
   295  000801  25                 	db	37
   296  000802  73                 	db	115	;'s'
   297  000803  20                 	db	32
   298  000804  41                 	db	65	;'A'
   299  000805  6C                 	db	108	;'l'
   300  000806  65                 	db	101	;'e'
   301  000807  72                 	db	114	;'r'
   302  000808  74                 	db	116	;'t'
   303  000809  61                 	db	97	;'a'
   304  00080A  20                 	db	32
   305  00080B  64                 	db	100	;'d'
   306  00080C  65                 	db	101	;'e'
   307  00080D  20                 	db	32
   308  00080E  4C                 	db	76	;'L'
   309  00080F  75                 	db	117	;'u'
   310  000810  6D                 	db	109	;'m'
   311  000811  69                 	db	105	;'i'
   312  000812  6E                 	db	110	;'n'
   313  000813  6F                 	db	111	;'o'
   314  000814  73                 	db	115	;'s'
   315  000815  69                 	db	105	;'i'
   316  000816  64                 	db	100	;'d'
   317  000817  61                 	db	97	;'a'
   318  000818  64                 	db	100	;'d'
   319  000819  3A                 	db	58	;':'
   320  00081A  20                 	db	32
   321  00081B  25                 	db	37
   322  00081C  73                 	db	115	;'s'
   323  00081D  20                 	db	32
   324  00081E  50                 	db	80	;'P'
   325  00081F  6F                 	db	111	;'o'
   326  000820  72                 	db	114	;'r'
   327  000821  63                 	db	99	;'c'
   328  000822  69                 	db	105	;'i'
   329  000823  65                 	db	101	;'e'
   330  000824  6E                 	db	110	;'n'
   331  000825  74                 	db	116	;'t'
   332  000826  6F                 	db	111	;'o'
   333  000827  20                 	db	32
   334  000828  0D                 	db	13
   335  000829  0A                 	db	10
   336  00082A  00                 	db	0
   337  00082B                     STR_8:
   338  00082B  25                 	db	37
   339  00082C  73                 	db	115	;'s'
   340  00082D  20                 	db	32
   341  00082E  41                 	db	65	;'A'
   342  00082F  6C                 	db	108	;'l'
   343  000830  65                 	db	101	;'e'
   344  000831  72                 	db	114	;'r'
   345  000832  74                 	db	116	;'t'
   346  000833  61                 	db	97	;'a'
   347  000834  20                 	db	32
   348  000835  64                 	db	100	;'d'
   349  000836  65                 	db	101	;'e'
   350  000837  20                 	db	32
   351  000838  54                 	db	84	;'T'
   352  000839  65                 	db	101	;'e'
   353  00083A  6D                 	db	109	;'m'
   354  00083B  70                 	db	112	;'p'
   355  00083C  65                 	db	101	;'e'
   356  00083D  72                 	db	114	;'r'
   357  00083E  61                 	db	97	;'a'
   358  00083F  74                 	db	116	;'t'
   359  000840  75                 	db	117	;'u'
   360  000841  72                 	db	114	;'r'
   361  000842  61                 	db	97	;'a'
   362  000843  3A                 	db	58	;':'
   363  000844  20                 	db	32
   364  000845  25                 	db	37
   365  000846  73                 	db	115	;'s'
   366  000847  20                 	db	32
   367  000848  47                 	db	71	;'G'
   368  000849  20                 	db	32
   369  00084A  0D                 	db	13
   370  00084B  0A                 	db	10
   371  00084C  00                 	db	0
   372  00084D                     STR_9:
   373  00084D  25                 	db	37
   374  00084E  73                 	db	115	;'s'
   375  00084F  20                 	db	32
   376  000850  41                 	db	65	;'A'
   377  000851  6C                 	db	108	;'l'
   378  000852  65                 	db	101	;'e'
   379  000853  72                 	db	114	;'r'
   380  000854  74                 	db	116	;'t'
   381  000855  61                 	db	97	;'a'
   382  000856  20                 	db	32
   383  000857  64                 	db	100	;'d'
   384  000858  65                 	db	101	;'e'
   385  000859  20                 	db	32
   386  00085A  44                 	db	68	;'D'
   387  00085B  69                 	db	105	;'i'
   388  00085C  73                 	db	115	;'s'
   389  00085D  74                 	db	116	;'t'
   390  00085E  61                 	db	97	;'a'
   391  00085F  6E                 	db	110	;'n'
   392  000860  63                 	db	99	;'c'
   393  000861  69                 	db	105	;'i'
   394  000862  61                 	db	97	;'a'
   395  000863  3A                 	db	58	;':'
   396  000864  20                 	db	32
   397  000865  25                 	db	37
   398  000866  73                 	db	115	;'s'
   399  000867  20                 	db	32
   400  000868  43                 	db	67	;'C'
   401  000869  6D                 	db	109	;'m'
   402  00086A  20                 	db	32
   403  00086B  0D                 	db	13
   404  00086C  0A                 	db	10
   405  00086D  00                 	db	0
   406  00086E                     STR_12:
   407  00086E  54                 	db	84	;'T'
   408  00086F  69                 	db	105	;'i'
   409  000870  6D                 	db	109	;'m'
   410  000871  65                 	db	101	;'e'
   411  000872  3A                 	db	58	;':'
   412  000873  20                 	db	32
   413  000874  25                 	db	37
   414  000875  78                 	db	120	;'x'
   415  000876  3A                 	db	58	;':'
   416  000877  25                 	db	37
   417  000878  78                 	db	120	;'x'
   418  000879  3A                 	db	58	;':'
   419  00087A  25                 	db	37
   420  00087B  78                 	db	120	;'x'
   421  00087C  20                 	db	32
   422  00087D  41                 	db	65	;'A'
   423  00087E  4D                 	db	77	;'M'
   424  00087F  00                 	db	0
   425  000880                     STR_11:
   426  000880  54                 	db	84	;'T'
   427  000881  69                 	db	105	;'i'
   428  000882  6D                 	db	109	;'m'
   429  000883  65                 	db	101	;'e'
   430  000884  3A                 	db	58	;':'
   431  000885  20                 	db	32
   432  000886  25                 	db	37
   433  000887  78                 	db	120	;'x'
   434  000888  3A                 	db	58	;':'
   435  000889  25                 	db	37
   436  00088A  78                 	db	120	;'x'
   437  00088B  3A                 	db	58	;':'
   438  00088C  25                 	db	37
   439  00088D  78                 	db	120	;'x'
   440  00088E  20                 	db	32
   441  00088F  50                 	db	80	;'P'
   442  000890  4D                 	db	77	;'M'
   443  000891  00                 	db	0
   444  000892                     STR_14:
   445  000892  44                 	db	68	;'D'
   446  000893  61                 	db	97	;'a'
   447  000894  74                 	db	116	;'t'
   448  000895  65                 	db	101	;'e'
   449  000896  3A                 	db	58	;':'
   450  000897  20                 	db	32
   451  000898  25                 	db	37
   452  000899  78                 	db	120	;'x'
   453  00089A  2F                 	db	47
   454  00089B  25                 	db	37
   455  00089C  78                 	db	120	;'x'
   456  00089D  2F                 	db	47
   457  00089E  25                 	db	37
   458  00089F  78                 	db	120	;'x'
   459  0008A0  20                 	db	32
   460  0008A1  00                 	db	0
   461  0008A2                     STR_13:
   462  0008A2  54                 	db	84	;'T'
   463  0008A3  69                 	db	105	;'i'
   464  0008A4  6D                 	db	109	;'m'
   465  0008A5  65                 	db	101	;'e'
   466  0008A6  3A                 	db	58	;':'
   467  0008A7  20                 	db	32
   468  0008A8  25                 	db	37
   469  0008A9  78                 	db	120	;'x'
   470  0008AA  3A                 	db	58	;':'
   471  0008AB  25                 	db	37
   472  0008AC  78                 	db	120	;'x'
   473  0008AD  3A                 	db	58	;':'
   474  0008AE  25                 	db	37
   475  0008AF  78                 	db	120	;'x'
   476  0008B0  20                 	db	32
   477  0008B1  00                 	db	0
   478  0008B2                     STR_1:
   479  0008B2  44                 	db	68	;'D'
   480  0008B3  3A                 	db	58	;':'
   481  0008B4  54                 	db	84	;'T'
   482  0008B5  3A                 	db	58	;':'
   483  0008B6  4C                 	db	76	;'L'
   484  0008B7  3A                 	db	58	;':'
   485  0008B8  00                 	db	0
   486  0008B9                     STR_2:
   487  0008B9  25                 	db	37
   488  0008BA  64                 	db	100	;'d'
   489  0008BB  63                 	db	99	;'c'
   490  0008BC  6D                 	db	109	;'m'
   491  0008BD  00                 	db	0
   492  0008BE                     STR_3:
   493  0008BE  25                 	db	37
   494  0008BF  64                 	db	100	;'d'
   495  0008C0  47                 	db	71	;'G'
   496  0008C1  00                 	db	0
   497  0008C2                     STR_4:
   498  0008C2  25                 	db	37
   499  0008C3  64                 	db	100	;'d'
   500  0008C4  50                 	db	80	;'P'
   501  0008C5  00                 	db	0
   502  0008C6                     STR_15:
   503  0008C6  20                 	db	32
   504  0008C7  20                 	db	32
   505  0008C8  00                 	db	0
   506  0008C9                     STR_5:
   507  0008C9  25                 	db	37
   508  0008CA  64                 	db	100	;'d'
   509  0008CB  00                 	db	0
   510  0008CC  00                 	db	0	; dummy byte at the end
   511  0000                     
   512                           ; #config settings
   513                           
   514                           	psect	cinit
   515  003526                     __pcinit:
   516                           	callstack 0
   517  003526                     start_initialization:
   518                           	callstack 0
   519  003526                     __initialization:
   520                           	callstack 0
   521                           
   522                           ; Initialize objects allocated to BANK2 (41 bytes)
   523                           ; load TBLPTR registers with __pidataBANK2
   524  003526  0E9C               	movlw	low __pidataBANK2
   525  003528  6EF6               	movwf	tblptrl,c
   526  00352A  0E3F               	movlw	high __pidataBANK2
   527  00352C  6EF7               	movwf	tblptrh,c
   528  00352E  0E00               	movlw	low (__pidataBANK2 shr (0+16))
   529  003530  6EF8               	movwf	tblptru,c
   530  003532  EE02  F0BA         	lfsr	0,__pdataBANK2
   531  003536  EE10 F029          	lfsr	1,41
   532  00353A                     copy_data0:
   533  00353A  0009               	tblrd		*+
   534  00353C  CFF5 FFEE          	movff	tablat,postinc0
   535  003540  50E5               	movf	postdec1,w,c
   536  003542  50E1               	movf	fsr1l,w,c
   537  003544  E1FA               	bnz	copy_data0
   538                           
   539                           ; Initialize objects allocated to BANK1 (30 bytes)
   540                           ; load TBLPTR registers with __pidataBANK1
   541  003546  0E0E               	movlw	low __pidataBANK1
   542  003548  6EF6               	movwf	tblptrl,c
   543  00354A  0E40               	movlw	high __pidataBANK1
   544  00354C  6EF7               	movwf	tblptrh,c
   545  00354E  0E00               	movlw	low (__pidataBANK1 shr (0+16))
   546  003550  6EF8               	movwf	tblptru,c
   547  003552  EE01  F0C8         	lfsr	0,__pdataBANK1
   548  003556  EE10 F01E          	lfsr	1,30
   549  00355A                     copy_data1:
   550  00355A  0009               	tblrd		*+
   551  00355C  CFF5 FFEE          	movff	tablat,postinc0
   552  003560  50E5               	movf	postdec1,w,c
   553  003562  50E1               	movf	fsr1l,w,c
   554  003564  E1FA               	bnz	copy_data1
   555                           
   556                           ; Clear objects allocated to BANK3 (240 bytes)
   557  003566  EE03  F000         	lfsr	0,__pbssBANK3
   558  00356A  0EF0               	movlw	240
   559  00356C                     clear_0:
   560  00356C  6AEE               	clrf	postinc0,c
   561  00356E  06E8               	decf	wreg,f,c
   562  003570  E1FD               	bnz	clear_0
   563                           
   564                           ; Clear objects allocated to BANK2 (94 bytes)
   565  003572  EE02  F000         	lfsr	0,__pbssBANK2
   566  003576  0E5E               	movlw	94
   567  003578                     clear_1:
   568  003578  6AEE               	clrf	postinc0,c
   569  00357A  06E8               	decf	wreg,f,c
   570  00357C  E1FD               	bnz	clear_1
   571                           
   572                           ; Clear objects allocated to BANK1 (24 bytes)
   573  00357E  EE01  F0E6         	lfsr	0,__pbssBANK1
   574  003582  0E18               	movlw	24
   575  003584                     clear_2:
   576  003584  6AEE               	clrf	postinc0,c
   577  003586  06E8               	decf	wreg,f,c
   578  003588  E1FD               	bnz	clear_2
   579                           
   580                           ; Clear objects allocated to BANK0 (15 bytes)
   581  00358A  EE00  F0F1         	lfsr	0,__pbssBANK0
   582  00358E  0E0F               	movlw	15
   583  003590                     clear_3:
   584  003590  6AEE               	clrf	postinc0,c
   585  003592  06E8               	decf	wreg,f,c
   586  003594  E1FD               	bnz	clear_3
   587  003596                     end_of_initialization:
   588                           	callstack 0
   589  003596                     __end_of__initialization:
   590                           	callstack 0
   591  003596  0E00               	movlw	low (__Lmediumconst shr (0+16))
   592  003598  6EF8               	movwf	tblptru,c
   593  00359A  0100               	movlb	0
   594  00359C  EF16  F01A         	goto	_main	;jump to C main() function
   595                           
   596                           	psect	bssBANK0
   597  0000F1                     __pbssBANK0:
   598                           	callstack 0
   599  0000F1                     _prec:
   600                           	callstack 0
   601  0000F1                     	ds	2
   602  0000F3                     _flags:
   603                           	callstack 0
   604  0000F3                     	ds	2
   605  0000F5                     _hour:
   606                           	callstack 0
   607  0000F5                     	ds	2
   608  0000F7                     _val_distancia:
   609                           	callstack 0
   610  0000F7                     	ds	2
   611  0000F9                     _i:
   612                           	callstack 0
   613  0000F9                     	ds	1
   614  0000FA                     _day:
   615                           	callstack 0
   616  0000FA                     	ds	1
   617  0000FB                     _month:
   618                           	callstack 0
   619  0000FB                     	ds	1
   620  0000FC                     _year:
   621                           	callstack 0
   622  0000FC                     	ds	1
   623  0000FD                     _seconds:
   624                           	callstack 0
   625  0000FD                     	ds	1
   626  0000FE                     _minutes:
   627                           	callstack 0
   628  0000FE                     	ds	1
   629  0000FF                     _hours:
   630                           	callstack 0
   631  0000FF                     	ds	1
   632                           
   633                           	psect	bssBANK1
   634  0001E6                     __pbssBANK1:
   635                           	callstack 0
   636  0001E6                     _nout:
   637                           	callstack 0
   638  0001E6                     	ds	2
   639  0001E8                     _width:
   640                           	callstack 0
   641  0001E8                     	ds	2
   642  0001EA                     _Year:
   643                           	callstack 0
   644  0001EA                     	ds	2
   645  0001EC                     _Month:
   646                           	callstack 0
   647  0001EC                     	ds	2
   648  0001EE                     _Date:
   649                           	callstack 0
   650  0001EE                     	ds	2
   651  0001F0                     _Day:
   652                           	callstack 0
   653  0001F0                     	ds	2
   654  0001F2                     _min:
   655                           	callstack 0
   656  0001F2                     	ds	2
   657  0001F4                     _sec:
   658                           	callstack 0
   659  0001F4                     	ds	2
   660  0001F6                     _val_luminosidad:
   661                           	callstack 0
   662  0001F6                     	ds	2
   663  0001F8                     _val_intensidad:
   664                           	callstack 0
   665  0001F8                     	ds	2
   666  0001FA                     _value_adc:
   667                           	callstack 0
   668  0001FA                     	ds	2
   669  0001FC                     _val_temp:
   670                           	callstack 0
   671  0001FC                     	ds	2
   672                           
   673                           	psect	dataBANK1
   674  0001C8                     __pdataBANK1:
   675                           	callstack 0
   676  0001C8                     iniciar_emoticones@F3817:
   677                           	callstack 0
   678  0001C8                     	ds	8
   679  0001D0                     stoa@F1141:
   680                           	callstack 0
   681  0001D0                     	ds	7
   682  0001D7                     Reloj_Calendario@Time:
   683                           	callstack 0
   684  0001D7                     	ds	15
   685                           
   686                           	psect	bssBANK2
   687  000200                     __pbssBANK2:
   688                           	callstack 0
   689  000200                     	ds	16
   690  000210                     	ds	16
   691  000220                     	ds	16
   692  000230                     _s_luz:
   693                           	callstack 0
   694  000230                     	ds	2
   695  000232                     _s_temp:
   696                           	callstack 0
   697  000232                     	ds	2
   698  000234                     _s_dist:
   699                           	callstack 0
   700  000234                     	ds	2
   701  000236                     _estado:
   702                           	callstack 0
   703  000236                     	ds	2
   704  000238                     _lum_ant:
   705                           	callstack 0
   706  000238                     	ds	2
   707  00023A                     _dist_ant:
   708                           	callstack 0
   709  00023A                     	ds	2
   710  00023C                     _temp_ant:
   711                           	callstack 0
   712  00023C                     	ds	2
   713  00023E                     _dbuf:
   714                           	callstack 0
   715  00023E                     	ds	32
   716                           
   717                           	psect	dataBANK2
   718  0002BA                     __pdataBANK2:
   719                           	callstack 0
   720  0002BA                     iniciar_emoticones@F3823:
   721                           	callstack 0
   722  0002BA                     	ds	8
   723  0002C2                     iniciar_emoticones@F3821:
   724                           	callstack 0
   725  0002C2                     	ds	8
   726  0002CA                     iniciar_emoticones@F3819:
   727                           	callstack 0
   728  0002CA                     	ds	8
   729  0002D2                     Reloj_Calendario@Date_var:
   730                           	callstack 0
   731  0002D2                     	ds	17
   732                           
   733                           	psect	bssBANK3
   734  000300                     __pbssBANK3:
   735                           	callstack 0
   736  000300                     _var:
   737                           	callstack 0
   738  000300                     	ds	120
   739  000378                     _time:
   740                           	callstack 0
   741  000378                     	ds	60
   742  0003B4                     _date:
   743                           	callstack 0
   744  0003B4                     	ds	60
   745                           
   746                           	psect	cstackBANK2
   747  00025E                     __pcstackBANK2:
   748                           	callstack 0
   749  00025E                     validar@valor_usart:
   750                           	callstack 0
   751                           
   752                           ; 30 bytes @ 0x0
   753  00025E                     	ds	30
   754  00027C                     validar@valor_usart_842:
   755                           	callstack 0
   756                           
   757                           ; 30 bytes @ 0x1E
   758  00027C                     	ds	30
   759  00029A                     validar@valor_usart_844:
   760                           	callstack 0
   761                           
   762                           ; 30 bytes @ 0x3C
   763  00029A                     	ds	30
   764  0002B8                     validar@contador:
   765                           	callstack 0
   766                           
   767                           ; 2 bytes @ 0x5A
   768  0002B8                     	ds	2
   769                           
   770                           	psect	cstackBANK1
   771  000100                     __pcstackBANK1:
   772                           	callstack 0
   773  000100                     mostrar_estadistica@mensaje_usart_851:
   774                           	callstack 0
   775                           
   776                           ; 100 bytes @ 0x0
   777  000100                     	ds	100
   778  000164                     mostrar_estadistica@mensaje_usart_853:
   779                           	callstack 0
   780                           
   781                           ; 100 bytes @ 0x64
   782  000164                     	ds	100
   783                           
   784                           	psect	cstackBANK0
   785  000060                     __pcstackBANK0:
   786                           	callstack 0
   787  000060                     ?_vfprintf:
   788                           	callstack 0
   789  000060                     vfprintf@fp:
   790                           	callstack 0
   791                           
   792                           ; 2 bytes @ 0x0
   793  000060                     	ds	2
   794  000062                     vfprintf@fmt:
   795                           	callstack 0
   796                           
   797                           ; 2 bytes @ 0x2
   798  000062                     	ds	2
   799  000064                     vfprintf@ap:
   800                           	callstack 0
   801                           
   802                           ; 2 bytes @ 0x4
   803  000064                     	ds	2
   804  000066                     vfprintf@cfmt:
   805                           	callstack 0
   806                           
   807                           ; 2 bytes @ 0x6
   808  000066                     	ds	2
   809  000068                     ?_sprintf:
   810                           	callstack 0
   811  000068                     sprintf@s:
   812                           	callstack 0
   813                           
   814                           ; 2 bytes @ 0x8
   815  000068                     	ds	2
   816  00006A                     sprintf@fmt:
   817                           	callstack 0
   818                           
   819                           ; 2 bytes @ 0xA
   820  00006A                     	ds	8
   821  000072                     sprintf@ap:
   822                           	callstack 0
   823                           
   824                           ; 2 bytes @ 0x12
   825  000072                     	ds	2
   826  000074                     sprintf@f:
   827                           	callstack 0
   828                           
   829                           ; 6 bytes @ 0x14
   830  000074                     	ds	6
   831  00007A                     RTC_obtener_hora@AM_PM:
   832                           	callstack 0
   833  00007A                     imprimir@dist:
   834                           	callstack 0
   835                           
   836                           ; 2 bytes @ 0x1A
   837  00007A                     	ds	1
   838  00007B                     ?_obtener_tiempo_fecha:
   839                           	callstack 0
   840                           
   841                           ; 2 bytes @ 0x1B
   842  00007B                     	ds	1
   843  00007C                     imprimir@temp:
   844                           	callstack 0
   845                           
   846                           ; 2 bytes @ 0x1C
   847  00007C                     	ds	1
   848  00007D                     mostrar_estadistica@sensor:
   849                           	callstack 0
   850                           
   851                           ; 2 bytes @ 0x1D
   852  00007D                     	ds	1
   853  00007E                     imprimir@luz:
   854                           	callstack 0
   855                           
   856                           ; 2 bytes @ 0x1E
   857  00007E                     	ds	1
   858  00007F                     mostrar_estadistica@valor_usart:
   859                           	callstack 0
   860                           
   861                           ; 2 bytes @ 0x1F
   862  00007F                     	ds	1
   863  000080                     ??_imprimir:
   864                           
   865                           ; 1 bytes @ 0x20
   866  000080                     	ds	1
   867  000081                     mostrar_estadistica@mensaje_usart:
   868                           	callstack 0
   869                           
   870                           ; 100 bytes @ 0x21
   871  000081                     	ds	1
   872  000082                     imprimir@aux_dist:
   873                           	callstack 0
   874                           
   875                           ; 16 bytes @ 0x22
   876  000082                     	ds	16
   877  000092                     imprimir@aux_temp:
   878                           	callstack 0
   879                           
   880                           ; 16 bytes @ 0x32
   881  000092                     	ds	16
   882  0000A2                     imprimir@aux_luz:
   883                           	callstack 0
   884                           
   885                           ; 16 bytes @ 0x42
   886  0000A2                     	ds	67
   887  0000E5                     _mostrar_estadistica$2248:
   888                           	callstack 0
   889                           
   890                           ; 2 bytes @ 0x85
   891  0000E5                     	ds	2
   892  0000E7                     ?_validar:
   893                           	callstack 0
   894  0000E7                     validar@temp:
   895                           	callstack 0
   896                           
   897                           ; 2 bytes @ 0x87
   898  0000E7                     	ds	2
   899  0000E9                     validar@distancia:
   900                           	callstack 0
   901                           
   902                           ; 2 bytes @ 0x89
   903  0000E9                     	ds	2
   904  0000EB                     validar@luz:
   905                           	callstack 0
   906                           
   907                           ; 2 bytes @ 0x8B
   908  0000EB                     	ds	2
   909  0000ED                     encender_leds@valor:
   910                           	callstack 0
   911                           
   912                           ; 2 bytes @ 0x8D
   913  0000ED                     	ds	2
   914  0000EF                     ??_mostrar_estadisticas:
   915  0000EF                     ??_mostrar_hora:
   916                           
   917                           ; 1 bytes @ 0x8F
   918  0000EF                     	ds	2
   919                           
   920                           	psect	cstackCOMRAM
   921  000001                     __pcstackCOMRAM:
   922                           	callstack 0
   923  000001                     ??_LCD_Command:
   924  000001                     ??_LCD_Char:
   925  000001                     ??_BCD_a_Decimal:
   926  000001                     ??_Anti_rebote:
   927  000001                     ??_Parpadeo:
   928  000001                     ?_obtener_distancia:
   929                           	callstack 0
   930  000001                     ?_strlen:
   931                           	callstack 0
   932  000001                     ?_isupper:
   933                           	callstack 0
   934  000001                     ?_isalpha:
   935                           	callstack 0
   936  000001                     ?_islower:
   937                           	callstack 0
   938  000001                     ?_adc_read10Bits:
   939                           	callstack 0
   940  000001                     ?___wmul:
   941                           	callstack 0
   942  000001                     ?___awdiv:
   943                           	callstack 0
   944  000001                     ?___awmod:
   945                           	callstack 0
   946  000001                     ?___xxtofl:
   947                           	callstack 0
   948  000001                     ?___aodiv:
   949                           	callstack 0
   950  000001                     ?___aomod:
   951                           	callstack 0
   952  000001                     USART_TxChar@out:
   953                           	callstack 0
   954  000001                     I2C_Read@flag:
   955                           	callstack 0
   956  000001                     I2C_Write@data:
   957                           	callstack 0
   958  000001                     adc_config@canal:
   959                           	callstack 0
   960  000001                     ___wmul@multiplier:
   961                           	callstack 0
   962  000001                     ___awdiv@dividend:
   963                           	callstack 0
   964  000001                     ___awmod@dividend:
   965                           	callstack 0
   966  000001                     isalpha@c:
   967                           	callstack 0
   968  000001                     isupper@c:
   969                           	callstack 0
   970  000001                     fputc@c:
   971                           	callstack 0
   972  000001                     strlen@s:
   973                           	callstack 0
   974  000001                     islower@c:
   975                           	callstack 0
   976  000001                     ___xxtofl@val:
   977                           	callstack 0
   978  000001                     ___aodiv@dividend:
   979                           	callstack 0
   980  000001                     ___aomod@dividend:
   981                           	callstack 0
   982                           
   983                           ; 8 bytes @ 0x0
   984  000001                     	ds	1
   985  000002                     LCD_Command@cmd:
   986                           	callstack 0
   987  000002                     LCD_Char@dat:
   988                           	callstack 0
   989  000002                     I2C_Read@buffer:
   990                           	callstack 0
   991  000002                     I2C_Start@slave_write_address:
   992                           	callstack 0
   993  000002                     I2C_Repeated_Start@slave_read_address:
   994                           	callstack 0
   995  000002                     BCD_a_Decimal@numero:
   996                           	callstack 0
   997  000002                     Anti_rebote@contador:
   998                           	callstack 0
   999  000002                     Parpadeo@j:
  1000                           	callstack 0
  1001  000002                     USART_SendString@out:
  1002                           	callstack 0
  1003                           
  1004                           ; 2 bytes @ 0x1
  1005  000002                     	ds	1
  1006  000003                     ??_inicializar_lcd:
  1007  000003                     ??_isupper:
  1008  000003                     ??_isalpha:
  1009  000003                     ??_islower:
  1010  000003                     ??_adc_read10Bits:
  1011  000003                     ??_RTC_Read_Clock:
  1012  000003                     ??_RTC_Read_Calendar:
  1013  000003                     LCD_xy@pos:
  1014                           	callstack 0
  1015  000003                     mostrar_emoticon@i:
  1016                           	callstack 0
  1017  000003                     RTC_Clock_Write@min:
  1018                           	callstack 0
  1019  000003                     RTC_Calendar_Write@date:
  1020                           	callstack 0
  1021  000003                     Anti_rebote@i:
  1022                           	callstack 0
  1023  000003                     adc_init10Bits@canal:
  1024                           	callstack 0
  1025  000003                     LCD_String@msg:
  1026                           	callstack 0
  1027  000003                     LCD_Custom_Char@msg:
  1028                           	callstack 0
  1029  000003                     obtener_distancia@cm:
  1030                           	callstack 0
  1031  000003                     ___wmul@multiplicand:
  1032                           	callstack 0
  1033  000003                     ___awdiv@divisor:
  1034                           	callstack 0
  1035  000003                     ___awmod@divisor:
  1036                           	callstack 0
  1037  000003                     fputc@fp:
  1038                           	callstack 0
  1039  000003                     strlen@a:
  1040                           	callstack 0
  1041                           
  1042                           ; 2 bytes @ 0x2
  1043  000003                     	ds	1
  1044  000004                     LCD_xy@row:
  1045                           	callstack 0
  1046  000004                     RTC_Clock_Write@hour:
  1047                           	callstack 0
  1048  000004                     RTC_Calendar_Write@month:
  1049                           	callstack 0
  1050  000004                     RTC_Read_Clock@read_clock_address:
  1051                           	callstack 0
  1052  000004                     RTC_Read_Calendar@read_calendar_address:
  1053                           	callstack 0
  1054                           
  1055                           ; 1 bytes @ 0x3
  1056  000004                     	ds	1
  1057  000005                     ??_fputc:
  1058  000005                     ??___xxtofl:
  1059  000005                     ?_sensor_distancia:
  1060                           	callstack 0
  1061  000005                     LCD_String_xy@pos:
  1062                           	callstack 0
  1063  000005                     LCD_xy@location:
  1064                           	callstack 0
  1065  000005                     LCD_Custom_Char@loc:
  1066                           	callstack 0
  1067  000005                     RTC_Clock_Write@AM_PM:
  1068                           	callstack 0
  1069  000005                     RTC_Calendar_Write@year:
  1070                           	callstack 0
  1071  000005                     ___awdiv@counter:
  1072                           	callstack 0
  1073  000005                     ___awmod@counter:
  1074                           	callstack 0
  1075  000005                     adc_read10Bits@value_adc:
  1076                           	callstack 0
  1077  000005                     ___wmul@product:
  1078                           	callstack 0
  1079  000005                     strcpy@dest:
  1080                           	callstack 0
  1081                           
  1082                           ; 2 bytes @ 0x4
  1083  000005                     	ds	1
  1084  000006                     LCD_Custom_Char@i:
  1085                           	callstack 0
  1086  000006                     RTC_Clock_Write@sec:
  1087                           	callstack 0
  1088  000006                     RTC_Calendar_Write@day:
  1089                           	callstack 0
  1090  000006                     ___awdiv@sign:
  1091                           	callstack 0
  1092  000006                     ___awmod@sign:
  1093                           	callstack 0
  1094  000006                     LCD_String_xy@msg:
  1095                           	callstack 0
  1096                           
  1097                           ; 2 bytes @ 0x5
  1098  000006                     	ds	1
  1099  000007                     ?_toupper:
  1100                           	callstack 0
  1101  000007                     ?___lwdiv:
  1102                           	callstack 0
  1103  000007                     ___awdiv@quotient:
  1104                           	callstack 0
  1105  000007                     ___lwdiv@dividend:
  1106                           	callstack 0
  1107  000007                     strcpy@src:
  1108                           	callstack 0
  1109  000007                     toupper@c:
  1110                           	callstack 0
  1111  000007                     iniciar_emoticones@temperatura:
  1112                           	callstack 0
  1113                           
  1114                           ; 8 bytes @ 0x6
  1115  000007                     	ds	1
  1116  000008                     LCD_String_xy@row:
  1117                           	callstack 0
  1118                           
  1119                           ; 1 bytes @ 0x7
  1120  000008                     	ds	1
  1121  000009                     ??_toupper:
  1122  000009                     ??_Decimal_a_BCD:
  1123  000009                     LCD_String_xy@location:
  1124                           	callstack 0
  1125  000009                     Establecer_Hora_Fecha@y:
  1126                           	callstack 0
  1127  000009                     ___xxtofl@sign:
  1128                           	callstack 0
  1129  000009                     ___lwdiv@divisor:
  1130                           	callstack 0
  1131  000009                     strcpy@s:
  1132                           	callstack 0
  1133  000009                     ___aodiv@divisor:
  1134                           	callstack 0
  1135  000009                     ___aomod@divisor:
  1136                           	callstack 0
  1137                           
  1138                           ; 8 bytes @ 0x8
  1139  000009                     	ds	1
  1140  00000A                     ?_stoa:
  1141                           	callstack 0
  1142  00000A                     Establecer_Hora_Fecha@parametro:
  1143                           	callstack 0
  1144  00000A                     ___xxtofl@exp:
  1145                           	callstack 0
  1146  00000A                     stoa@fp:
  1147                           	callstack 0
  1148  00000A                     fputs@s:
  1149                           	callstack 0
  1150                           
  1151                           ; 2 bytes @ 0x9
  1152  00000A                     	ds	1
  1153  00000B                     ??_Establecer_Hora_Fecha:
  1154  00000B                     Decimal_a_BCD@numero:
  1155                           	callstack 0
  1156  00000B                     ___lwdiv@quotient:
  1157                           	callstack 0
  1158  00000B                     strcpy@d:
  1159                           	callstack 0
  1160  00000B                     ___xxtofl@arg:
  1161                           	callstack 0
  1162                           
  1163                           ; 4 bytes @ 0xA
  1164  00000B                     	ds	1
  1165  00000C                     stoa@s:
  1166                           	callstack 0
  1167  00000C                     fputs@fp:
  1168                           	callstack 0
  1169                           
  1170                           ; 2 bytes @ 0xB
  1171  00000C                     	ds	1
  1172  00000D                     ?_strcat:
  1173                           	callstack 0
  1174  00000D                     Establecer_Hora_Fecha@x:
  1175                           	callstack 0
  1176  00000D                     ___lwdiv@counter:
  1177                           	callstack 0
  1178  00000D                     strcat@dest:
  1179                           	callstack 0
  1180  00000D                     _toupper$1992:
  1181                           	callstack 0
  1182                           
  1183                           ; 2 bytes @ 0xC
  1184  00000D                     	ds	1
  1185  00000E                     ??_configurarHora:
  1186  00000E                     ??_stoa:
  1187  00000E                     ?_sensor_luz:
  1188                           	callstack 0
  1189  00000E                     fputs@c:
  1190                           	callstack 0
  1191                           
  1192                           ; 1 bytes @ 0xD
  1193  00000E                     	ds	1
  1194  00000F                     ?___fldiv:
  1195                           	callstack 0
  1196  00000F                     ?___flmul:
  1197                           	callstack 0
  1198  00000F                     fputs@i:
  1199                           	callstack 0
  1200  00000F                     strcat@src:
  1201                           	callstack 0
  1202  00000F                     ___fldiv@b:
  1203                           	callstack 0
  1204  00000F                     ___flmul@b:
  1205                           	callstack 0
  1206  00000F                     stoa@nuls:
  1207                           	callstack 0
  1208  00000F                     iniciar_emoticones@distancia:
  1209                           	callstack 0
  1210                           
  1211                           ; 8 bytes @ 0xE
  1212  00000F                     	ds	1
  1213  000010                     ??_sensor_luz:
  1214                           
  1215                           ; 1 bytes @ 0xF
  1216  000010                     	ds	1
  1217  000011                     ?_pad:
  1218                           	callstack 0
  1219  000011                     ___aodiv@counter:
  1220                           	callstack 0
  1221  000011                     ___aomod@counter:
  1222                           	callstack 0
  1223  000011                     pad@fp:
  1224                           	callstack 0
  1225                           
  1226                           ; 2 bytes @ 0x10
  1227  000011                     	ds	1
  1228  000012                     ___aodiv@sign:
  1229                           	callstack 0
  1230  000012                     ___aomod@sign:
  1231                           	callstack 0
  1232                           
  1233                           ; 1 bytes @ 0x11
  1234  000012                     	ds	1
  1235  000013                     ?_abs:
  1236                           	callstack 0
  1237  000013                     pad@buf:
  1238                           	callstack 0
  1239  000013                     abs@a:
  1240                           	callstack 0
  1241  000013                     ___fldiv@a:
  1242                           	callstack 0
  1243  000013                     ___flmul@a:
  1244                           	callstack 0
  1245  000013                     ___aodiv@quotient:
  1246                           	callstack 0
  1247                           
  1248                           ; 8 bytes @ 0x12
  1249  000013                     	ds	2
  1250  000015                     ??_abs:
  1251  000015                     pad@p:
  1252                           	callstack 0
  1253                           
  1254                           ; 2 bytes @ 0x14
  1255  000015                     	ds	1
  1256  000016                     stoa@i:
  1257                           	callstack 0
  1258                           
  1259                           ; 2 bytes @ 0x15
  1260  000016                     	ds	1
  1261  000017                     ??___fldiv:
  1262  000017                     ??___flmul:
  1263  000017                     ??_pad:
  1264  000017                     iniciar_emoticones@luz:
  1265                           	callstack 0
  1266                           
  1267                           ; 8 bytes @ 0x16
  1268  000017                     	ds	1
  1269  000018                     pad@i:
  1270                           	callstack 0
  1271  000018                     stoa@w:
  1272                           	callstack 0
  1273                           
  1274                           ; 2 bytes @ 0x17
  1275  000018                     	ds	2
  1276  00001A                     pad@w:
  1277                           	callstack 0
  1278  00001A                     stoa@cp:
  1279                           	callstack 0
  1280                           
  1281                           ; 2 bytes @ 0x19
  1282  00001A                     	ds	1
  1283  00001B                     ___flmul@sign:
  1284                           	callstack 0
  1285  00001B                     ___fldiv@rem:
  1286                           	callstack 0
  1287                           
  1288                           ; 4 bytes @ 0x1A
  1289  00001B                     	ds	1
  1290  00001C                     ?_dtoa:
  1291                           	callstack 0
  1292  00001C                     ?_xtoa:
  1293                           	callstack 0
  1294  00001C                     dtoa@fp:
  1295                           	callstack 0
  1296  00001C                     stoa@p:
  1297                           	callstack 0
  1298  00001C                     xtoa@fp:
  1299                           	callstack 0
  1300  00001C                     ___flmul@grs:
  1301                           	callstack 0
  1302                           
  1303                           ; 4 bytes @ 0x1B
  1304  00001C                     	ds	2
  1305  00001E                     stoa@l:
  1306                           	callstack 0
  1307  00001E                     dtoa@d:
  1308                           	callstack 0
  1309  00001E                     xtoa@d:
  1310                           	callstack 0
  1311                           
  1312                           ; 8 bytes @ 0x1D
  1313  00001E                     	ds	1
  1314  00001F                     ___fldiv@sign:
  1315                           	callstack 0
  1316  00001F                     iniciar_emoticones@todo_bien:
  1317                           	callstack 0
  1318                           
  1319                           ; 8 bytes @ 0x1E
  1320  00001F                     	ds	1
  1321  000020                     ___flmul@aexp:
  1322                           	callstack 0
  1323  000020                     ___fldiv@new_exp:
  1324                           	callstack 0
  1325                           
  1326                           ; 2 bytes @ 0x1F
  1327  000020                     	ds	1
  1328  000021                     ___flmul@bexp:
  1329                           	callstack 0
  1330                           
  1331                           ; 1 bytes @ 0x20
  1332  000021                     	ds	1
  1333  000022                     ___fldiv@grs:
  1334                           	callstack 0
  1335  000022                     ___flmul@prod:
  1336                           	callstack 0
  1337                           
  1338                           ; 4 bytes @ 0x21
  1339  000022                     	ds	4
  1340  000026                     ??_dtoa:
  1341  000026                     ___fldiv@bexp:
  1342                           	callstack 0
  1343  000026                     xtoa@x:
  1344                           	callstack 0
  1345  000026                     ___flmul@temp:
  1346                           	callstack 0
  1347                           
  1348                           ; 2 bytes @ 0x25
  1349  000026                     	ds	1
  1350  000027                     ??_xtoa:
  1351  000027                     ___fldiv@aexp:
  1352                           	callstack 0
  1353                           
  1354                           ; 1 bytes @ 0x26
  1355  000027                     	ds	1
  1356  000028                     ?___fladd:
  1357                           	callstack 0
  1358  000028                     ?___fltol:
  1359                           	callstack 0
  1360  000028                     ___fltol@f1:
  1361                           	callstack 0
  1362  000028                     ___fladd@b:
  1363                           	callstack 0
  1364                           
  1365                           ; 4 bytes @ 0x27
  1366  000028                     	ds	4
  1367  00002C                     ??___fltol:
  1368  00002C                     ___fladd@a:
  1369                           	callstack 0
  1370                           
  1371                           ; 4 bytes @ 0x2B
  1372  00002C                     	ds	2
  1373  00002E                     _dtoa$1866:
  1374                           	callstack 0
  1375                           
  1376                           ; 2 bytes @ 0x2D
  1377  00002E                     	ds	1
  1378  00002F                     _xtoa$1888:
  1379                           	callstack 0
  1380                           
  1381                           ; 2 bytes @ 0x2E
  1382  00002F                     	ds	1
  1383  000030                     ??___fladd:
  1384  000030                     ___fltol@sign1:
  1385                           	callstack 0
  1386  000030                     dtoa@p:
  1387                           	callstack 0
  1388                           
  1389                           ; 2 bytes @ 0x2F
  1390  000030                     	ds	1
  1391  000031                     ___fltol@exp1:
  1392                           	callstack 0
  1393  000031                     _xtoa$1889:
  1394                           	callstack 0
  1395                           
  1396                           ; 2 bytes @ 0x30
  1397  000031                     	ds	1
  1398  000032                     ?_sensor_temperatura:
  1399                           	callstack 0
  1400  000032                     dtoa@w:
  1401                           	callstack 0
  1402                           
  1403                           ; 2 bytes @ 0x31
  1404  000032                     	ds	1
  1405  000033                     xtoa@p:
  1406                           	callstack 0
  1407                           
  1408                           ; 2 bytes @ 0x32
  1409  000033                     	ds	1
  1410  000034                     ___fladd@signs:
  1411                           	callstack 0
  1412  000034                     dtoa@s:
  1413                           	callstack 0
  1414                           
  1415                           ; 2 bytes @ 0x33
  1416  000034                     	ds	1
  1417  000035                     ___fladd@aexp:
  1418                           	callstack 0
  1419  000035                     xtoa@w:
  1420                           	callstack 0
  1421                           
  1422                           ; 2 bytes @ 0x34
  1423  000035                     	ds	1
  1424  000036                     ___fladd@bexp:
  1425                           	callstack 0
  1426  000036                     dtoa@n:
  1427                           	callstack 0
  1428                           
  1429                           ; 8 bytes @ 0x35
  1430  000036                     	ds	1
  1431  000037                     ___fladd@grs:
  1432                           	callstack 0
  1433  000037                     xtoa@n:
  1434                           	callstack 0
  1435                           
  1436                           ; 8 bytes @ 0x36
  1437  000037                     	ds	1
  1438  000038                     USART_Init@baud_rate:
  1439                           	callstack 0
  1440                           
  1441                           ; 4 bytes @ 0x37
  1442  000038                     	ds	4
  1443  00003C                     USART_Init@temp:
  1444                           	callstack 0
  1445                           
  1446                           ; 4 bytes @ 0x3B
  1447  00003C                     	ds	2
  1448  00003E                     dtoa@i:
  1449                           	callstack 0
  1450                           
  1451                           ; 2 bytes @ 0x3D
  1452  00003E                     	ds	1
  1453  00003F                     xtoa@i:
  1454                           	callstack 0
  1455                           
  1456                           ; 2 bytes @ 0x3E
  1457  00003F                     	ds	2
  1458  000041                     xtoa@c:
  1459                           	callstack 0
  1460                           
  1461                           ; 2 bytes @ 0x40
  1462  000041                     	ds	2
  1463  000043                     ?_vfpfcnvrt:
  1464                           	callstack 0
  1465  000043                     vfpfcnvrt@fp:
  1466                           	callstack 0
  1467                           
  1468                           ; 2 bytes @ 0x42
  1469  000043                     	ds	2
  1470  000045                     vfpfcnvrt@fmt:
  1471                           	callstack 0
  1472                           
  1473                           ; 2 bytes @ 0x44
  1474  000045                     	ds	2
  1475  000047                     vfpfcnvrt@ap:
  1476                           	callstack 0
  1477                           
  1478                           ; 2 bytes @ 0x46
  1479  000047                     	ds	2
  1480  000049                     ??_vfpfcnvrt:
  1481                           
  1482                           ; 1 bytes @ 0x48
  1483  000049                     	ds	4
  1484  00004D                     vfpfcnvrt@ll:
  1485                           	callstack 0
  1486                           
  1487                           ; 8 bytes @ 0x4C
  1488  00004D                     	ds	8
  1489  000055                     vfpfcnvrt@llu:
  1490                           	callstack 0
  1491                           
  1492                           ; 8 bytes @ 0x54
  1493  000055                     	ds	8
  1494  00005D                     vfpfcnvrt@cp:
  1495                           	callstack 0
  1496                           
  1497                           ; 2 bytes @ 0x5C
  1498  00005D                     	ds	2
  1499  00005F                     vfpfcnvrt@c:
  1500                           	callstack 0
  1501                           
  1502                           ; 1 bytes @ 0x5E
  1503  00005F                     	ds	1
  1504  000060                     
  1505                           ; 1 bytes @ 0x5F
  1506 ;;
  1507 ;;Main: autosize = 0, tempsize = 0, incstack = 0, save=0
  1508 ;;
  1509 ;; *************** function _main *****************
  1510 ;; Defined at:
  1511 ;;		line 55 in file "Principal.c"
  1512 ;; Parameters:    Size  Location     Type
  1513 ;;		None
  1514 ;; Auto vars:     Size  Location     Type
  1515 ;;		None
  1516 ;; Return value:  Size  Location     Type
  1517 ;;                  1    wreg      void 
  1518 ;; Registers used:
  1519 ;;		wreg, fsr1l, fsr1h, fsr2l, fsr2h, status,2, status,0, tblptrl, tblptrh, tblptru, prodl, prodh, cstack
  1520 ;; Tracked objects:
  1521 ;;		On entry : 0/0
  1522 ;;		On exit  : 0/0
  1523 ;;		Unchanged: 0/0
  1524 ;; Data sizes:     COMRAM   BANK0   BANK1   BANK2   BANK3   BANK4   BANK5   BANK6   BANK7
  1525 ;;      Params:         0       0       0       0       0       0       0       0       0
  1526 ;;      Locals:         0       0       0       0       0       0       0       0       0
  1527 ;;      Temps:          0       0       0       0       0       0       0       0       0
  1528 ;;      Totals:         0       0       0       0       0       0       0       0       0
  1529 ;;Total ram usage:        0 bytes
  1530 ;; Hardware stack levels required when called: 14
  1531 ;; This function calls:
  1532 ;;		_USART_Init
  1533 ;;		_inicializar_lcd
  1534 ;;		_iniciar_pic
  1535 ;;		_init_leds
  1536 ;;		_mostrar_estadisticas
  1537 ;;		_mostrar_hora
  1538 ;; This function is called by:
  1539 ;;		Startup code after reset
  1540 ;; This function uses a non-reentrant model
  1541 ;;
  1542                           
  1543                           	psect	text0
  1544  00342C                     __ptext0:
  1545                           	callstack 0
  1546  00342C                     _main:
  1547                           	callstack 17
  1548  00342C                     
  1549                           ;Principal.c: 56:     USART_Init(9600);
  1550  00342C  0E80               	movlw	128
  1551  00342E  6E38               	movwf	USART_Init@baud_rate^0,c
  1552  003430  0E25               	movlw	37
  1553  003432  6E39               	movwf	(USART_Init@baud_rate+1)^0,c
  1554  003434  0E00               	movlw	0
  1555  003436  6E3A               	movwf	(USART_Init@baud_rate+2)^0,c
  1556  003438  0E00               	movlw	0
  1557  00343A  6E3B               	movwf	(USART_Init@baud_rate+3)^0,c
  1558  00343C  ECC1  F018         	call	_USART_Init	;wreg free
  1559                           
  1560                           ;Principal.c: 57:     iniciar_pic();
  1561  003440  EC16  F020         	call	_iniciar_pic	;wreg free
  1562                           
  1563                           ;Principal.c: 58:     inicializar_lcd();
  1564  003444  EC00  F01F         	call	_inicializar_lcd	;wreg free
  1565  003448                     
  1566                           ;Principal.c: 59:     init_leds();
  1567  003448  EC92  F020         	call	_init_leds	;wreg free
  1568  00344C                     
  1569                           ;Principal.c: 60:     estado = 1;
  1570  00344C  0E00               	movlw	0
  1571  00344E  0102               	movlb	2	; () banked
  1572  003450  6F37               	movwf	(_estado+1)& (0+255),b
  1573  003452  0E01               	movlw	1
  1574  003454  6F36               	movwf	_estado& (0+255),b
  1575  003456                     l5270:
  1576                           
  1577                           ;Principal.c: 62:         if(PORTAbits.RA4 && estado == 0){
  1578  003456  A880               	btfss	128,4,c	;volatile
  1579  003458  EF30  F01A         	goto	u5601
  1580  00345C  EF32  F01A         	goto	u5600
  1581  003460                     u5601:
  1582  003460  EF3E  F01A         	goto	l5276
  1583  003464                     u5600:
  1584  003464  0102               	movlb	2	; () banked
  1585  003466  5136               	movf	_estado& (0+255),w,b
  1586  003468  1137               	iorwf	(_estado+1)& (0+255),w,b
  1587  00346A  A4D8               	btfss	status,2,c
  1588  00346C  EF3A  F01A         	goto	u5611
  1589  003470  EF3C  F01A         	goto	u5610
  1590  003474                     u5611:
  1591  003474  EF3E  F01A         	goto	l5276
  1592  003478                     u5610:
  1593  003478                     
  1594                           ; BSR set to: 2
  1595                           ;Principal.c: 63:             mostrar_estadisticas();
  1596  003478  EC0A  F01B         	call	_mostrar_estadisticas	;wreg free
  1597  00347C                     l5276:
  1598                           
  1599                           ;Principal.c: 65:         if(PORTAbits.RA4 && estado == 1){
  1600  00347C  A880               	btfss	128,4,c	;volatile
  1601  00347E  EF43  F01A         	goto	u5621
  1602  003482  EF45  F01A         	goto	u5620
  1603  003486                     u5621:
  1604  003486  EF2B  F01A         	goto	l5270
  1605  00348A                     u5620:
  1606  00348A  0102               	movlb	2	; () banked
  1607  00348C  0536               	decf	_estado& (0+255),w,b
  1608  00348E  1137               	iorwf	(_estado+1)& (0+255),w,b
  1609  003490  A4D8               	btfss	status,2,c
  1610  003492  EF4D  F01A         	goto	u5631
  1611  003496  EF4F  F01A         	goto	u5630
  1612  00349A                     u5631:
  1613  00349A  EF2B  F01A         	goto	l5270
  1614  00349E                     u5630:
  1615  00349E                     
  1616                           ; BSR set to: 2
  1617                           ;Principal.c: 66:             mostrar_hora();
  1618  00349E  EC4F  F01C         	call	_mostrar_hora	;wreg free
  1619  0034A2  EF2B  F01A         	goto	l5270
  1620  0034A6  EF00  F000         	goto	start
  1621  0034AA                     __end_of_main:
  1622                           	callstack 0
  1623                           
  1624 ;; *************** function _mostrar_hora *****************
  1625 ;; Defined at:
  1626 ;;		line 90 in file "Principal.c"
  1627 ;; Parameters:    Size  Location     Type
  1628 ;;		None
  1629 ;; Auto vars:     Size  Location     Type
  1630 ;;		None
  1631 ;; Return value:  Size  Location     Type
  1632 ;;                  1    wreg      void 
  1633 ;; Registers used:
  1634 ;;		wreg, fsr1l, fsr1h, fsr2l, fsr2h, status,2, status,0, tblptrl, tblptrh, tblptru, prodl, prodh, cstack
  1635 ;; Tracked objects:
  1636 ;;		On entry : 0/0
  1637 ;;		On exit  : 0/0
  1638 ;;		Unchanged: 0/0
  1639 ;; Data sizes:     COMRAM   BANK0   BANK1   BANK2   BANK3   BANK4   BANK5   BANK6   BANK7
  1640 ;;      Params:         0       0       0       0       0       0       0       0       0
  1641 ;;      Locals:         0       0       0       0       0       0       0       0       0
  1642 ;;      Temps:          0       2       0       0       0       0       0       0       0
  1643 ;;      Totals:         0       2       0       0       0       0       0       0       0
  1644 ;;Total ram usage:        2 bytes
  1645 ;; Hardware stack levels used: 1
  1646 ;; Hardware stack levels required when called: 13
  1647 ;; This function calls:
  1648 ;;		_LCD_Clear
  1649 ;;		_configurarHora
  1650 ;;		_establecer_valores
  1651 ;; This function is called by:
  1652 ;;		_main
  1653 ;; This function uses a non-reentrant model
  1654 ;;
  1655                           
  1656                           	psect	text1
  1657  00389E                     __ptext1:
  1658                           	callstack 0
  1659  00389E                     _mostrar_hora:
  1660                           	callstack 17
  1661  00389E                     
  1662                           ;Principal.c: 91:     LCD_Clear();
  1663  00389E  EC97  F020         	call	_LCD_Clear	;wreg free
  1664  0038A2                     l5250:
  1665                           
  1666                           ;Principal.c: 93:         establecer_valores();
  1667  0038A2  ECC7  F01C         	call	_establecer_valores	;wreg free
  1668  0038A6                     
  1669                           ;Principal.c: 94:         configurarHora();
  1670  0038A6  ECD2  F014         	call	_configurarHora	;wreg free
  1671  0038AA                     
  1672                           ;Principal.c: 95:         if(!PORTAbits.RA4){
  1673  0038AA  B880               	btfsc	128,4,c	;volatile
  1674  0038AC  EF5A  F01C         	goto	u5591
  1675  0038B0  EF5C  F01C         	goto	u5590
  1676  0038B4                     u5591:
  1677  0038B4  EF51  F01C         	goto	l5250
  1678  0038B8                     u5590:
  1679  0038B8                     
  1680                           ;Principal.c: 96:             _delay((unsigned long)((120)*(8000000/4000.0)));
  1681  0038B8  0E02               	movlw	2
  1682  0038BA  0100               	movlb	0	; () banked
  1683  0038BC  6FF0               	movwf	(??_mostrar_hora+1)& (0+255),b
  1684  0038BE  0E38               	movlw	56
  1685  0038C0  6FEF               	movwf	??_mostrar_hora& (0+255),b
  1686  0038C2  0EAD               	movlw	173
  1687  0038C4                     u5677:
  1688  0038C4  2EE8               	decfsz	wreg,f,c
  1689  0038C6  D7FE               	bra	u5677
  1690  0038C8  2FEF               	decfsz	??_mostrar_hora& (0+255),f,b
  1691  0038CA  D7FC               	bra	u5677
  1692  0038CC  2FF0               	decfsz	(??_mostrar_hora+1)& (0+255),f,b
  1693  0038CE  D7FA               	bra	u5677
  1694  0038D0                     
  1695                           ;Principal.c: 97:             estado = 0;
  1696  0038D0  0E00               	movlw	0
  1697  0038D2  0102               	movlb	2	; () banked
  1698  0038D4  6F37               	movwf	(_estado+1)& (0+255),b
  1699  0038D6  0E00               	movlw	0
  1700  0038D8  6F36               	movwf	_estado& (0+255),b
  1701  0038DA                     
  1702                           ; BSR set to: 2
  1703                           ;Principal.c: 98:             _delay((unsigned long)((10)*(8000000/4000.0)));
  1704  0038DA  0E1A               	movlw	26
  1705  0038DC  0100               	movlb	0	; () banked
  1706  0038DE  6FEF               	movwf	??_mostrar_hora& (0+255),b
  1707  0038E0  0EF8               	movlw	248
  1708  0038E2                     u5687:
  1709  0038E2  2EE8               	decfsz	wreg,f,c
  1710  0038E4  D7FE               	bra	u5687
  1711  0038E6  2FEF               	decfsz	??_mostrar_hora& (0+255),f,b
  1712  0038E8  D7FC               	bra	u5687
  1713  0038EA  F000               	nop	
  1714  0038EC  0012               	return		;funcret
  1715  0038EE                     __end_of_mostrar_hora:
  1716                           	callstack 0
  1717                           
  1718 ;; *************** function _configurarHora *****************
  1719 ;; Defined at:
  1720 ;;		line 187 in file "RTC.c"
  1721 ;; Parameters:    Size  Location     Type
  1722 ;;		None
  1723 ;; Auto vars:     Size  Location     Type
  1724 ;;		None
  1725 ;; Return value:  Size  Location     Type
  1726 ;;                  1    wreg      void 
  1727 ;; Registers used:
  1728 ;;		wreg, fsr1l, fsr1h, status,2, status,0, tblptrl, tblptrh, tblptru, prodl, prodh, cstack
  1729 ;; Tracked objects:
  1730 ;;		On entry : 0/0
  1731 ;;		On exit  : 0/0
  1732 ;;		Unchanged: 0/0
  1733 ;; Data sizes:     COMRAM   BANK0   BANK1   BANK2   BANK3   BANK4   BANK5   BANK6   BANK7
  1734 ;;      Params:         0       0       0       0       0       0       0       0       0
  1735 ;;      Locals:         0       0       0       0       0       0       0       0       0
  1736 ;;      Temps:          2       0       0       0       0       0       0       0       0
  1737 ;;      Totals:         2       0       0       0       0       0       0       0       0
  1738 ;;Total ram usage:        2 bytes
  1739 ;; Hardware stack levels used: 1
  1740 ;; Hardware stack levels required when called: 4
  1741 ;; This function calls:
  1742 ;;		_Anti_rebote
  1743 ;;		_Decimal_a_BCD
  1744 ;;		_Establecer_Hora_Fecha
  1745 ;;		_RTC_Calendar_Write
  1746 ;;		_RTC_Clock_Write
  1747 ;;		_RTC_Read_Calendar
  1748 ;;		_RTC_Read_Clock
  1749 ;;		_Reloj_Calendario
  1750 ;; This function is called by:
  1751 ;;		_mostrar_hora
  1752 ;; This function uses a non-reentrant model
  1753 ;;
  1754                           
  1755                           	psect	text2
  1756  0029A4                     __ptext2:
  1757                           	callstack 0
  1758  0029A4                     _configurarHora:
  1759                           	callstack 25
  1760  0029A4                     
  1761                           ;RTC.c: 189:     if (!(PORTAbits.RA2))
  1762  0029A4  B480               	btfsc	128,2,c	;volatile
  1763  0029A6  EFD7  F014         	goto	u4931
  1764  0029AA  EFD9  F014         	goto	u4930
  1765  0029AE                     u4931:
  1766  0029AE  EF53  F015         	goto	l4852
  1767  0029B2                     u4930:
  1768  0029B2                     
  1769                           ;RTC.c: 190:         if (Anti_rebote())
  1770  0029B2  ECFC  F01B         	call	_Anti_rebote	;wreg free
  1771  0029B6  A0D8               	btfss	status,0,c
  1772  0029B8  EFE0  F014         	goto	u4941
  1773  0029BC  EFE2  F014         	goto	u4940
  1774  0029C0                     u4941:
  1775  0029C0  EF53  F015         	goto	l4852
  1776  0029C4                     u4940:
  1777  0029C4                     
  1778                           ;RTC.c: 191:         {;RTC.c: 192:             i = 0;
  1779  0029C4  0E00               	movlw	0
  1780  0029C6  0100               	movlb	0	; () banked
  1781  0029C8  6FF9               	movwf	_i& (0+255),b
  1782  0029CA                     
  1783                           ; BSR set to: 0
  1784                           ;RTC.c: 193:             hours = Establecer_Hora_Fecha(1, 6, hours);
  1785  0029CA  0E06               	movlw	6
  1786  0029CC  6E09               	movwf	Establecer_Hora_Fecha@y^0,c
  1787  0029CE  C0FF  F00A         	movff	_hours,Establecer_Hora_Fecha@parametro
  1788  0029D2  0E01               	movlw	1
  1789  0029D4  EC0A  F010         	call	_Establecer_Hora_Fecha
  1790  0029D8  0100               	movlb	0	; () banked
  1791  0029DA  6FFF               	movwf	_hours& (0+255),b
  1792  0029DC                     
  1793                           ; BSR set to: 0
  1794                           ;RTC.c: 194:             minutes = Establecer_Hora_Fecha(1, 9, minutes);
  1795  0029DC  0E09               	movlw	9
  1796  0029DE  6E09               	movwf	Establecer_Hora_Fecha@y^0,c
  1797  0029E0  C0FE  F00A         	movff	_minutes,Establecer_Hora_Fecha@parametro
  1798  0029E4  0E01               	movlw	1
  1799  0029E6  EC0A  F010         	call	_Establecer_Hora_Fecha
  1800  0029EA  0100               	movlb	0	; () banked
  1801  0029EC  6FFE               	movwf	_minutes& (0+255),b
  1802  0029EE                     
  1803                           ; BSR set to: 0
  1804                           ;RTC.c: 195:             day = Establecer_Hora_Fecha(2, 6, day);
  1805  0029EE  0E06               	movlw	6
  1806  0029F0  6E09               	movwf	Establecer_Hora_Fecha@y^0,c
  1807  0029F2  C0FA  F00A         	movff	_day,Establecer_Hora_Fecha@parametro
  1808  0029F6  0E02               	movlw	2
  1809  0029F8  EC0A  F010         	call	_Establecer_Hora_Fecha
  1810  0029FC  0100               	movlb	0	; () banked
  1811  0029FE  6FFA               	movwf	_day& (0+255),b
  1812  002A00                     
  1813                           ; BSR set to: 0
  1814                           ;RTC.c: 196:             month = Establecer_Hora_Fecha(2, 9, month);
  1815  002A00  0E09               	movlw	9
  1816  002A02  6E09               	movwf	Establecer_Hora_Fecha@y^0,c
  1817  002A04  C0FB  F00A         	movff	_month,Establecer_Hora_Fecha@parametro
  1818  002A08  0E02               	movlw	2
  1819  002A0A  EC0A  F010         	call	_Establecer_Hora_Fecha
  1820  002A0E  0100               	movlb	0	; () banked
  1821  002A10  6FFB               	movwf	_month& (0+255),b
  1822  002A12                     
  1823                           ; BSR set to: 0
  1824                           ;RTC.c: 197:             year = Establecer_Hora_Fecha(2,14, year);
  1825  002A12  0E0E               	movlw	14
  1826  002A14  6E09               	movwf	Establecer_Hora_Fecha@y^0,c
  1827  002A16  C0FC  F00A         	movff	_year,Establecer_Hora_Fecha@parametro
  1828  002A1A  0E02               	movlw	2
  1829  002A1C  EC0A  F010         	call	_Establecer_Hora_Fecha
  1830  002A20  0100               	movlb	0	; () banked
  1831  002A22  6FFC               	movwf	_year& (0+255),b
  1832  002A24                     l4842:
  1833  002A24  ECFC  F01B         	call	_Anti_rebote	;wreg free
  1834  002A28  B0D8               	btfsc	status,0,c
  1835  002A2A  EF19  F015         	goto	u4951
  1836  002A2E  EF1B  F015         	goto	u4950
  1837  002A32                     u4951:
  1838  002A32  EF12  F015         	goto	l4842
  1839  002A36                     u4950:
  1840  002A36                     
  1841                           ;RTC.c: 199:             minutes = Decimal_a_BCD(minutes);
  1842  002A36  0100               	movlb	0	; () banked
  1843  002A38  51FE               	movf	_minutes& (0+255),w,b
  1844  002A3A  EC5C  F01E         	call	_Decimal_a_BCD
  1845  002A3E  0100               	movlb	0	; () banked
  1846  002A40  6FFE               	movwf	_minutes& (0+255),b
  1847                           
  1848                           ;RTC.c: 200:             hours = Decimal_a_BCD(hours);
  1849  002A42  51FF               	movf	_hours& (0+255),w,b
  1850  002A44  EC5C  F01E         	call	_Decimal_a_BCD
  1851  002A48  0100               	movlb	0	; () banked
  1852  002A4A  6FFF               	movwf	_hours& (0+255),b
  1853                           
  1854                           ;RTC.c: 201:             day = Decimal_a_BCD(day);
  1855  002A4C  51FA               	movf	_day& (0+255),w,b
  1856  002A4E  EC5C  F01E         	call	_Decimal_a_BCD
  1857  002A52  0100               	movlb	0	; () banked
  1858  002A54  6FFA               	movwf	_day& (0+255),b
  1859                           
  1860                           ;RTC.c: 202:             month = Decimal_a_BCD(month);
  1861  002A56  51FB               	movf	_month& (0+255),w,b
  1862  002A58  EC5C  F01E         	call	_Decimal_a_BCD
  1863  002A5C  0100               	movlb	0	; () banked
  1864  002A5E  6FFB               	movwf	_month& (0+255),b
  1865                           
  1866                           ;RTC.c: 203:             year = Decimal_a_BCD(year);
  1867  002A60  51FC               	movf	_year& (0+255),w,b
  1868  002A62  EC5C  F01E         	call	_Decimal_a_BCD
  1869  002A66  0100               	movlb	0	; () banked
  1870  002A68  6FFC               	movwf	_year& (0+255),b
  1871  002A6A                     
  1872                           ; BSR set to: 0
  1873                           ;RTC.c: 205:             RTC_Clock_Write(0x00, minutes, hours, 0x05);
  1874  002A6A  C0FE  F003         	movff	_minutes,RTC_Clock_Write@min
  1875  002A6E  C0FF  F004         	movff	_hours,RTC_Clock_Write@hour
  1876  002A72  0E05               	movlw	5
  1877  002A74  6E05               	movwf	RTC_Clock_Write@AM_PM^0,c
  1878  002A76  0E00               	movlw	0
  1879  002A78  EC77  F01F         	call	_RTC_Clock_Write
  1880  002A7C                     
  1881                           ;RTC.c: 206:             RTC_Calendar_Write(0x01, day, month, year);
  1882  002A7C  C0FA  F003         	movff	_day,RTC_Calendar_Write@date
  1883  002A80  C0FB  F004         	movff	_month,RTC_Calendar_Write@month
  1884  002A84  C0FC  F005         	movff	_year,RTC_Calendar_Write@year
  1885  002A88  0E01               	movlw	1
  1886  002A8A  EC8D  F01F         	call	_RTC_Calendar_Write
  1887  002A8E                     
  1888                           ;RTC.c: 207:             _delay((unsigned long)((200)*(8000000/4000.0)));
  1889  002A8E  0E03               	movlw	3
  1890  002A90  6E0F               	movwf	(??_configurarHora+1)^0,c
  1891  002A92  0E08               	movlw	8
  1892  002A94  6E0E               	movwf	??_configurarHora^0,c
  1893  002A96  0E77               	movlw	119
  1894  002A98                     u5697:
  1895  002A98  2EE8               	decfsz	wreg,f,c
  1896  002A9A  D7FE               	bra	u5697
  1897  002A9C  2E0E               	decfsz	??_configurarHora^0,f,c
  1898  002A9E  D7FC               	bra	u5697
  1899  002AA0  2E0F               	decfsz	(??_configurarHora+1)^0,f,c
  1900  002AA2  D7FA               	bra	u5697
  1901  002AA4  F000               	nop	
  1902  002AA6                     l4852:
  1903                           
  1904                           ;RTC.c: 210:     RTC_Read_Clock(0);
  1905  002AA6  0E00               	movlw	0
  1906  002AA8  ECEE  F01C         	call	_RTC_Read_Clock
  1907  002AAC                     
  1908                           ;RTC.c: 211:     RTC_Read_Calendar(3);
  1909  002AAC  0E03               	movlw	3
  1910  002AAE  ECCF  F01B         	call	_RTC_Read_Calendar
  1911  002AB2                     
  1912                           ;RTC.c: 213:     Reloj_Calendario();
  1913  002AB2  ECC7  F011         	call	_Reloj_Calendario	;wreg free
  1914  002AB6                     
  1915                           ;RTC.c: 214:     _delay((unsigned long)((50)*(8000000/4000.0)));
  1916  002AB6  0E82               	movlw	130
  1917  002AB8  6E0E               	movwf	??_configurarHora^0,c
  1918  002ABA  0EDE               	movlw	222
  1919  002ABC                     u5707:
  1920  002ABC  2EE8               	decfsz	wreg,f,c
  1921  002ABE  D7FE               	bra	u5707
  1922  002AC0  2E0E               	decfsz	??_configurarHora^0,f,c
  1923  002AC2  D7FC               	bra	u5707
  1924  002AC4  0012               	return		;funcret
  1925  002AC6                     __end_of_configurarHora:
  1926                           	callstack 0
  1927                           
  1928 ;; *************** function _Reloj_Calendario *****************
  1929 ;; Defined at:
  1930 ;;		line 217 in file "RTC.c"
  1931 ;; Parameters:    Size  Location     Type
  1932 ;;		None
  1933 ;; Auto vars:     Size  Location     Type
  1934 ;;		None
  1935 ;; Return value:  Size  Location     Type
  1936 ;;                  1    wreg      void 
  1937 ;; Registers used:
  1938 ;;		wreg, fsr1l, fsr1h, status,2, status,0, tblptrl, tblptrh, tblptru, prodl, prodh, cstack
  1939 ;; Tracked objects:
  1940 ;;		On entry : 0/0
  1941 ;;		On exit  : 0/0
  1942 ;;		Unchanged: 0/0
  1943 ;; Data sizes:     COMRAM   BANK0   BANK1   BANK2   BANK3   BANK4   BANK5   BANK6   BANK7
  1944 ;;      Params:         0       0       0       0       0       0       0       0       0
  1945 ;;      Locals:         0       0       0       0       0       0       0       0       0
  1946 ;;      Temps:          0       0       0       0       0       0       0       0       0
  1947 ;;      Totals:         0       0       0       0       0       0       0       0       0
  1948 ;;Total ram usage:        0 bytes
  1949 ;; Hardware stack levels used: 1
  1950 ;; Hardware stack levels required when called: 3
  1951 ;; This function calls:
  1952 ;;		_BCD_a_Decimal
  1953 ;;		_LCD_String_xy
  1954 ;;		___awdiv
  1955 ;;		___awmod
  1956 ;; This function is called by:
  1957 ;;		_configurarHora
  1958 ;; This function uses a non-reentrant model
  1959 ;;
  1960                           
  1961                           	psect	text3
  1962  00238E                     __ptext3:
  1963                           	callstack 0
  1964  00238E                     _Reloj_Calendario:
  1965                           	callstack 25
  1966  00238E                     
  1967                           ;RTC.c: 219:     static char Time[] = "TIME: 00:00:00";;RTC.c: 220:     static char Date
      +                          _var[] = "DATE: 00/00/2000";;RTC.c: 222:     seconds = BCD_a_Decimal(sec);
  1968  00238E  0101               	movlb	1	; () banked
  1969  002390  51F4               	movf	_sec& (0+255),w,b
  1970  002392  EC32  F020         	call	_BCD_a_Decimal
  1971  002396  0100               	movlb	0	; () banked
  1972  002398  6FFD               	movwf	_seconds& (0+255),b
  1973                           
  1974                           ;RTC.c: 223:     minutes = BCD_a_Decimal(min);
  1975  00239A  0101               	movlb	1	; () banked
  1976  00239C  51F2               	movf	_min& (0+255),w,b
  1977  00239E  EC32  F020         	call	_BCD_a_Decimal
  1978  0023A2  0100               	movlb	0	; () banked
  1979  0023A4  6FFE               	movwf	_minutes& (0+255),b
  1980                           
  1981                           ;RTC.c: 224:     hours = BCD_a_Decimal(hour);
  1982  0023A6  51F5               	movf	_hour& (0+255),w,b
  1983  0023A8  EC32  F020         	call	_BCD_a_Decimal
  1984  0023AC  0100               	movlb	0	; () banked
  1985  0023AE  6FFF               	movwf	_hours& (0+255),b
  1986                           
  1987                           ;RTC.c: 225:     day = BCD_a_Decimal(Date);
  1988  0023B0  0101               	movlb	1	; () banked
  1989  0023B2  51EE               	movf	_Date& (0+255),w,b
  1990  0023B4  EC32  F020         	call	_BCD_a_Decimal
  1991  0023B8  0100               	movlb	0	; () banked
  1992  0023BA  6FFA               	movwf	_day& (0+255),b
  1993                           
  1994                           ;RTC.c: 226:     month = BCD_a_Decimal(Month);
  1995  0023BC  0101               	movlb	1	; () banked
  1996  0023BE  51EC               	movf	_Month& (0+255),w,b
  1997  0023C0  EC32  F020         	call	_BCD_a_Decimal
  1998  0023C4  0100               	movlb	0	; () banked
  1999  0023C6  6FFB               	movwf	_month& (0+255),b
  2000                           
  2001                           ;RTC.c: 227:     year = BCD_a_Decimal(Year);
  2002  0023C8  0101               	movlb	1	; () banked
  2003  0023CA  51EA               	movf	_Year& (0+255),w,b
  2004  0023CC  EC32  F020         	call	_BCD_a_Decimal
  2005  0023D0  0100               	movlb	0	; () banked
  2006  0023D2  6FFC               	movwf	_year& (0+255),b
  2007  0023D4                     
  2008                           ; BSR set to: 0
  2009                           ;RTC.c: 229:     Time[6] = hours / 10 + '0';
  2010  0023D4  C0FF  F001         	movff	_hours,___awdiv@dividend
  2011  0023D8  6A02               	clrf	(___awdiv@dividend+1)^0,c
  2012  0023DA  0E00               	movlw	0
  2013  0023DC  6E04               	movwf	(___awdiv@divisor+1)^0,c
  2014  0023DE  0E0A               	movlw	10
  2015  0023E0  6E03               	movwf	___awdiv@divisor^0,c
  2016  0023E2  EC07  F018         	call	___awdiv	;wreg free
  2017  0023E6  5001               	movf	?___awdiv^0,w,c
  2018  0023E8  0F30               	addlw	48
  2019  0023EA  0101               	movlb	1	; () banked
  2020  0023EC  6FDD               	movwf	(Reloj_Calendario@Time+6)& (0+255),b
  2021  0023EE                     
  2022                           ; BSR set to: 1
  2023                           ;RTC.c: 230:     Time[7] = hours % 10 + '0';
  2024  0023EE  C0FF  F001         	movff	_hours,___awmod@dividend
  2025  0023F2  6A02               	clrf	(___awmod@dividend+1)^0,c
  2026  0023F4  0E00               	movlw	0
  2027  0023F6  6E04               	movwf	(___awmod@divisor+1)^0,c
  2028  0023F8  0E0A               	movlw	10
  2029  0023FA  6E03               	movwf	___awmod@divisor^0,c
  2030  0023FC  EC69  F018         	call	___awmod	;wreg free
  2031  002400  5001               	movf	?___awmod^0,w,c
  2032  002402  0F30               	addlw	48
  2033  002404  0101               	movlb	1	; () banked
  2034  002406  6FDE               	movwf	(Reloj_Calendario@Time+7)& (0+255),b
  2035  002408                     
  2036                           ; BSR set to: 1
  2037                           ;RTC.c: 231:     Time[9] = minutes / 10 + '0';
  2038  002408  C0FE  F001         	movff	_minutes,___awdiv@dividend
  2039  00240C  6A02               	clrf	(___awdiv@dividend+1)^0,c
  2040  00240E  0E00               	movlw	0
  2041  002410  6E04               	movwf	(___awdiv@divisor+1)^0,c
  2042  002412  0E0A               	movlw	10
  2043  002414  6E03               	movwf	___awdiv@divisor^0,c
  2044  002416  EC07  F018         	call	___awdiv	;wreg free
  2045  00241A  5001               	movf	?___awdiv^0,w,c
  2046  00241C  0F30               	addlw	48
  2047  00241E  0101               	movlb	1	; () banked
  2048  002420  6FE0               	movwf	(Reloj_Calendario@Time+9)& (0+255),b
  2049  002422                     
  2050                           ; BSR set to: 1
  2051                           ;RTC.c: 232:     Time[10] = minutes % 10 + '0';
  2052  002422  C0FE  F001         	movff	_minutes,___awmod@dividend
  2053  002426  6A02               	clrf	(___awmod@dividend+1)^0,c
  2054  002428  0E00               	movlw	0
  2055  00242A  6E04               	movwf	(___awmod@divisor+1)^0,c
  2056  00242C  0E0A               	movlw	10
  2057  00242E  6E03               	movwf	___awmod@divisor^0,c
  2058  002430  EC69  F018         	call	___awmod	;wreg free
  2059  002434  5001               	movf	?___awmod^0,w,c
  2060  002436  0F30               	addlw	48
  2061  002438  0101               	movlb	1	; () banked
  2062  00243A  6FE1               	movwf	(Reloj_Calendario@Time+10)& (0+255),b
  2063  00243C                     
  2064                           ; BSR set to: 1
  2065                           ;RTC.c: 233:     Time[12] = seconds / 10 + '0';
  2066  00243C  C0FD  F001         	movff	_seconds,___awdiv@dividend
  2067  002440  6A02               	clrf	(___awdiv@dividend+1)^0,c
  2068  002442  0E00               	movlw	0
  2069  002444  6E04               	movwf	(___awdiv@divisor+1)^0,c
  2070  002446  0E0A               	movlw	10
  2071  002448  6E03               	movwf	___awdiv@divisor^0,c
  2072  00244A  EC07  F018         	call	___awdiv	;wreg free
  2073  00244E  5001               	movf	?___awdiv^0,w,c
  2074  002450  0F30               	addlw	48
  2075  002452  0101               	movlb	1	; () banked
  2076  002454  6FE3               	movwf	(Reloj_Calendario@Time+12)& (0+255),b
  2077  002456                     
  2078                           ; BSR set to: 1
  2079                           ;RTC.c: 234:     Time[13] = seconds % 10 + '0';
  2080  002456  C0FD  F001         	movff	_seconds,___awmod@dividend
  2081  00245A  6A02               	clrf	(___awmod@dividend+1)^0,c
  2082  00245C  0E00               	movlw	0
  2083  00245E  6E04               	movwf	(___awmod@divisor+1)^0,c
  2084  002460  0E0A               	movlw	10
  2085  002462  6E03               	movwf	___awmod@divisor^0,c
  2086  002464  EC69  F018         	call	___awmod	;wreg free
  2087  002468  5001               	movf	?___awmod^0,w,c
  2088  00246A  0F30               	addlw	48
  2089  00246C  0101               	movlb	1	; () banked
  2090  00246E  6FE4               	movwf	(Reloj_Calendario@Time+13)& (0+255),b
  2091  002470                     
  2092                           ; BSR set to: 1
  2093                           ;RTC.c: 236:     Date_var[6] = day / 10 + '0';
  2094  002470  C0FA  F001         	movff	_day,___awdiv@dividend
  2095  002474  6A02               	clrf	(___awdiv@dividend+1)^0,c
  2096  002476  0E00               	movlw	0
  2097  002478  6E04               	movwf	(___awdiv@divisor+1)^0,c
  2098  00247A  0E0A               	movlw	10
  2099  00247C  6E03               	movwf	___awdiv@divisor^0,c
  2100  00247E  EC07  F018         	call	___awdiv	;wreg free
  2101  002482  5001               	movf	?___awdiv^0,w,c
  2102  002484  0F30               	addlw	48
  2103  002486  0102               	movlb	2	; () banked
  2104  002488  6FD8               	movwf	(Reloj_Calendario@Date_var+6)& (0+255),b
  2105  00248A                     
  2106                           ; BSR set to: 2
  2107                           ;RTC.c: 237:     Date_var[7] = day % 10 + '0';
  2108  00248A  C0FA  F001         	movff	_day,___awmod@dividend
  2109  00248E  6A02               	clrf	(___awmod@dividend+1)^0,c
  2110  002490  0E00               	movlw	0
  2111  002492  6E04               	movwf	(___awmod@divisor+1)^0,c
  2112  002494  0E0A               	movlw	10
  2113  002496  6E03               	movwf	___awmod@divisor^0,c
  2114  002498  EC69  F018         	call	___awmod	;wreg free
  2115  00249C  5001               	movf	?___awmod^0,w,c
  2116  00249E  0F30               	addlw	48
  2117  0024A0  0102               	movlb	2	; () banked
  2118  0024A2  6FD9               	movwf	(Reloj_Calendario@Date_var+7)& (0+255),b
  2119  0024A4                     
  2120                           ; BSR set to: 2
  2121                           ;RTC.c: 238:     Date_var[9] = month / 10 + '0';
  2122  0024A4  C0FB  F001         	movff	_month,___awdiv@dividend
  2123  0024A8  6A02               	clrf	(___awdiv@dividend+1)^0,c
  2124  0024AA  0E00               	movlw	0
  2125  0024AC  6E04               	movwf	(___awdiv@divisor+1)^0,c
  2126  0024AE  0E0A               	movlw	10
  2127  0024B0  6E03               	movwf	___awdiv@divisor^0,c
  2128  0024B2  EC07  F018         	call	___awdiv	;wreg free
  2129  0024B6  5001               	movf	?___awdiv^0,w,c
  2130  0024B8  0F30               	addlw	48
  2131  0024BA  0102               	movlb	2	; () banked
  2132  0024BC  6FDB               	movwf	(Reloj_Calendario@Date_var+9)& (0+255),b
  2133  0024BE                     
  2134                           ; BSR set to: 2
  2135                           ;RTC.c: 239:     Date_var[10] = month % 10 + '0';
  2136  0024BE  C0FB  F001         	movff	_month,___awmod@dividend
  2137  0024C2  6A02               	clrf	(___awmod@dividend+1)^0,c
  2138  0024C4  0E00               	movlw	0
  2139  0024C6  6E04               	movwf	(___awmod@divisor+1)^0,c
  2140  0024C8  0E0A               	movlw	10
  2141  0024CA  6E03               	movwf	___awmod@divisor^0,c
  2142  0024CC  EC69  F018         	call	___awmod	;wreg free
  2143  0024D0  5001               	movf	?___awmod^0,w,c
  2144  0024D2  0F30               	addlw	48
  2145  0024D4  0102               	movlb	2	; () banked
  2146  0024D6  6FDC               	movwf	(Reloj_Calendario@Date_var+10)& (0+255),b
  2147  0024D8                     
  2148                           ; BSR set to: 2
  2149                           ;RTC.c: 240:     Date_var[14] = year / 10 + '0';
  2150  0024D8  C0FC  F001         	movff	_year,___awdiv@dividend
  2151  0024DC  6A02               	clrf	(___awdiv@dividend+1)^0,c
  2152  0024DE  0E00               	movlw	0
  2153  0024E0  6E04               	movwf	(___awdiv@divisor+1)^0,c
  2154  0024E2  0E0A               	movlw	10
  2155  0024E4  6E03               	movwf	___awdiv@divisor^0,c
  2156  0024E6  EC07  F018         	call	___awdiv	;wreg free
  2157  0024EA  5001               	movf	?___awdiv^0,w,c
  2158  0024EC  0F30               	addlw	48
  2159  0024EE  0102               	movlb	2	; () banked
  2160  0024F0  6FE0               	movwf	(Reloj_Calendario@Date_var+14)& (0+255),b
  2161  0024F2                     
  2162                           ; BSR set to: 2
  2163                           ;RTC.c: 241:     Date_var[15] = year % 10 + '0';
  2164  0024F2  C0FC  F001         	movff	_year,___awmod@dividend
  2165  0024F6  6A02               	clrf	(___awmod@dividend+1)^0,c
  2166  0024F8  0E00               	movlw	0
  2167  0024FA  6E04               	movwf	(___awmod@divisor+1)^0,c
  2168  0024FC  0E0A               	movlw	10
  2169  0024FE  6E03               	movwf	___awmod@divisor^0,c
  2170  002500  EC69  F018         	call	___awmod	;wreg free
  2171  002504  5001               	movf	?___awmod^0,w,c
  2172  002506  0F30               	addlw	48
  2173  002508  0102               	movlb	2	; () banked
  2174  00250A  6FE1               	movwf	(Reloj_Calendario@Date_var+15)& (0+255),b
  2175  00250C                     
  2176                           ; BSR set to: 2
  2177                           ;RTC.c: 243:     LCD_String_xy(1, 0, Time);
  2178  00250C  0E00               	movlw	0
  2179  00250E  6E05               	movwf	LCD_String_xy@pos^0,c
  2180  002510  0ED7               	movlw	low Reloj_Calendario@Time
  2181  002512  6E06               	movwf	LCD_String_xy@msg^0,c
  2182  002514  0E01               	movlw	high Reloj_Calendario@Time
  2183  002516  6E07               	movwf	(LCD_String_xy@msg+1)^0,c
  2184  002518  0E01               	movlw	1
  2185  00251A  ECC2  F01D         	call	_LCD_String_xy
  2186  00251E                     
  2187                           ;RTC.c: 245:     LCD_String_xy(2, 0, Date_var);
  2188  00251E  0E00               	movlw	0
  2189  002520  6E05               	movwf	LCD_String_xy@pos^0,c
  2190  002522  0ED2               	movlw	low Reloj_Calendario@Date_var
  2191  002524  6E06               	movwf	LCD_String_xy@msg^0,c
  2192  002526  0E02               	movlw	high Reloj_Calendario@Date_var
  2193  002528  6E07               	movwf	(LCD_String_xy@msg+1)^0,c
  2194  00252A  0E02               	movlw	2
  2195  00252C  ECC2  F01D         	call	_LCD_String_xy
  2196  002530  0012               	return		;funcret
  2197  002532                     __end_of_Reloj_Calendario:
  2198                           	callstack 0
  2199                           
  2200 ;; *************** function _BCD_a_Decimal *****************
  2201 ;; Defined at:
  2202 ;;		line 81 in file "RTC.c"
  2203 ;; Parameters:    Size  Location     Type
  2204 ;;  numero          1    wreg     unsigned char 
  2205 ;; Auto vars:     Size  Location     Type
  2206 ;;  numero          1    1[COMRAM] unsigned char 
  2207 ;; Return value:  Size  Location     Type
  2208 ;;                  1    wreg      unsigned char 
  2209 ;; Registers used:
  2210 ;;		wreg, status,2, status,0, prodl, prodh
  2211 ;; Tracked objects:
  2212 ;;		On entry : 0/0
  2213 ;;		On exit  : 0/0
  2214 ;;		Unchanged: 0/0
  2215 ;; Data sizes:     COMRAM   BANK0   BANK1   BANK2   BANK3   BANK4   BANK5   BANK6   BANK7
  2216 ;;      Params:         0       0       0       0       0       0       0       0       0
  2217 ;;      Locals:         1       0       0       0       0       0       0       0       0
  2218 ;;      Temps:          1       0       0       0       0       0       0       0       0
  2219 ;;      Totals:         2       0       0       0       0       0       0       0       0
  2220 ;;Total ram usage:        2 bytes
  2221 ;; Hardware stack levels used: 1
  2222 ;; This function calls:
  2223 ;;		Nothing
  2224 ;; This function is called by:
  2225 ;;		_Reloj_Calendario
  2226 ;; This function uses a non-reentrant model
  2227 ;;
  2228                           
  2229                           	psect	text4
  2230  004064                     __ptext4:
  2231                           	callstack 0
  2232  004064                     _BCD_a_Decimal:
  2233                           	callstack 27
  2234                           
  2235                           ;incstack = 0
  2236                           ;BCD_a_Decimal@numero stored from wreg
  2237  004064  6E02               	movwf	BCD_a_Decimal@numero^0,c
  2238  004066                     
  2239                           ;RTC.c: 81: uint8_t BCD_a_Decimal(uint8_t numero);RTC.c: 82: {;RTC.c: 83:     return ((n
      +                          umero >> 4) * 10 + (numero & 0x0F));
  2240  004066  C002  F001         	movff	BCD_a_Decimal@numero,??_BCD_a_Decimal
  2241  00406A  0E0F               	movlw	15
  2242  00406C  1601               	andwf	??_BCD_a_Decimal^0,f,c
  2243  00406E  3802               	swapf	BCD_a_Decimal@numero^0,w,c
  2244  004070  0B0F               	andlw	15
  2245  004072  0D0A               	mullw	10
  2246  004074  50F3               	movf	243,w,c
  2247  004076  2401               	addwf	??_BCD_a_Decimal^0,w,c
  2248  004078  0012               	return		;funcret
  2249  00407A                     __end_of_BCD_a_Decimal:
  2250                           	callstack 0
  2251                           
  2252 ;; *************** function _RTC_Clock_Write *****************
  2253 ;; Defined at:
  2254 ;;		line 8 in file "RTC.c"
  2255 ;; Parameters:    Size  Location     Type
  2256 ;;  sec             1    wreg     unsigned char 
  2257 ;;  min             1    2[COMRAM] unsigned char 
  2258 ;;  hour            1    3[COMRAM] unsigned char 
  2259 ;;  AM_PM           1    4[COMRAM] unsigned char 
  2260 ;; Auto vars:     Size  Location     Type
  2261 ;;  sec             1    5[COMRAM] unsigned char 
  2262 ;; Return value:  Size  Location     Type
  2263 ;;                  1    wreg      void 
  2264 ;; Registers used:
  2265 ;;		wreg, status,2, status,0, cstack
  2266 ;; Tracked objects:
  2267 ;;		On entry : 0/0
  2268 ;;		On exit  : 0/0
  2269 ;;		Unchanged: 0/0
  2270 ;; Data sizes:     COMRAM   BANK0   BANK1   BANK2   BANK3   BANK4   BANK5   BANK6   BANK7
  2271 ;;      Params:         3       0       0       0       0       0       0       0       0
  2272 ;;      Locals:         1       0       0       0       0       0       0       0       0
  2273 ;;      Temps:          0       0       0       0       0       0       0       0       0
  2274 ;;      Totals:         4       0       0       0       0       0       0       0       0
  2275 ;;Total ram usage:        4 bytes
  2276 ;; Hardware stack levels used: 1
  2277 ;; Hardware stack levels required when called: 3
  2278 ;; This function calls:
  2279 ;;		_I2C_Start
  2280 ;;		_I2C_Stop
  2281 ;;		_I2C_Write
  2282 ;; This function is called by:
  2283 ;;		_configurarHora
  2284 ;; This function uses a non-reentrant model
  2285 ;;
  2286                           
  2287                           	psect	text5
  2288  003EEE                     __ptext5:
  2289                           	callstack 0
  2290  003EEE                     _RTC_Clock_Write:
  2291                           	callstack 25
  2292                           
  2293                           ;incstack = 0
  2294                           ;RTC_Clock_Write@sec stored from wreg
  2295  003EEE  6E06               	movwf	RTC_Clock_Write@sec^0,c
  2296  003EF0                     
  2297                           ;RTC.c: 8: void RTC_Clock_Write(char sec, char min, char hour, char AM_PM);RTC.c: 9:    
      +                                                {;RTC.c: 10:     hour = (hour | AM_PM);
  2298  003EF0  5004               	movf	RTC_Clock_Write@hour^0,w,c
  2299  003EF2  1005               	iorwf	RTC_Clock_Write@AM_PM^0,w,c
  2300  003EF4  6E04               	movwf	RTC_Clock_Write@hour^0,c
  2301  003EF6                     
  2302                           ;RTC.c: 11:     I2C_Start(0xD0);
  2303  003EF6  0ED0               	movlw	208
  2304  003EF8  EC49  F01F         	call	_I2C_Start
  2305  003EFC                     
  2306                           ;RTC.c: 12:     I2C_Write(0);
  2307  003EFC  0E00               	movlw	0
  2308  003EFE  ECF6  F01F         	call	_I2C_Write
  2309  003F02                     
  2310                           ;RTC.c: 13:     I2C_Write(sec);
  2311  003F02  5006               	movf	RTC_Clock_Write@sec^0,w,c
  2312  003F04  ECF6  F01F         	call	_I2C_Write
  2313  003F08                     
  2314                           ;RTC.c: 14:     I2C_Write(min);
  2315  003F08  5003               	movf	RTC_Clock_Write@min^0,w,c
  2316  003F0A  ECF6  F01F         	call	_I2C_Write
  2317  003F0E                     
  2318                           ;RTC.c: 15:     I2C_Write(hour);
  2319  003F0E  5004               	movf	RTC_Clock_Write@hour^0,w,c
  2320  003F10  ECF6  F01F         	call	_I2C_Write
  2321  003F14                     
  2322                           ;RTC.c: 16:     I2C_Stop();
  2323  003F14  EC53  F020         	call	_I2C_Stop	;wreg free
  2324  003F18  0012               	return		;funcret
  2325  003F1A                     __end_of_RTC_Clock_Write:
  2326                           	callstack 0
  2327                           
  2328 ;; *************** function _RTC_Calendar_Write *****************
  2329 ;; Defined at:
  2330 ;;		line 19 in file "RTC.c"
  2331 ;; Parameters:    Size  Location     Type
  2332 ;;  day             1    wreg     unsigned char 
  2333 ;;  date            1    2[COMRAM] unsigned char 
  2334 ;;  month           1    3[COMRAM] unsigned char 
  2335 ;;  year            1    4[COMRAM] unsigned char 
  2336 ;; Auto vars:     Size  Location     Type
  2337 ;;  day             1    5[COMRAM] unsigned char 
  2338 ;; Return value:  Size  Location     Type
  2339 ;;                  1    wreg      void 
  2340 ;; Registers used:
  2341 ;;		wreg, status,2, cstack
  2342 ;; Tracked objects:
  2343 ;;		On entry : 0/0
  2344 ;;		On exit  : 0/0
  2345 ;;		Unchanged: 0/0
  2346 ;; Data sizes:     COMRAM   BANK0   BANK1   BANK2   BANK3   BANK4   BANK5   BANK6   BANK7
  2347 ;;      Params:         3       0       0       0       0       0       0       0       0
  2348 ;;      Locals:         1       0       0       0       0       0       0       0       0
  2349 ;;      Temps:          0       0       0       0       0       0       0       0       0
  2350 ;;      Totals:         4       0       0       0       0       0       0       0       0
  2351 ;;Total ram usage:        4 bytes
  2352 ;; Hardware stack levels used: 1
  2353 ;; Hardware stack levels required when called: 3
  2354 ;; This function calls:
  2355 ;;		_I2C_Start
  2356 ;;		_I2C_Stop
  2357 ;;		_I2C_Write
  2358 ;; This function is called by:
  2359 ;;		_configurarHora
  2360 ;; This function uses a non-reentrant model
  2361 ;;
  2362                           
  2363                           	psect	text6
  2364  003F1A                     __ptext6:
  2365                           	callstack 0
  2366  003F1A                     _RTC_Calendar_Write:
  2367                           	callstack 25
  2368                           
  2369                           ;incstack = 0
  2370                           ;RTC_Calendar_Write@day stored from wreg
  2371  003F1A  6E06               	movwf	RTC_Calendar_Write@day^0,c
  2372  003F1C                     
  2373                           ;RTC.c: 20:     I2C_Start(0xD0);
  2374  003F1C  0ED0               	movlw	208
  2375  003F1E  EC49  F01F         	call	_I2C_Start
  2376  003F22                     
  2377                           ;RTC.c: 21:     I2C_Write(3);
  2378  003F22  0E03               	movlw	3
  2379  003F24  ECF6  F01F         	call	_I2C_Write
  2380  003F28                     
  2381                           ;RTC.c: 22:     I2C_Write(day);
  2382  003F28  5006               	movf	RTC_Calendar_Write@day^0,w,c
  2383  003F2A  ECF6  F01F         	call	_I2C_Write
  2384  003F2E                     
  2385                           ;RTC.c: 23:     I2C_Write(date);
  2386  003F2E  5003               	movf	RTC_Calendar_Write@date^0,w,c
  2387  003F30  ECF6  F01F         	call	_I2C_Write
  2388  003F34                     
  2389                           ;RTC.c: 24:     I2C_Write(month);
  2390  003F34  5004               	movf	RTC_Calendar_Write@month^0,w,c
  2391  003F36  ECF6  F01F         	call	_I2C_Write
  2392  003F3A                     
  2393                           ;RTC.c: 25:     I2C_Write(year);
  2394  003F3A  5005               	movf	RTC_Calendar_Write@year^0,w,c
  2395  003F3C  ECF6  F01F         	call	_I2C_Write
  2396  003F40                     
  2397                           ;RTC.c: 26:     I2C_Stop();
  2398  003F40  EC53  F020         	call	_I2C_Stop	;wreg free
  2399  003F44  0012               	return		;funcret
  2400  003F46                     __end_of_RTC_Calendar_Write:
  2401                           	callstack 0
  2402                           
  2403 ;; *************** function _Establecer_Hora_Fecha *****************
  2404 ;; Defined at:
  2405 ;;		line 122 in file "RTC.c"
  2406 ;; Parameters:    Size  Location     Type
  2407 ;;  x               1    wreg     unsigned char 
  2408 ;;  y               1    8[COMRAM] unsigned char 
  2409 ;;  parametro       1    9[COMRAM] unsigned char 
  2410 ;; Auto vars:     Size  Location     Type
  2411 ;;  x               1   12[COMRAM] unsigned char 
  2412 ;; Return value:  Size  Location     Type
  2413 ;;                  1    wreg      unsigned char 
  2414 ;; Registers used:
  2415 ;;		wreg, status,2, status,0, cstack
  2416 ;; Tracked objects:
  2417 ;;		On entry : 0/0
  2418 ;;		On exit  : 0/0
  2419 ;;		Unchanged: 0/0
  2420 ;; Data sizes:     COMRAM   BANK0   BANK1   BANK2   BANK3   BANK4   BANK5   BANK6   BANK7
  2421 ;;      Params:         2       0       0       0       0       0       0       0       0
  2422 ;;      Locals:         1       0       0       0       0       0       0       0       0
  2423 ;;      Temps:          2       0       0       0       0       0       0       0       0
  2424 ;;      Totals:         5       0       0       0       0       0       0       0       0
  2425 ;;Total ram usage:        5 bytes
  2426 ;; Hardware stack levels used: 1
  2427 ;; Hardware stack levels required when called: 2
  2428 ;; This function calls:
  2429 ;;		_Anti_rebote
  2430 ;;		_LCD_Char
  2431 ;;		_LCD_xy
  2432 ;;		_Parpadeo
  2433 ;;		___awdiv
  2434 ;;		___awmod
  2435 ;; This function is called by:
  2436 ;;		_configurarHora
  2437 ;; This function uses a non-reentrant model
  2438 ;;
  2439                           
  2440                           	psect	text7
  2441  002014                     __ptext7:
  2442                           	callstack 0
  2443  002014                     _Establecer_Hora_Fecha:
  2444                           	callstack 26
  2445                           
  2446                           ;incstack = 0
  2447                           ;Establecer_Hora_Fecha@x stored from wreg
  2448  002014  6E0D               	movwf	Establecer_Hora_Fecha@x^0,c
  2449  002016                     l4696:
  2450  002016  ECFC  F01B         	call	_Anti_rebote	;wreg free
  2451  00201A  B0D8               	btfsc	status,0,c
  2452  00201C  EF12  F010         	goto	u4721
  2453  002020  EF14  F010         	goto	u4720
  2454  002024                     u4721:
  2455  002024  EF0B  F010         	goto	l4696
  2456  002028                     u4720:
  2457  002028  EF9F  F010         	goto	l4738
  2458  00202C                     l4698:
  2459                           
  2460                           ;RTC.c: 128:         {;RTC.c: 129:             parametro++;
  2461  00202C  2A0A               	incf	Establecer_Hora_Fecha@parametro^0,f,c
  2462  00202E                     
  2463                           ;RTC.c: 130:             if (i == 0 && parametro > 23)
  2464  00202E  0100               	movlb	0	; () banked
  2465  002030  51F9               	movf	_i& (0+255),w,b
  2466  002032  A4D8               	btfss	status,2,c
  2467  002034  EF1E  F010         	goto	u4731
  2468  002038  EF20  F010         	goto	u4730
  2469  00203C                     u4731:
  2470  00203C  EF2A  F010         	goto	l4706
  2471  002040                     u4730:
  2472  002040                     
  2473                           ; BSR set to: 0
  2474  002040  0E17               	movlw	23
  2475  002042  640A               	cpfsgt	Establecer_Hora_Fecha@parametro^0,c
  2476  002044  EF26  F010         	goto	u4741
  2477  002048  EF28  F010         	goto	u4740
  2478  00204C                     u4741:
  2479  00204C  EF2A  F010         	goto	l4706
  2480  002050                     u4740:
  2481  002050                     
  2482                           ; BSR set to: 0
  2483                           ;RTC.c: 131:             {;RTC.c: 132:                 parametro = 0;
  2484  002050  0E00               	movlw	0
  2485  002052  6E0A               	movwf	Establecer_Hora_Fecha@parametro^0,c
  2486  002054                     l4706:
  2487                           
  2488                           ; BSR set to: 0
  2489                           ;RTC.c: 134:             if (i == 1 && parametro > 59)
  2490  002054  05F9               	decf	_i& (0+255),w,b
  2491  002056  A4D8               	btfss	status,2,c
  2492  002058  EF30  F010         	goto	u4751
  2493  00205C  EF32  F010         	goto	u4750
  2494  002060                     u4751:
  2495  002060  EF3C  F010         	goto	l4712
  2496  002064                     u4750:
  2497  002064                     
  2498                           ; BSR set to: 0
  2499  002064  0E3B               	movlw	59
  2500  002066  640A               	cpfsgt	Establecer_Hora_Fecha@parametro^0,c
  2501  002068  EF38  F010         	goto	u4761
  2502  00206C  EF3A  F010         	goto	u4760
  2503  002070                     u4761:
  2504  002070  EF3C  F010         	goto	l4712
  2505  002074                     u4760:
  2506  002074                     
  2507                           ; BSR set to: 0
  2508                           ;RTC.c: 135:             {;RTC.c: 136:                 parametro = 0;
  2509  002074  0E00               	movlw	0
  2510  002076  6E0A               	movwf	Establecer_Hora_Fecha@parametro^0,c
  2511  002078                     l4712:
  2512                           
  2513                           ; BSR set to: 0
  2514                           ;RTC.c: 138:             if (i == 2 && parametro > 31)
  2515  002078  0E02               	movlw	2
  2516  00207A  19F9               	xorwf	_i& (0+255),w,b
  2517  00207C  A4D8               	btfss	status,2,c
  2518  00207E  EF43  F010         	goto	u4771
  2519  002082  EF45  F010         	goto	u4770
  2520  002086                     u4771:
  2521  002086  EF4F  F010         	goto	l4718
  2522  00208A                     u4770:
  2523  00208A                     
  2524                           ; BSR set to: 0
  2525  00208A  0E1F               	movlw	31
  2526  00208C  640A               	cpfsgt	Establecer_Hora_Fecha@parametro^0,c
  2527  00208E  EF4B  F010         	goto	u4781
  2528  002092  EF4D  F010         	goto	u4780
  2529  002096                     u4781:
  2530  002096  EF4F  F010         	goto	l4718
  2531  00209A                     u4780:
  2532  00209A                     
  2533                           ; BSR set to: 0
  2534                           ;RTC.c: 139:             {;RTC.c: 140:                 parametro = 1;
  2535  00209A  0E01               	movlw	1
  2536  00209C  6E0A               	movwf	Establecer_Hora_Fecha@parametro^0,c
  2537  00209E                     l4718:
  2538                           
  2539                           ; BSR set to: 0
  2540                           ;RTC.c: 142:             if (i == 3 && parametro > 12)
  2541  00209E  0E03               	movlw	3
  2542  0020A0  19F9               	xorwf	_i& (0+255),w,b
  2543  0020A2  A4D8               	btfss	status,2,c
  2544  0020A4  EF56  F010         	goto	u4791
  2545  0020A8  EF58  F010         	goto	u4790
  2546  0020AC                     u4791:
  2547  0020AC  EF62  F010         	goto	l4724
  2548  0020B0                     u4790:
  2549  0020B0                     
  2550                           ; BSR set to: 0
  2551  0020B0  0E0C               	movlw	12
  2552  0020B2  640A               	cpfsgt	Establecer_Hora_Fecha@parametro^0,c
  2553  0020B4  EF5E  F010         	goto	u4801
  2554  0020B8  EF60  F010         	goto	u4800
  2555  0020BC                     u4801:
  2556  0020BC  EF62  F010         	goto	l4724
  2557  0020C0                     u4800:
  2558  0020C0                     
  2559                           ; BSR set to: 0
  2560                           ;RTC.c: 143:             {;RTC.c: 144:                 parametro = 1;
  2561  0020C0  0E01               	movlw	1
  2562  0020C2  6E0A               	movwf	Establecer_Hora_Fecha@parametro^0,c
  2563  0020C4                     l4724:
  2564                           
  2565                           ; BSR set to: 0
  2566                           ;RTC.c: 146:             if (i == 4 && parametro > 99)
  2567  0020C4  0E04               	movlw	4
  2568  0020C6  19F9               	xorwf	_i& (0+255),w,b
  2569  0020C8  A4D8               	btfss	status,2,c
  2570  0020CA  EF69  F010         	goto	u4811
  2571  0020CE  EF6B  F010         	goto	u4810
  2572  0020D2                     u4811:
  2573  0020D2  EF75  F010         	goto	l4730
  2574  0020D6                     u4810:
  2575  0020D6                     
  2576                           ; BSR set to: 0
  2577  0020D6  0E63               	movlw	99
  2578  0020D8  640A               	cpfsgt	Establecer_Hora_Fecha@parametro^0,c
  2579  0020DA  EF71  F010         	goto	u4821
  2580  0020DE  EF73  F010         	goto	u4820
  2581  0020E2                     u4821:
  2582  0020E2  EF75  F010         	goto	l4730
  2583  0020E6                     u4820:
  2584  0020E6                     
  2585                           ; BSR set to: 0
  2586                           ;RTC.c: 147:             {;RTC.c: 148:                 parametro = 0;
  2587  0020E6  0E00               	movlw	0
  2588  0020E8  6E0A               	movwf	Establecer_Hora_Fecha@parametro^0,c
  2589  0020EA                     l4730:
  2590                           
  2591                           ; BSR set to: 0
  2592                           ;RTC.c: 150:             LCD_xy(x, y);
  2593  0020EA  C009  F003         	movff	Establecer_Hora_Fecha@y,LCD_xy@pos
  2594  0020EE  500D               	movf	Establecer_Hora_Fecha@x^0,w,c
  2595  0020F0  ECE6  F01E         	call	_LCD_xy
  2596  0020F4                     
  2597                           ;RTC.c: 151:             LCD_Char(parametro / 10 + '0');
  2598  0020F4  C00A  F001         	movff	Establecer_Hora_Fecha@parametro,___awdiv@dividend
  2599  0020F8  6A02               	clrf	(___awdiv@dividend+1)^0,c
  2600  0020FA  0E00               	movlw	0
  2601  0020FC  6E04               	movwf	(___awdiv@divisor+1)^0,c
  2602  0020FE  0E0A               	movlw	10
  2603  002100  6E03               	movwf	___awdiv@divisor^0,c
  2604  002102  EC07  F018         	call	___awdiv	;wreg free
  2605  002106  5001               	movf	?___awdiv^0,w,c
  2606  002108  0F30               	addlw	48
  2607  00210A  EC77  F01C         	call	_LCD_Char
  2608  00210E                     
  2609                           ;RTC.c: 152:             LCD_Char(parametro % 10 + '0');
  2610  00210E  C00A  F001         	movff	Establecer_Hora_Fecha@parametro,___awmod@dividend
  2611  002112  6A02               	clrf	(___awmod@dividend+1)^0,c
  2612  002114  0E00               	movlw	0
  2613  002116  6E04               	movwf	(___awmod@divisor+1)^0,c
  2614  002118  0E0A               	movlw	10
  2615  00211A  6E03               	movwf	___awmod@divisor^0,c
  2616  00211C  EC69  F018         	call	___awmod	;wreg free
  2617  002120  5001               	movf	?___awmod^0,w,c
  2618  002122  0F30               	addlw	48
  2619  002124  EC77  F01C         	call	_LCD_Char
  2620  002128                     
  2621                           ;RTC.c: 153:             _delay((unsigned long)((300)*(8000000/4000.0)));
  2622  002128  0E04               	movlw	4
  2623  00212A  6E0C               	movwf	(??_Establecer_Hora_Fecha+1)^0,c
  2624  00212C  0E0C               	movlw	12
  2625  00212E  6E0B               	movwf	??_Establecer_Hora_Fecha^0,c
  2626  002130  0E34               	movlw	52
  2627  002132                     u5717:
  2628  002132  2EE8               	decfsz	wreg,f,c
  2629  002134  D7FE               	bra	u5717
  2630  002136  2E0B               	decfsz	??_Establecer_Hora_Fecha^0,f,c
  2631  002138  D7FC               	bra	u5717
  2632  00213A  2E0C               	decfsz	(??_Establecer_Hora_Fecha+1)^0,f,c
  2633  00213C  D7FA               	bra	u5717
  2634  00213E                     l4738:
  2635                           
  2636                           ;RTC.c: 127:         while (!(PORTAbits.RA3))
  2637  00213E  A680               	btfss	128,3,c	;volatile
  2638  002140  EFA4  F010         	goto	u4831
  2639  002144  EFA6  F010         	goto	u4830
  2640  002148                     u4831:
  2641  002148  EF16  F010         	goto	l4698
  2642  00214C                     u4830:
  2643  00214C                     
  2644                           ;RTC.c: 156:         LCD_xy(x, y);
  2645  00214C  C009  F003         	movff	Establecer_Hora_Fecha@y,LCD_xy@pos
  2646  002150  500D               	movf	Establecer_Hora_Fecha@x^0,w,c
  2647  002152  ECE6  F01E         	call	_LCD_xy
  2648                           
  2649                           ;RTC.c: 157:         LCD_Char("  ");
  2650  002156  0EC6               	movlw	STR_15& (0+255)
  2651  002158  EC77  F01C         	call	_LCD_Char
  2652                           
  2653                           ;RTC.c: 158:         LCD_xy(x, y+1);
  2654  00215C  2809               	incf	Establecer_Hora_Fecha@y^0,w,c
  2655  00215E  6E03               	movwf	LCD_xy@pos^0,c
  2656  002160  500D               	movf	Establecer_Hora_Fecha@x^0,w,c
  2657  002162  ECE6  F01E         	call	_LCD_xy
  2658                           
  2659                           ;RTC.c: 159:         LCD_Char("  ");
  2660  002166  0EC6               	movlw	STR_15& (0+255)
  2661  002168  EC77  F01C         	call	_LCD_Char
  2662                           
  2663                           ;RTC.c: 160:         Parpadeo();
  2664  00216C  EC5C  F01D         	call	_Parpadeo	;wreg free
  2665                           
  2666                           ;RTC.c: 162:         LCD_xy(x, y);
  2667  002170  C009  F003         	movff	Establecer_Hora_Fecha@y,LCD_xy@pos
  2668  002174  500D               	movf	Establecer_Hora_Fecha@x^0,w,c
  2669  002176  ECE6  F01E         	call	_LCD_xy
  2670                           
  2671                           ;RTC.c: 163:         LCD_Char(parametro / 10 + '0');
  2672  00217A  C00A  F001         	movff	Establecer_Hora_Fecha@parametro,___awdiv@dividend
  2673  00217E  6A02               	clrf	(___awdiv@dividend+1)^0,c
  2674  002180  0E00               	movlw	0
  2675  002182  6E04               	movwf	(___awdiv@divisor+1)^0,c
  2676  002184  0E0A               	movlw	10
  2677  002186  6E03               	movwf	___awdiv@divisor^0,c
  2678  002188  EC07  F018         	call	___awdiv	;wreg free
  2679  00218C  5001               	movf	?___awdiv^0,w,c
  2680  00218E  0F30               	addlw	48
  2681  002190  EC77  F01C         	call	_LCD_Char
  2682                           
  2683                           ;RTC.c: 164:         LCD_Char(parametro % 10 + '0');
  2684  002194  C00A  F001         	movff	Establecer_Hora_Fecha@parametro,___awmod@dividend
  2685  002198  6A02               	clrf	(___awmod@dividend+1)^0,c
  2686  00219A  0E00               	movlw	0
  2687  00219C  6E04               	movwf	(___awmod@divisor+1)^0,c
  2688  00219E  0E0A               	movlw	10
  2689  0021A0  6E03               	movwf	___awmod@divisor^0,c
  2690  0021A2  EC69  F018         	call	___awmod	;wreg free
  2691  0021A6  5001               	movf	?___awmod^0,w,c
  2692  0021A8  0F30               	addlw	48
  2693  0021AA  EC77  F01C         	call	_LCD_Char
  2694                           
  2695                           ;RTC.c: 165:         Parpadeo();
  2696  0021AE  EC5C  F01D         	call	_Parpadeo	;wreg free
  2697  0021B2                     
  2698                           ;RTC.c: 167:         if (!(PORTAbits.RA2))
  2699  0021B2  B480               	btfsc	128,2,c	;volatile
  2700  0021B4  EFDE  F010         	goto	u4841
  2701  0021B8  EFE0  F010         	goto	u4840
  2702  0021BC                     u4841:
  2703  0021BC  EF9F  F010         	goto	l4738
  2704  0021C0                     u4840:
  2705  0021C0                     
  2706                           ;RTC.c: 168:             if (Anti_rebote())
  2707  0021C0  ECFC  F01B         	call	_Anti_rebote	;wreg free
  2708  0021C4  A0D8               	btfss	status,0,c
  2709  0021C6  EFE7  F010         	goto	u4851
  2710  0021CA  EFE9  F010         	goto	u4850
  2711  0021CE                     u4851:
  2712  0021CE  EF9F  F010         	goto	l4738
  2713  0021D2                     u4850:
  2714  0021D2                     
  2715                           ;RTC.c: 169:             {;RTC.c: 170:                 i++;
  2716  0021D2  0100               	movlb	0	; () banked
  2717  0021D4  2BF9               	incf	_i& (0+255),f,b
  2718  0021D6                     
  2719                           ; BSR set to: 0
  2720                           ;RTC.c: 171:                 return parametro;
  2721  0021D6  500A               	movf	Establecer_Hora_Fecha@parametro^0,w,c
  2722  0021D8                     
  2723                           ; BSR set to: 0
  2724  0021D8  0012               	return		;funcret
  2725  0021DA                     __end_of_Establecer_Hora_Fecha:
  2726                           	callstack 0
  2727                           
  2728 ;; *************** function _Parpadeo *****************
  2729 ;; Defined at:
  2730 ;;		line 112 in file "RTC.c"
  2731 ;; Parameters:    Size  Location     Type
  2732 ;;		None
  2733 ;; Auto vars:     Size  Location     Type
  2734 ;;  j               1    1[COMRAM] unsigned char 
  2735 ;; Return value:  Size  Location     Type
  2736 ;;                  1    wreg      void 
  2737 ;; Registers used:
  2738 ;;		wreg, status,2, status,0
  2739 ;; Tracked objects:
  2740 ;;		On entry : 0/0
  2741 ;;		On exit  : 0/0
  2742 ;;		Unchanged: 0/0
  2743 ;; Data sizes:     COMRAM   BANK0   BANK1   BANK2   BANK3   BANK4   BANK5   BANK6   BANK7
  2744 ;;      Params:         0       0       0       0       0       0       0       0       0
  2745 ;;      Locals:         1       0       0       0       0       0       0       0       0
  2746 ;;      Temps:          1       0       0       0       0       0       0       0       0
  2747 ;;      Totals:         2       0       0       0       0       0       0       0       0
  2748 ;;Total ram usage:        2 bytes
  2749 ;; Hardware stack levels used: 1
  2750 ;; This function calls:
  2751 ;;		Nothing
  2752 ;; This function is called by:
  2753 ;;		_Establecer_Hora_Fecha
  2754 ;; This function uses a non-reentrant model
  2755 ;;
  2756                           
  2757                           	psect	text8
  2758  003AB8                     __ptext8:
  2759                           	callstack 0
  2760  003AB8                     _Parpadeo:
  2761                           	callstack 27
  2762  003AB8                     
  2763                           ;RTC.c: 114:     uint8_t j = 0;
  2764  003AB8  0E00               	movlw	0
  2765  003ABA  6E02               	movwf	Parpadeo@j^0,c
  2766                           
  2767                           ;RTC.c: 115:     while (j < 100 && (PORTAbits.RA2) && (PORTAbits.RA3))
  2768  003ABC  EF68  F01D         	goto	l659
  2769  003AC0                     l4182:
  2770                           
  2771                           ;RTC.c: 116:     {;RTC.c: 117:         j++;
  2772  003AC0  2A02               	incf	Parpadeo@j^0,f,c
  2773  003AC2                     
  2774                           ;RTC.c: 118:         _delay((unsigned long)((5)*(8000000/4000.0)));
  2775  003AC2  0E0D               	movlw	13
  2776  003AC4  6E01               	movwf	??_Parpadeo^0,c
  2777  003AC6  0EFC               	movlw	252
  2778  003AC8                     u5727:
  2779  003AC8  2EE8               	decfsz	wreg,f,c
  2780  003ACA  D7FE               	bra	u5727
  2781  003ACC  2E01               	decfsz	??_Parpadeo^0,f,c
  2782  003ACE  D7FC               	bra	u5727
  2783  003AD0                     l659:
  2784                           
  2785                           ;RTC.c: 115:     while (j < 100 && (PORTAbits.RA2) && (PORTAbits.RA3))
  2786  003AD0  0E64               	movlw	100
  2787  003AD2  6002               	cpfslt	Parpadeo@j^0,c
  2788  003AD4  EF6E  F01D         	goto	u3981
  2789  003AD8  EF70  F01D         	goto	u3980
  2790  003ADC                     u3981:
  2791  003ADC  EF7E  F01D         	goto	l664
  2792  003AE0                     u3980:
  2793  003AE0  A480               	btfss	128,2,c	;volatile
  2794  003AE2  EF75  F01D         	goto	u3991
  2795  003AE6  EF77  F01D         	goto	u3990
  2796  003AEA                     u3991:
  2797  003AEA  EF7E  F01D         	goto	l664
  2798  003AEE                     u3990:
  2799  003AEE  B680               	btfsc	128,3,c	;volatile
  2800  003AF0  EF7C  F01D         	goto	u4001
  2801  003AF4  EF7E  F01D         	goto	u4000
  2802  003AF8                     u4001:
  2803  003AF8  EF60  F01D         	goto	l4182
  2804  003AFC                     u4000:
  2805  003AFC                     l664:
  2806  003AFC  0012               	return		;funcret
  2807  003AFE                     __end_of_Parpadeo:
  2808                           	callstack 0
  2809                           
  2810 ;; *************** function _LCD_xy *****************
  2811 ;; Defined at:
  2812 ;;		line 118 in file "LCD.c"
  2813 ;; Parameters:    Size  Location     Type
  2814 ;;  row             1    wreg     unsigned char 
  2815 ;;  pos             1    2[COMRAM] unsigned char 
  2816 ;; Auto vars:     Size  Location     Type
  2817 ;;  row             1    3[COMRAM] unsigned char 
  2818 ;;  location        1    4[COMRAM] unsigned char 
  2819 ;; Return value:  Size  Location     Type
  2820 ;;                  1    wreg      void 
  2821 ;; Registers used:
  2822 ;;		wreg, status,2, status,0, cstack
  2823 ;; Tracked objects:
  2824 ;;		On entry : 0/0
  2825 ;;		On exit  : 0/0
  2826 ;;		Unchanged: 0/0
  2827 ;; Data sizes:     COMRAM   BANK0   BANK1   BANK2   BANK3   BANK4   BANK5   BANK6   BANK7
  2828 ;;      Params:         1       0       0       0       0       0       0       0       0
  2829 ;;      Locals:         2       0       0       0       0       0       0       0       0
  2830 ;;      Temps:          0       0       0       0       0       0       0       0       0
  2831 ;;      Totals:         3       0       0       0       0       0       0       0       0
  2832 ;;Total ram usage:        3 bytes
  2833 ;; Hardware stack levels used: 1
  2834 ;; Hardware stack levels required when called: 1
  2835 ;; This function calls:
  2836 ;;		_LCD_Command
  2837 ;; This function is called by:
  2838 ;;		_Establecer_Hora_Fecha
  2839 ;; This function uses a non-reentrant model
  2840 ;;
  2841                           
  2842                           	psect	text9
  2843  003DCC                     __ptext9:
  2844                           	callstack 0
  2845  003DCC                     _LCD_xy:
  2846                           	callstack 26
  2847                           
  2848                           ;incstack = 0
  2849                           ;LCD_xy@row stored from wreg
  2850  003DCC  6E04               	movwf	LCD_xy@row^0,c
  2851  003DCE                     
  2852                           ;LCD.c: 120:     if (row <= 1) {
  2853  003DCE  0E02               	movlw	2
  2854  003DD0  6004               	cpfslt	LCD_xy@row^0,c
  2855  003DD2  EFED  F01E         	goto	u3891
  2856  003DD6  EFEF  F01E         	goto	u3890
  2857  003DDA                     u3891:
  2858  003DDA  EFF8  F01E         	goto	l4100
  2859  003DDE                     u3890:
  2860  003DDE                     
  2861                           ;LCD.c: 121:         location = (0x80) | ((pos) & 0x0f);
  2862  003DDE  5003               	movf	LCD_xy@pos^0,w,c
  2863  003DE0  0B0F               	andlw	15
  2864  003DE2  0980               	iorlw	128
  2865  003DE4  6E05               	movwf	LCD_xy@location^0,c
  2866  003DE6                     
  2867                           ;LCD.c: 122:         LCD_Command(location);
  2868  003DE6  5005               	movf	LCD_xy@location^0,w,c
  2869  003DE8  EC9F  F01C         	call	_LCD_Command
  2870                           
  2871                           ;LCD.c: 123:     } else {
  2872  003DEC  EFFF  F01E         	goto	l227
  2873  003DF0                     l4100:
  2874                           
  2875                           ;LCD.c: 124:         location = (0xC0) | ((pos) & 0x0f);
  2876  003DF0  5003               	movf	LCD_xy@pos^0,w,c
  2877  003DF2  0B0F               	andlw	15
  2878  003DF4  09C0               	iorlw	192
  2879  003DF6  6E05               	movwf	LCD_xy@location^0,c
  2880  003DF8                     
  2881                           ;LCD.c: 125:         LCD_Command(location);
  2882  003DF8  5005               	movf	LCD_xy@location^0,w,c
  2883  003DFA  EC9F  F01C         	call	_LCD_Command
  2884  003DFE                     l227:
  2885  003DFE  0012               	return		;funcret
  2886  003E00                     __end_of_LCD_xy:
  2887                           	callstack 0
  2888                           
  2889 ;; *************** function _Anti_rebote *****************
  2890 ;; Defined at:
  2891 ;;		line 93 in file "RTC.c"
  2892 ;; Parameters:    Size  Location     Type
  2893 ;;		None
  2894 ;; Auto vars:     Size  Location     Type
  2895 ;;  i               1    2[COMRAM] unsigned char 
  2896 ;;  contador        1    1[COMRAM] unsigned char 
  2897 ;; Return value:  Size  Location     Type
  2898 ;;		None               void
  2899 ;; Registers used:
  2900 ;;		wreg, status,2, status,0
  2901 ;; Tracked objects:
  2902 ;;		On entry : 0/0
  2903 ;;		On exit  : 0/0
  2904 ;;		Unchanged: 0/0
  2905 ;; Data sizes:     COMRAM   BANK0   BANK1   BANK2   BANK3   BANK4   BANK5   BANK6   BANK7
  2906 ;;      Params:         0       0       0       0       0       0       0       0       0
  2907 ;;      Locals:         2       0       0       0       0       0       0       0       0
  2908 ;;      Temps:          1       0       0       0       0       0       0       0       0
  2909 ;;      Totals:         3       0       0       0       0       0       0       0       0
  2910 ;;Total ram usage:        3 bytes
  2911 ;; Hardware stack levels used: 1
  2912 ;; This function calls:
  2913 ;;		Nothing
  2914 ;; This function is called by:
  2915 ;;		_Establecer_Hora_Fecha
  2916 ;;		_configurarHora
  2917 ;; This function uses a non-reentrant model
  2918 ;;
  2919                           
  2920                           	psect	text10
  2921  0037F8                     __ptext10:
  2922                           	callstack 0
  2923  0037F8                     _Anti_rebote:
  2924                           	callstack 27
  2925  0037F8                     
  2926                           ;RTC.c: 95:     uint8_t contador = 0;
  2927  0037F8  0E00               	movlw	0
  2928  0037FA  6E02               	movwf	Anti_rebote@contador^0,c
  2929                           
  2930                           ;RTC.c: 96:     for (uint8_t i = 0; i < 5; i++)
  2931  0037FC  0E00               	movlw	0
  2932  0037FE  6E03               	movwf	Anti_rebote@i^0,c
  2933  003800                     l651:
  2934                           
  2935                           ;RTC.c: 97:     {;RTC.c: 98:         if ((PORTAbits.RA2) == 0)
  2936  003800  B480               	btfsc	128,2,c	;volatile
  2937  003802  EF05  F01C         	goto	u3951
  2938  003806  EF07  F01C         	goto	u3950
  2939  00380A                     u3951:
  2940  00380A  EF08  F01C         	goto	l4162
  2941  00380E                     u3950:
  2942  00380E                     
  2943                           ;RTC.c: 99:             contador++;
  2944  00380E  2A02               	incf	Anti_rebote@contador^0,f,c
  2945  003810                     l4162:
  2946                           
  2947                           ;RTC.c: 100:         _delay((unsigned long)((10)*(8000000/4000.0)));
  2948  003810  0E1A               	movlw	26
  2949  003812  6E01               	movwf	??_Anti_rebote^0,c
  2950  003814  0EF8               	movlw	248
  2951  003816                     u5737:
  2952  003816  2EE8               	decfsz	wreg,f,c
  2953  003818  D7FE               	bra	u5737
  2954  00381A  2E01               	decfsz	??_Anti_rebote^0,f,c
  2955  00381C  D7FC               	bra	u5737
  2956  00381E  D000               	nop2	
  2957  003820                     
  2958                           ;RTC.c: 101:     }
  2959  003820  2A03               	incf	Anti_rebote@i^0,f,c
  2960  003822  0E04               	movlw	4
  2961  003824  6403               	cpfsgt	Anti_rebote@i^0,c
  2962  003826  EF17  F01C         	goto	u3961
  2963  00382A  EF19  F01C         	goto	u3960
  2964  00382E                     u3961:
  2965  00382E  EF00  F01C         	goto	l651
  2966  003832                     u3960:
  2967  003832                     
  2968                           ;RTC.c: 102:     if (contador > 2)
  2969  003832  0E02               	movlw	2
  2970  003834  6402               	cpfsgt	Anti_rebote@contador^0,c
  2971  003836  EF1F  F01C         	goto	u3971
  2972  00383A  EF21  F01C         	goto	u3970
  2973  00383E                     u3971:
  2974  00383E  EF24  F01C         	goto	l4176
  2975  003842                     u3970:
  2976  003842                     
  2977                           ;RTC.c: 103:     {;RTC.c: 104:         return 1;
  2978  003842  80D8               	bsf	status,0,c
  2979  003844  EF25  F01C         	goto	l655
  2980  003848                     l4176:
  2981                           
  2982                           ;RTC.c: 107:     {;RTC.c: 108:         return 0;
  2983  003848  90D8               	bcf	status,0,c
  2984  00384A                     l655:
  2985  00384A  0012               	return		;funcret
  2986  00384C                     __end_of_Anti_rebote:
  2987                           	callstack 0
  2988                           
  2989 ;; *************** function _Decimal_a_BCD *****************
  2990 ;; Defined at:
  2991 ;;		line 88 in file "RTC.c"
  2992 ;; Parameters:    Size  Location     Type
  2993 ;;  numero          1    wreg     unsigned char 
  2994 ;; Auto vars:     Size  Location     Type
  2995 ;;  numero          1   10[COMRAM] unsigned char 
  2996 ;; Return value:  Size  Location     Type
  2997 ;;                  1    wreg      unsigned char 
  2998 ;; Registers used:
  2999 ;;		wreg, status,2, status,0, prodl, prodh, cstack
  3000 ;; Tracked objects:
  3001 ;;		On entry : 0/0
  3002 ;;		On exit  : 0/0
  3003 ;;		Unchanged: 0/0
  3004 ;; Data sizes:     COMRAM   BANK0   BANK1   BANK2   BANK3   BANK4   BANK5   BANK6   BANK7
  3005 ;;      Params:         0       0       0       0       0       0       0       0       0
  3006 ;;      Locals:         1       0       0       0       0       0       0       0       0
  3007 ;;      Temps:          2       0       0       0       0       0       0       0       0
  3008 ;;      Totals:         3       0       0       0       0       0       0       0       0
  3009 ;;Total ram usage:        3 bytes
  3010 ;; Hardware stack levels used: 1
  3011 ;; Hardware stack levels required when called: 1
  3012 ;; This function calls:
  3013 ;;		___awdiv
  3014 ;;		___awmod
  3015 ;; This function is called by:
  3016 ;;		_configurarHora
  3017 ;; This function uses a non-reentrant model
  3018 ;;
  3019                           
  3020                           	psect	text11
  3021  003CB8                     __ptext11:
  3022                           	callstack 0
  3023  003CB8                     _Decimal_a_BCD:
  3024                           	callstack 27
  3025                           
  3026                           ;incstack = 0
  3027                           ;Decimal_a_BCD@numero stored from wreg
  3028  003CB8  6E0B               	movwf	Decimal_a_BCD@numero^0,c
  3029  003CBA                     
  3030                           ;RTC.c: 88: uint8_t Decimal_a_BCD(uint8_t numero);RTC.c: 89: {;RTC.c: 90:     return (((
      +                          numero / 10) << 4) + (numero % 10));
  3031  003CBA  C00B  F001         	movff	Decimal_a_BCD@numero,___awmod@dividend
  3032  003CBE  6A02               	clrf	(___awmod@dividend+1)^0,c
  3033  003CC0  0E00               	movlw	0
  3034  003CC2  6E04               	movwf	(___awmod@divisor+1)^0,c
  3035  003CC4  0E0A               	movlw	10
  3036  003CC6  6E03               	movwf	___awmod@divisor^0,c
  3037  003CC8  EC69  F018         	call	___awmod	;wreg free
  3038  003CCC  C001  F009         	movff	?___awmod,??_Decimal_a_BCD
  3039  003CD0  C002  F00A         	movff	?___awmod+1,??_Decimal_a_BCD+1
  3040  003CD4  C00B  F001         	movff	Decimal_a_BCD@numero,___awdiv@dividend
  3041  003CD8  6A02               	clrf	(___awdiv@dividend+1)^0,c
  3042  003CDA  0E00               	movlw	0
  3043  003CDC  6E04               	movwf	(___awdiv@divisor+1)^0,c
  3044  003CDE  0E0A               	movlw	10
  3045  003CE0  6E03               	movwf	___awdiv@divisor^0,c
  3046  003CE2  EC07  F018         	call	___awdiv	;wreg free
  3047  003CE6  5001               	movf	?___awdiv^0,w,c
  3048  003CE8  0D10               	mullw	16
  3049  003CEA  50F3               	movf	243,w,c
  3050  003CEC  2409               	addwf	??_Decimal_a_BCD^0,w,c
  3051  003CEE  0012               	return		;funcret
  3052  003CF0                     __end_of_Decimal_a_BCD:
  3053                           	callstack 0
  3054                           
  3055 ;; *************** function ___awmod *****************
  3056 ;; Defined at:
  3057 ;;		line 7 in file "D:\mplab\pic\sources\c99\common\awmod.c"
  3058 ;; Parameters:    Size  Location     Type
  3059 ;;  dividend        2    0[COMRAM] int 
  3060 ;;  divisor         2    2[COMRAM] int 
  3061 ;; Auto vars:     Size  Location     Type
  3062 ;;  sign            1    5[COMRAM] unsigned char 
  3063 ;;  counter         1    4[COMRAM] unsigned char 
  3064 ;; Return value:  Size  Location     Type
  3065 ;;                  2    0[COMRAM] int 
  3066 ;; Registers used:
  3067 ;;		wreg, status,2, status,0
  3068 ;; Tracked objects:
  3069 ;;		On entry : 0/0
  3070 ;;		On exit  : 0/0
  3071 ;;		Unchanged: 0/0
  3072 ;; Data sizes:     COMRAM   BANK0   BANK1   BANK2   BANK3   BANK4   BANK5   BANK6   BANK7
  3073 ;;      Params:         4       0       0       0       0       0       0       0       0
  3074 ;;      Locals:         2       0       0       0       0       0       0       0       0
  3075 ;;      Temps:          0       0       0       0       0       0       0       0       0
  3076 ;;      Totals:         6       0       0       0       0       0       0       0       0
  3077 ;;Total ram usage:        6 bytes
  3078 ;; Hardware stack levels used: 1
  3079 ;; This function calls:
  3080 ;;		Nothing
  3081 ;; This function is called by:
  3082 ;;		_Decimal_a_BCD
  3083 ;;		_Establecer_Hora_Fecha
  3084 ;;		_Reloj_Calendario
  3085 ;; This function uses a non-reentrant model
  3086 ;;
  3087                           
  3088                           	psect	text12
  3089  0030D2                     __ptext12:
  3090                           	callstack 0
  3091  0030D2                     ___awmod:
  3092                           	callstack 27
  3093  0030D2  0E00               	movlw	0
  3094  0030D4  6E06               	movwf	___awmod@sign^0,c
  3095  0030D6  BE02               	btfsc	(___awmod@dividend+1)^0,7,c
  3096  0030D8  EF72  F018         	goto	u4260
  3097  0030DC  EF70  F018         	goto	u4261
  3098  0030E0                     u4261:
  3099  0030E0  EF78  F018         	goto	l4378
  3100  0030E4                     u4260:
  3101  0030E4  6C01               	negf	___awmod@dividend^0,c
  3102  0030E6  1E02               	comf	(___awmod@dividend+1)^0,f,c
  3103  0030E8  B0D8               	btfsc	status,0,c
  3104  0030EA  2A02               	incf	(___awmod@dividend+1)^0,f,c
  3105  0030EC  0E01               	movlw	1
  3106  0030EE  6E06               	movwf	___awmod@sign^0,c
  3107  0030F0                     l4378:
  3108  0030F0  BE04               	btfsc	(___awmod@divisor+1)^0,7,c
  3109  0030F2  EF7F  F018         	goto	u4270
  3110  0030F6  EF7D  F018         	goto	u4271
  3111  0030FA                     u4271:
  3112  0030FA  EF83  F018         	goto	l4382
  3113  0030FE                     u4270:
  3114  0030FE  6C03               	negf	___awmod@divisor^0,c
  3115  003100  1E04               	comf	(___awmod@divisor+1)^0,f,c
  3116  003102  B0D8               	btfsc	status,0,c
  3117  003104  2A04               	incf	(___awmod@divisor+1)^0,f,c
  3118  003106                     l4382:
  3119  003106  5003               	movf	___awmod@divisor^0,w,c
  3120  003108  1004               	iorwf	(___awmod@divisor+1)^0,w,c
  3121  00310A  B4D8               	btfsc	status,2,c
  3122  00310C  EF8A  F018         	goto	u4281
  3123  003110  EF8C  F018         	goto	u4280
  3124  003114                     u4281:
  3125  003114  EFB0  F018         	goto	l4398
  3126  003118                     u4280:
  3127  003118  0E01               	movlw	1
  3128  00311A  6E05               	movwf	___awmod@counter^0,c
  3129  00311C  EF94  F018         	goto	l4388
  3130  003120                     l4386:
  3131  003120  90D8               	bcf	status,0,c
  3132  003122  3603               	rlcf	___awmod@divisor^0,f,c
  3133  003124  3604               	rlcf	(___awmod@divisor+1)^0,f,c
  3134  003126  2A05               	incf	___awmod@counter^0,f,c
  3135  003128                     l4388:
  3136  003128  AE04               	btfss	(___awmod@divisor+1)^0,7,c
  3137  00312A  EF99  F018         	goto	u4291
  3138  00312E  EF9B  F018         	goto	u4290
  3139  003132                     u4291:
  3140  003132  EF90  F018         	goto	l4386
  3141  003136                     u4290:
  3142  003136                     l4390:
  3143  003136  5003               	movf	___awmod@divisor^0,w,c
  3144  003138  5C01               	subwf	___awmod@dividend^0,w,c
  3145  00313A  5004               	movf	(___awmod@divisor+1)^0,w,c
  3146  00313C  5802               	subwfb	(___awmod@dividend+1)^0,w,c
  3147  00313E  A0D8               	btfss	status,0,c
  3148  003140  EFA4  F018         	goto	u4301
  3149  003144  EFA6  F018         	goto	u4300
  3150  003148                     u4301:
  3151  003148  EFAA  F018         	goto	l4394
  3152  00314C                     u4300:
  3153  00314C  5003               	movf	___awmod@divisor^0,w,c
  3154  00314E  5E01               	subwf	___awmod@dividend^0,f,c
  3155  003150  5004               	movf	(___awmod@divisor+1)^0,w,c
  3156  003152  5A02               	subwfb	(___awmod@dividend+1)^0,f,c
  3157  003154                     l4394:
  3158  003154  90D8               	bcf	status,0,c
  3159  003156  3204               	rrcf	(___awmod@divisor+1)^0,f,c
  3160  003158  3203               	rrcf	___awmod@divisor^0,f,c
  3161  00315A  2E05               	decfsz	___awmod@counter^0,f,c
  3162  00315C  EF9B  F018         	goto	l4390
  3163  003160                     l4398:
  3164  003160  5006               	movf	___awmod@sign^0,w,c
  3165  003162  B4D8               	btfsc	status,2,c
  3166  003164  EFB6  F018         	goto	u4311
  3167  003168  EFB8  F018         	goto	u4310
  3168  00316C                     u4311:
  3169  00316C  EFBC  F018         	goto	l4402
  3170  003170                     u4310:
  3171  003170  6C01               	negf	___awmod@dividend^0,c
  3172  003172  1E02               	comf	(___awmod@dividend+1)^0,f,c
  3173  003174  B0D8               	btfsc	status,0,c
  3174  003176  2A02               	incf	(___awmod@dividend+1)^0,f,c
  3175  003178                     l4402:
  3176  003178  C001  F001         	movff	___awmod@dividend,?___awmod
  3177  00317C  C002  F002         	movff	___awmod@dividend+1,?___awmod+1
  3178  003180  0012               	return		;funcret
  3179  003182                     __end_of___awmod:
  3180                           	callstack 0
  3181                           
  3182 ;; *************** function ___awdiv *****************
  3183 ;; Defined at:
  3184 ;;		line 7 in file "D:\mplab\pic\sources\c99\common\awdiv.c"
  3185 ;; Parameters:    Size  Location     Type
  3186 ;;  dividend        2    0[COMRAM] int 
  3187 ;;  divisor         2    2[COMRAM] int 
  3188 ;; Auto vars:     Size  Location     Type
  3189 ;;  quotient        2    6[COMRAM] int 
  3190 ;;  sign            1    5[COMRAM] unsigned char 
  3191 ;;  counter         1    4[COMRAM] unsigned char 
  3192 ;; Return value:  Size  Location     Type
  3193 ;;                  2    0[COMRAM] int 
  3194 ;; Registers used:
  3195 ;;		wreg, status,2, status,0
  3196 ;; Tracked objects:
  3197 ;;		On entry : 0/0
  3198 ;;		On exit  : 0/0
  3199 ;;		Unchanged: 0/0
  3200 ;; Data sizes:     COMRAM   BANK0   BANK1   BANK2   BANK3   BANK4   BANK5   BANK6   BANK7
  3201 ;;      Params:         4       0       0       0       0       0       0       0       0
  3202 ;;      Locals:         4       0       0       0       0       0       0       0       0
  3203 ;;      Temps:          0       0       0       0       0       0       0       0       0
  3204 ;;      Totals:         8       0       0       0       0       0       0       0       0
  3205 ;;Total ram usage:        8 bytes
  3206 ;; Hardware stack levels used: 1
  3207 ;; This function calls:
  3208 ;;		Nothing
  3209 ;; This function is called by:
  3210 ;;		_Decimal_a_BCD
  3211 ;;		_Establecer_Hora_Fecha
  3212 ;;		_Reloj_Calendario
  3213 ;; This function uses a non-reentrant model
  3214 ;;
  3215                           
  3216                           	psect	text13
  3217  00300E                     __ptext13:
  3218                           	callstack 0
  3219  00300E                     ___awdiv:
  3220                           	callstack 27
  3221  00300E  0E00               	movlw	0
  3222  003010  6E06               	movwf	___awdiv@sign^0,c
  3223  003012  BE04               	btfsc	(___awdiv@divisor+1)^0,7,c
  3224  003014  EF10  F018         	goto	u4200
  3225  003018  EF0E  F018         	goto	u4201
  3226  00301C                     u4201:
  3227  00301C  EF16  F018         	goto	l4334
  3228  003020                     u4200:
  3229  003020  6C03               	negf	___awdiv@divisor^0,c
  3230  003022  1E04               	comf	(___awdiv@divisor+1)^0,f,c
  3231  003024  B0D8               	btfsc	status,0,c
  3232  003026  2A04               	incf	(___awdiv@divisor+1)^0,f,c
  3233  003028  0E01               	movlw	1
  3234  00302A  6E06               	movwf	___awdiv@sign^0,c
  3235  00302C                     l4334:
  3236  00302C  BE02               	btfsc	(___awdiv@dividend+1)^0,7,c
  3237  00302E  EF1D  F018         	goto	u4210
  3238  003032  EF1B  F018         	goto	u4211
  3239  003036                     u4211:
  3240  003036  EF23  F018         	goto	l4340
  3241  00303A                     u4210:
  3242  00303A  6C01               	negf	___awdiv@dividend^0,c
  3243  00303C  1E02               	comf	(___awdiv@dividend+1)^0,f,c
  3244  00303E  B0D8               	btfsc	status,0,c
  3245  003040  2A02               	incf	(___awdiv@dividend+1)^0,f,c
  3246  003042  0E01               	movlw	1
  3247  003044  1A06               	xorwf	___awdiv@sign^0,f,c
  3248  003046                     l4340:
  3249  003046  0E00               	movlw	0
  3250  003048  6E08               	movwf	(___awdiv@quotient+1)^0,c
  3251  00304A  0E00               	movlw	0
  3252  00304C  6E07               	movwf	___awdiv@quotient^0,c
  3253  00304E  5003               	movf	___awdiv@divisor^0,w,c
  3254  003050  1004               	iorwf	(___awdiv@divisor+1)^0,w,c
  3255  003052  B4D8               	btfsc	status,2,c
  3256  003054  EF2E  F018         	goto	u4221
  3257  003058  EF30  F018         	goto	u4220
  3258  00305C                     u4221:
  3259  00305C  EF58  F018         	goto	l4362
  3260  003060                     u4220:
  3261  003060  0E01               	movlw	1
  3262  003062  6E05               	movwf	___awdiv@counter^0,c
  3263  003064  EF38  F018         	goto	l4348
  3264  003068                     l4346:
  3265  003068  90D8               	bcf	status,0,c
  3266  00306A  3603               	rlcf	___awdiv@divisor^0,f,c
  3267  00306C  3604               	rlcf	(___awdiv@divisor+1)^0,f,c
  3268  00306E  2A05               	incf	___awdiv@counter^0,f,c
  3269  003070                     l4348:
  3270  003070  AE04               	btfss	(___awdiv@divisor+1)^0,7,c
  3271  003072  EF3D  F018         	goto	u4231
  3272  003076  EF3F  F018         	goto	u4230
  3273  00307A                     u4231:
  3274  00307A  EF34  F018         	goto	l4346
  3275  00307E                     u4230:
  3276  00307E                     l4350:
  3277  00307E  90D8               	bcf	status,0,c
  3278  003080  3607               	rlcf	___awdiv@quotient^0,f,c
  3279  003082  3608               	rlcf	(___awdiv@quotient+1)^0,f,c
  3280  003084  5003               	movf	___awdiv@divisor^0,w,c
  3281  003086  5C01               	subwf	___awdiv@dividend^0,w,c
  3282  003088  5004               	movf	(___awdiv@divisor+1)^0,w,c
  3283  00308A  5802               	subwfb	(___awdiv@dividend+1)^0,w,c
  3284  00308C  A0D8               	btfss	status,0,c
  3285  00308E  EF4B  F018         	goto	u4241
  3286  003092  EF4D  F018         	goto	u4240
  3287  003096                     u4241:
  3288  003096  EF52  F018         	goto	l4358
  3289  00309A                     u4240:
  3290  00309A  5003               	movf	___awdiv@divisor^0,w,c
  3291  00309C  5E01               	subwf	___awdiv@dividend^0,f,c
  3292  00309E  5004               	movf	(___awdiv@divisor+1)^0,w,c
  3293  0030A0  5A02               	subwfb	(___awdiv@dividend+1)^0,f,c
  3294  0030A2  8007               	bsf	___awdiv@quotient^0,0,c
  3295  0030A4                     l4358:
  3296  0030A4  90D8               	bcf	status,0,c
  3297  0030A6  3204               	rrcf	(___awdiv@divisor+1)^0,f,c
  3298  0030A8  3203               	rrcf	___awdiv@divisor^0,f,c
  3299  0030AA  2E05               	decfsz	___awdiv@counter^0,f,c
  3300  0030AC  EF3F  F018         	goto	l4350
  3301  0030B0                     l4362:
  3302  0030B0  5006               	movf	___awdiv@sign^0,w,c
  3303  0030B2  B4D8               	btfsc	status,2,c
  3304  0030B4  EF5E  F018         	goto	u4251
  3305  0030B8  EF60  F018         	goto	u4250
  3306  0030BC                     u4251:
  3307  0030BC  EF64  F018         	goto	l4366
  3308  0030C0                     u4250:
  3309  0030C0  6C07               	negf	___awdiv@quotient^0,c
  3310  0030C2  1E08               	comf	(___awdiv@quotient+1)^0,f,c
  3311  0030C4  B0D8               	btfsc	status,0,c
  3312  0030C6  2A08               	incf	(___awdiv@quotient+1)^0,f,c
  3313  0030C8                     l4366:
  3314  0030C8  C007  F001         	movff	___awdiv@quotient,?___awdiv
  3315  0030CC  C008  F002         	movff	___awdiv@quotient+1,?___awdiv+1
  3316  0030D0  0012               	return		;funcret
  3317  0030D2                     __end_of___awdiv:
  3318                           	callstack 0
  3319                           
  3320 ;; *************** function _mostrar_estadisticas *****************
  3321 ;; Defined at:
  3322 ;;		line 76 in file "Principal.c"
  3323 ;; Parameters:    Size  Location     Type
  3324 ;;		None
  3325 ;; Auto vars:     Size  Location     Type
  3326 ;;		None
  3327 ;; Return value:  Size  Location     Type
  3328 ;;                  1    wreg      void 
  3329 ;; Registers used:
  3330 ;;		wreg, fsr1l, fsr1h, fsr2l, fsr2h, status,2, status,0, tblptrl, tblptrh, tblptru, prodl, prodh, cstack
  3331 ;; Tracked objects:
  3332 ;;		On entry : 0/0
  3333 ;;		On exit  : 0/0
  3334 ;;		Unchanged: 0/0
  3335 ;; Data sizes:     COMRAM   BANK0   BANK1   BANK2   BANK3   BANK4   BANK5   BANK6   BANK7
  3336 ;;      Params:         0       0       0       0       0       0       0       0       0
  3337 ;;      Locals:         0       0       0       0       0       0       0       0       0
  3338 ;;      Temps:          0       2       0       0       0       0       0       0       0
  3339 ;;      Totals:         0       2       0       0       0       0       0       0       0
  3340 ;;Total ram usage:        2 bytes
  3341 ;; Hardware stack levels used: 1
  3342 ;; Hardware stack levels required when called: 13
  3343 ;; This function calls:
  3344 ;;		_LCD_Clear
  3345 ;;		_establecer_valores
  3346 ;;		_imprimir
  3347 ;;		_iniciar_emoticones
  3348 ;; This function is called by:
  3349 ;;		_main
  3350 ;; This function uses a non-reentrant model
  3351 ;;
  3352                           
  3353                           	psect	text14
  3354  003614                     __ptext14:
  3355                           	callstack 0
  3356  003614                     _mostrar_estadisticas:
  3357                           	callstack 17
  3358  003614                     
  3359                           ;Principal.c: 77:     LCD_Clear();
  3360  003614  EC97  F020         	call	_LCD_Clear	;wreg free
  3361  003618                     
  3362                           ;Principal.c: 78:     iniciar_emoticones();
  3363  003618  EC54  F019         	call	_iniciar_emoticones	;wreg free
  3364  00361C                     l5234:
  3365                           
  3366                           ;Principal.c: 80:         establecer_valores();
  3367  00361C  ECC7  F01C         	call	_establecer_valores	;wreg free
  3368  003620                     
  3369                           ;Principal.c: 81:         imprimir(s_dist, s_temp, s_luz);
  3370  003620  C234  F07A         	movff	_s_dist,imprimir@dist
  3371  003624  C235  F07B         	movff	_s_dist+1,imprimir@dist+1
  3372  003628  C232  F07C         	movff	_s_temp,imprimir@temp
  3373  00362C  C233  F07D         	movff	_s_temp+1,imprimir@temp+1
  3374  003630  C230  F07E         	movff	_s_luz,imprimir@luz
  3375  003634  C231  F07F         	movff	_s_luz+1,imprimir@luz+1
  3376  003638  EC64  F016         	call	_imprimir	;wreg free
  3377  00363C                     
  3378                           ;Principal.c: 82:         if(!PORTAbits.RA4){
  3379  00363C  B880               	btfsc	128,4,c	;volatile
  3380  00363E  EF23  F01B         	goto	u5581
  3381  003642  EF25  F01B         	goto	u5580
  3382  003646                     u5581:
  3383  003646  EF0E  F01B         	goto	l5234
  3384  00364A                     u5580:
  3385  00364A                     
  3386                           ;Principal.c: 83:             _delay((unsigned long)((200)*(8000000/4000.0)));
  3387  00364A  0E03               	movlw	3
  3388  00364C  0100               	movlb	0	; () banked
  3389  00364E  6FF0               	movwf	(??_mostrar_estadisticas+1)& (0+255),b
  3390  003650  0E08               	movlw	8
  3391  003652  6FEF               	movwf	??_mostrar_estadisticas& (0+255),b
  3392  003654  0E77               	movlw	119
  3393  003656                     u5747:
  3394  003656  2EE8               	decfsz	wreg,f,c
  3395  003658  D7FE               	bra	u5747
  3396  00365A  2FEF               	decfsz	??_mostrar_estadisticas& (0+255),f,b
  3397  00365C  D7FC               	bra	u5747
  3398  00365E  2FF0               	decfsz	(??_mostrar_estadisticas+1)& (0+255),f,b
  3399  003660  D7FA               	bra	u5747
  3400  003662                     
  3401                           ;Principal.c: 84:             estado = 1;
  3402  003662  0E00               	movlw	0
  3403  003664  0102               	movlb	2	; () banked
  3404  003666  6F37               	movwf	(_estado+1)& (0+255),b
  3405  003668  0E01               	movlw	1
  3406  00366A  6F36               	movwf	_estado& (0+255),b
  3407  00366C                     
  3408                           ; BSR set to: 2
  3409                           ;Principal.c: 85:             _delay((unsigned long)((10)*(8000000/4000.0)));
  3410  00366C  0E1A               	movlw	26
  3411  00366E  0100               	movlb	0	; () banked
  3412  003670  6FEF               	movwf	??_mostrar_estadisticas& (0+255),b
  3413  003672  0EF8               	movlw	248
  3414  003674                     u5757:
  3415  003674  2EE8               	decfsz	wreg,f,c
  3416  003676  D7FE               	bra	u5757
  3417  003678  2FEF               	decfsz	??_mostrar_estadisticas& (0+255),f,b
  3418  00367A  D7FC               	bra	u5757
  3419  00367C  F000               	nop	
  3420  00367E  0012               	return		;funcret
  3421  003680                     __end_of_mostrar_estadisticas:
  3422                           	callstack 0
  3423                           
  3424 ;; *************** function _iniciar_emoticones *****************
  3425 ;; Defined at:
  3426 ;;		line 124 in file "Principal.c"
  3427 ;; Parameters:    Size  Location     Type
  3428 ;;		None
  3429 ;; Auto vars:     Size  Location     Type
  3430 ;;  todo_bien       8   30[COMRAM] unsigned char [8]
  3431 ;;  luz             8   22[COMRAM] unsigned char [8]
  3432 ;;  distancia       8   14[COMRAM] unsigned char [8]
  3433 ;;  temperatura     8    6[COMRAM] unsigned char [8]
  3434 ;; Return value:  Size  Location     Type
  3435 ;;                  1    wreg      void 
  3436 ;; Registers used:
  3437 ;;		wreg, fsr1l, fsr1h, fsr2l, fsr2h, status,2, status,0, prodl, prodh, cstack
  3438 ;; Tracked objects:
  3439 ;;		On entry : 0/0
  3440 ;;		On exit  : 0/0
  3441 ;;		Unchanged: 0/0
  3442 ;; Data sizes:     COMRAM   BANK0   BANK1   BANK2   BANK3   BANK4   BANK5   BANK6   BANK7
  3443 ;;      Params:         0       0       0       0       0       0       0       0       0
  3444 ;;      Locals:        32       0       0       0       0       0       0       0       0
  3445 ;;      Temps:          0       0       0       0       0       0       0       0       0
  3446 ;;      Totals:        32       0       0       0       0       0       0       0       0
  3447 ;;Total ram usage:       32 bytes
  3448 ;; Hardware stack levels used: 1
  3449 ;; Hardware stack levels required when called: 2
  3450 ;; This function calls:
  3451 ;;		_LCD_Custom_Char
  3452 ;; This function is called by:
  3453 ;;		_mostrar_estadisticas
  3454 ;; This function uses a non-reentrant model
  3455 ;;
  3456                           
  3457                           	psect	text15
  3458  0032A8                     __ptext15:
  3459                           	callstack 0
  3460  0032A8                     _iniciar_emoticones:
  3461                           	callstack 27
  3462  0032A8                     
  3463                           ;Principal.c: 127:     unsigned char temperatura[8] = {
  3464  0032A8  EE21  F0C8         	lfsr	2,iniciar_emoticones@F3817
  3465  0032AC  EE10  F007         	lfsr	1,iniciar_emoticones@temperatura
  3466  0032B0  0E07               	movlw	7
  3467  0032B2                     u4861:
  3468  0032B2  CFDB FFE3          	movff	plusw2,plusw1
  3469  0032B6  06E8               	decf	wreg,f,c
  3470  0032B8  E2FC               	bc	u4861
  3471                           
  3472                           ;Principal.c: 138:     unsigned char distancia[8] = {
  3473  0032BA  EE22  F0CA         	lfsr	2,iniciar_emoticones@F3819
  3474  0032BE  EE10  F00F         	lfsr	1,iniciar_emoticones@distancia
  3475  0032C2  0E07               	movlw	7
  3476  0032C4                     u4871:
  3477  0032C4  CFDB FFE3          	movff	plusw2,plusw1
  3478  0032C8  06E8               	decf	wreg,f,c
  3479  0032CA  E2FC               	bc	u4871
  3480                           
  3481                           ;Principal.c: 149:     unsigned char luz[8] = {
  3482  0032CC  EE22  F0C2         	lfsr	2,iniciar_emoticones@F3821
  3483  0032D0  EE10  F017         	lfsr	1,iniciar_emoticones@luz
  3484  0032D4  0E07               	movlw	7
  3485  0032D6                     u4881:
  3486  0032D6  CFDB FFE3          	movff	plusw2,plusw1
  3487  0032DA  06E8               	decf	wreg,f,c
  3488  0032DC  E2FC               	bc	u4881
  3489                           
  3490                           ;Principal.c: 160:     unsigned char todo_bien[8] = {
  3491  0032DE  EE22  F0BA         	lfsr	2,iniciar_emoticones@F3823
  3492  0032E2  EE10  F01F         	lfsr	1,iniciar_emoticones@todo_bien
  3493  0032E6  0E07               	movlw	7
  3494  0032E8                     u4891:
  3495  0032E8  CFDB FFE3          	movff	plusw2,plusw1
  3496  0032EC  06E8               	decf	wreg,f,c
  3497  0032EE  E2FC               	bc	u4891
  3498  0032F0                     
  3499                           ;Principal.c: 172:     LCD_Custom_Char(4, todo_bien);
  3500  0032F0  0E1F               	movlw	low iniciar_emoticones@todo_bien
  3501  0032F2  6E03               	movwf	LCD_Custom_Char@msg^0,c
  3502  0032F4  0E00               	movlw	high iniciar_emoticones@todo_bien
  3503  0032F6  6E04               	movwf	(LCD_Custom_Char@msg+1)^0,c
  3504  0032F8  0E04               	movlw	4
  3505  0032FA  EC38  F01D         	call	_LCD_Custom_Char
  3506  0032FE                     
  3507                           ;Principal.c: 173:     LCD_Custom_Char(5, temperatura);
  3508  0032FE  0E07               	movlw	low iniciar_emoticones@temperatura
  3509  003300  6E03               	movwf	LCD_Custom_Char@msg^0,c
  3510  003302  0E00               	movlw	high iniciar_emoticones@temperatura
  3511  003304  6E04               	movwf	(LCD_Custom_Char@msg+1)^0,c
  3512  003306  0E05               	movlw	5
  3513  003308  EC38  F01D         	call	_LCD_Custom_Char
  3514  00330C                     
  3515                           ;Principal.c: 174:     LCD_Custom_Char(6, distancia);
  3516  00330C  0E0F               	movlw	low iniciar_emoticones@distancia
  3517  00330E  6E03               	movwf	LCD_Custom_Char@msg^0,c
  3518  003310  0E00               	movlw	high iniciar_emoticones@distancia
  3519  003312  6E04               	movwf	(LCD_Custom_Char@msg+1)^0,c
  3520  003314  0E06               	movlw	6
  3521  003316  EC38  F01D         	call	_LCD_Custom_Char
  3522  00331A                     
  3523                           ;Principal.c: 175:     LCD_Custom_Char(7, luz);
  3524  00331A  0E17               	movlw	low iniciar_emoticones@luz
  3525  00331C  6E03               	movwf	LCD_Custom_Char@msg^0,c
  3526  00331E  0E00               	movlw	high iniciar_emoticones@luz
  3527  003320  6E04               	movwf	(LCD_Custom_Char@msg+1)^0,c
  3528  003322  0E07               	movlw	7
  3529  003324  EC38  F01D         	call	_LCD_Custom_Char
  3530  003328  0012               	return		;funcret
  3531  00332A                     __end_of_iniciar_emoticones:
  3532                           	callstack 0
  3533                           
  3534 ;; *************** function _LCD_Custom_Char *****************
  3535 ;; Defined at:
  3536 ;;		line 154 in file "LCD.c"
  3537 ;; Parameters:    Size  Location     Type
  3538 ;;  loc             1    wreg     unsigned char 
  3539 ;;  msg             2    2[COMRAM] PTR unsigned char 
  3540 ;;		 -> iniciar_emoticones@todo_bien(8), iniciar_emoticones@luz(8), iniciar_emoticones@distancia(8), iniciar_emoticones@
      +temperatura(8), 
  3541 ;; Auto vars:     Size  Location     Type
  3542 ;;  loc             1    4[COMRAM] unsigned char 
  3543 ;;  i               1    5[COMRAM] unsigned char 
  3544 ;; Return value:  Size  Location     Type
  3545 ;;                  1    wreg      void 
  3546 ;; Registers used:
  3547 ;;		wreg, fsr2l, fsr2h, status,2, status,0, prodl, prodh, cstack
  3548 ;; Tracked objects:
  3549 ;;		On entry : 0/0
  3550 ;;		On exit  : 0/0
  3551 ;;		Unchanged: 0/0
  3552 ;; Data sizes:     COMRAM   BANK0   BANK1   BANK2   BANK3   BANK4   BANK5   BANK6   BANK7
  3553 ;;      Params:         2       0       0       0       0       0       0       0       0
  3554 ;;      Locals:         2       0       0       0       0       0       0       0       0
  3555 ;;      Temps:          0       0       0       0       0       0       0       0       0
  3556 ;;      Totals:         4       0       0       0       0       0       0       0       0
  3557 ;;Total ram usage:        4 bytes
  3558 ;; Hardware stack levels used: 1
  3559 ;; Hardware stack levels required when called: 1
  3560 ;; This function calls:
  3561 ;;		_LCD_Char
  3562 ;;		_LCD_Command
  3563 ;; This function is called by:
  3564 ;;		_iniciar_emoticones
  3565 ;; This function uses a non-reentrant model
  3566 ;;
  3567                           
  3568                           	psect	text16
  3569  003A70                     __ptext16:
  3570                           	callstack 0
  3571  003A70                     _LCD_Custom_Char:
  3572                           	callstack 27
  3573                           
  3574                           ;incstack = 0
  3575                           ;LCD_Custom_Char@loc stored from wreg
  3576  003A70  6E05               	movwf	LCD_Custom_Char@loc^0,c
  3577  003A72                     
  3578                           ;LCD.c: 156:     unsigned char i;;LCD.c: 157:     if (loc < 8) {
  3579  003A72  0E08               	movlw	8
  3580  003A74  6005               	cpfslt	LCD_Custom_Char@loc^0,c
  3581  003A76  EF3F  F01D         	goto	u4701
  3582  003A7A  EF41  F01D         	goto	u4700
  3583  003A7E                     u4701:
  3584  003A7E  EF5B  F01D         	goto	l239
  3585  003A82                     u4700:
  3586  003A82                     
  3587                           ;LCD.c: 158:         LCD_Command(0x40 + (loc * 8));
  3588  003A82  5005               	movf	LCD_Custom_Char@loc^0,w,c
  3589  003A84  0D08               	mullw	8
  3590  003A86  50F3               	movf	243,w,c
  3591  003A88  0F40               	addlw	64
  3592  003A8A  EC9F  F01C         	call	_LCD_Command
  3593  003A8E                     
  3594                           ;LCD.c: 159:         for (i = 0; i < 8; i++)
  3595  003A8E  0E00               	movlw	0
  3596  003A90  6E06               	movwf	LCD_Custom_Char@i^0,c
  3597  003A92                     l4656:
  3598                           
  3599                           ;LCD.c: 160:             LCD_Char(msg[i]);
  3600  003A92  5006               	movf	LCD_Custom_Char@i^0,w,c
  3601  003A94  2403               	addwf	LCD_Custom_Char@msg^0,w,c
  3602  003A96  6ED9               	movwf	fsr2l,c
  3603  003A98  0E00               	movlw	0
  3604  003A9A  2004               	addwfc	(LCD_Custom_Char@msg+1)^0,w,c
  3605  003A9C  6EDA               	movwf	fsr2h,c
  3606  003A9E  50DF               	movf	indf2,w,c
  3607  003AA0  EC77  F01C         	call	_LCD_Char
  3608  003AA4  2A06               	incf	LCD_Custom_Char@i^0,f,c
  3609  003AA6  0E07               	movlw	7
  3610  003AA8  6406               	cpfsgt	LCD_Custom_Char@i^0,c
  3611  003AAA  EF59  F01D         	goto	u4711
  3612  003AAE  EF5B  F01D         	goto	u4710
  3613  003AB2                     u4711:
  3614  003AB2  EF49  F01D         	goto	l4656
  3615  003AB6                     u4710:
  3616  003AB6                     l239:
  3617  003AB6  0012               	return		;funcret
  3618  003AB8                     __end_of_LCD_Custom_Char:
  3619                           	callstack 0
  3620                           
  3621 ;; *************** function _imprimir *****************
  3622 ;; Defined at:
  3623 ;;		line 188 in file "Principal.c"
  3624 ;; Parameters:    Size  Location     Type
  3625 ;;  dist            2   26[BANK0 ] int 
  3626 ;;  temp            2   28[BANK0 ] int 
  3627 ;;  luz             2   30[BANK0 ] int 
  3628 ;; Auto vars:     Size  Location     Type
  3629 ;;  aux_luz        16   66[BANK0 ] unsigned char [16]
  3630 ;;  aux_temp       16   50[BANK0 ] unsigned char [16]
  3631 ;;  aux_dist       16   34[BANK0 ] unsigned char [16]
  3632 ;; Return value:  Size  Location     Type
  3633 ;;                  1    wreg      void 
  3634 ;; Registers used:
  3635 ;;		wreg, fsr1l, fsr1h, fsr2l, fsr2h, status,2, status,0, tblptrl, tblptrh, tblptru, cstack
  3636 ;; Tracked objects:
  3637 ;;		On entry : 0/0
  3638 ;;		On exit  : 0/0
  3639 ;;		Unchanged: 0/0
  3640 ;; Data sizes:     COMRAM   BANK0   BANK1   BANK2   BANK3   BANK4   BANK5   BANK6   BANK7
  3641 ;;      Params:         0       6       0       0       0       0       0       0       0
  3642 ;;      Locals:         0      48       0       0       0       0       0       0       0
  3643 ;;      Temps:          0       2       0       0       0       0       0       0       0
  3644 ;;      Totals:         0      56       0       0       0       0       0       0       0
  3645 ;;Total ram usage:       56 bytes
  3646 ;; Hardware stack levels used: 1
  3647 ;; Hardware stack levels required when called: 8
  3648 ;; This function calls:
  3649 ;;		_LCD_Clear
  3650 ;;		_LCD_Command
  3651 ;;		_LCD_String_xy
  3652 ;;		_sprintf
  3653 ;; This function is called by:
  3654 ;;		_mostrar_estadisticas
  3655 ;; This function uses a non-reentrant model
  3656 ;;
  3657                           
  3658                           	psect	text17
  3659  002CC8                     __ptext17:
  3660                           	callstack 0
  3661  002CC8                     _imprimir:
  3662                           	callstack 21
  3663  002CC8                     
  3664                           ;Principal.c: 191:     LCD_String_xy(0, 0, "D:T:L:");
  3665  002CC8  0E00               	movlw	0
  3666  002CCA  6E05               	movwf	LCD_String_xy@pos^0,c
  3667  002CCC  0EB2               	movlw	low STR_1
  3668  002CCE  6E06               	movwf	LCD_String_xy@msg^0,c
  3669  002CD0  0E08               	movlw	high STR_1
  3670  002CD2  6E07               	movwf	(LCD_String_xy@msg+1)^0,c
  3671  002CD4  0E00               	movlw	0
  3672  002CD6  ECC2  F01D         	call	_LCD_String_xy
  3673  002CDA                     
  3674                           ;Principal.c: 193:     char aux_dist[16] = "";
  3675  002CDA  EE20  F082         	lfsr	2,imprimir@aux_dist
  3676  002CDE  0E0F               	movlw	15
  3677  002CE0                     u4901:
  3678  002CE0  6ADE               	clrf	postinc2,c
  3679  002CE2  06E8               	decf	wreg,f,c
  3680  002CE4  E2FD               	bc	u4901
  3681  002CE6                     
  3682                           ;Principal.c: 194:     sprintf(aux_dist, "%dcm", dist);
  3683  002CE6  0E82               	movlw	low imprimir@aux_dist
  3684  002CE8  0100               	movlb	0	; () banked
  3685  002CEA  6F68               	movwf	sprintf@s& (0+255),b
  3686  002CEC  0E00               	movlw	high imprimir@aux_dist
  3687  002CEE  6F69               	movwf	(sprintf@s+1)& (0+255),b
  3688  002CF0  0EB9               	movlw	low STR_2
  3689  002CF2  6F6A               	movwf	sprintf@fmt& (0+255),b
  3690  002CF4  0E08               	movlw	high STR_2
  3691  002CF6  6F6B               	movwf	(sprintf@fmt+1)& (0+255),b
  3692  002CF8  C07A  F06C         	movff	imprimir@dist,?_sprintf+4
  3693  002CFC  C07B  F06D         	movff	imprimir@dist+1,?_sprintf+5
  3694  002D00  EC26  F01C         	call	_sprintf	;wreg free
  3695  002D04                     
  3696                           ;Principal.c: 196:     char aux_temp[16] = "";
  3697  002D04  EE20  F092         	lfsr	2,imprimir@aux_temp
  3698  002D08  0E0F               	movlw	15
  3699  002D0A                     u4911:
  3700  002D0A  6ADE               	clrf	postinc2,c
  3701  002D0C  06E8               	decf	wreg,f,c
  3702  002D0E  E2FD               	bc	u4911
  3703  002D10                     
  3704                           ;Principal.c: 197:     sprintf(aux_temp, "%dG", temp);
  3705  002D10  0E92               	movlw	low imprimir@aux_temp
  3706  002D12  0100               	movlb	0	; () banked
  3707  002D14  6F68               	movwf	sprintf@s& (0+255),b
  3708  002D16  0E00               	movlw	high imprimir@aux_temp
  3709  002D18  6F69               	movwf	(sprintf@s+1)& (0+255),b
  3710  002D1A  0EBE               	movlw	low STR_3
  3711  002D1C  6F6A               	movwf	sprintf@fmt& (0+255),b
  3712  002D1E  0E08               	movlw	high STR_3
  3713  002D20  6F6B               	movwf	(sprintf@fmt+1)& (0+255),b
  3714  002D22  C07C  F06C         	movff	imprimir@temp,?_sprintf+4
  3715  002D26  C07D  F06D         	movff	imprimir@temp+1,?_sprintf+5
  3716  002D2A  EC26  F01C         	call	_sprintf	;wreg free
  3717  002D2E                     
  3718                           ;Principal.c: 199:     char aux_luz[16] = "";
  3719  002D2E  EE20  F0A2         	lfsr	2,imprimir@aux_luz
  3720  002D32  0E0F               	movlw	15
  3721  002D34                     u4921:
  3722  002D34  6ADE               	clrf	postinc2,c
  3723  002D36  06E8               	decf	wreg,f,c
  3724  002D38  E2FD               	bc	u4921
  3725  002D3A                     
  3726                           ;Principal.c: 200:     sprintf(aux_luz, "%dP", luz);
  3727  002D3A  0EA2               	movlw	low imprimir@aux_luz
  3728  002D3C  0100               	movlb	0	; () banked
  3729  002D3E  6F68               	movwf	sprintf@s& (0+255),b
  3730  002D40  0E00               	movlw	high imprimir@aux_luz
  3731  002D42  6F69               	movwf	(sprintf@s+1)& (0+255),b
  3732  002D44  0EC2               	movlw	low STR_4
  3733  002D46  6F6A               	movwf	sprintf@fmt& (0+255),b
  3734  002D48  0E08               	movlw	high STR_4
  3735  002D4A  6F6B               	movwf	(sprintf@fmt+1)& (0+255),b
  3736  002D4C  C07E  F06C         	movff	imprimir@luz,?_sprintf+4
  3737  002D50  C07F  F06D         	movff	imprimir@luz+1,?_sprintf+5
  3738  002D54  EC26  F01C         	call	_sprintf	;wreg free
  3739  002D58                     
  3740                           ;Principal.c: 202:     LCD_Command(0xC0);
  3741  002D58  0EC0               	movlw	192
  3742  002D5A  EC9F  F01C         	call	_LCD_Command
  3743  002D5E                     
  3744                           ;Principal.c: 203:     LCD_String_xy(3, 0, aux_dist);
  3745  002D5E  0E00               	movlw	0
  3746  002D60  6E05               	movwf	LCD_String_xy@pos^0,c
  3747  002D62  0E82               	movlw	low imprimir@aux_dist
  3748  002D64  6E06               	movwf	LCD_String_xy@msg^0,c
  3749  002D66  0E00               	movlw	high imprimir@aux_dist
  3750  002D68  6E07               	movwf	(LCD_String_xy@msg+1)^0,c
  3751  002D6A  0E03               	movlw	3
  3752  002D6C  ECC2  F01D         	call	_LCD_String_xy
  3753  002D70                     
  3754                           ;Principal.c: 204:     LCD_String_xy(3, 6, aux_temp);
  3755  002D70  0E06               	movlw	6
  3756  002D72  6E05               	movwf	LCD_String_xy@pos^0,c
  3757  002D74  0E92               	movlw	low imprimir@aux_temp
  3758  002D76  6E06               	movwf	LCD_String_xy@msg^0,c
  3759  002D78  0E00               	movlw	high imprimir@aux_temp
  3760  002D7A  6E07               	movwf	(LCD_String_xy@msg+1)^0,c
  3761  002D7C  0E03               	movlw	3
  3762  002D7E  ECC2  F01D         	call	_LCD_String_xy
  3763  002D82                     
  3764                           ;Principal.c: 205:     LCD_String_xy(3, 11, aux_luz);
  3765  002D82  0E0B               	movlw	11
  3766  002D84  6E05               	movwf	LCD_String_xy@pos^0,c
  3767  002D86  0EA2               	movlw	low imprimir@aux_luz
  3768  002D88  6E06               	movwf	LCD_String_xy@msg^0,c
  3769  002D8A  0E00               	movlw	high imprimir@aux_luz
  3770  002D8C  6E07               	movwf	(LCD_String_xy@msg+1)^0,c
  3771  002D8E  0E03               	movlw	3
  3772  002D90  ECC2  F01D         	call	_LCD_String_xy
  3773  002D94                     
  3774                           ;Principal.c: 206:     _delay((unsigned long)((900)*(8000000/4000.0)));
  3775  002D94  0E0A               	movlw	10
  3776  002D96  0100               	movlb	0	; () banked
  3777  002D98  6F81               	movwf	(??_imprimir+1)& (0+255),b
  3778  002D9A  0E22               	movlw	34
  3779  002D9C  6F80               	movwf	??_imprimir& (0+255),b
  3780  002D9E  0EA1               	movlw	161
  3781  002DA0                     u5767:
  3782  002DA0  2EE8               	decfsz	wreg,f,c
  3783  002DA2  D7FE               	bra	u5767
  3784  002DA4  2F80               	decfsz	??_imprimir& (0+255),f,b
  3785  002DA6  D7FC               	bra	u5767
  3786  002DA8  2F81               	decfsz	(??_imprimir+1)& (0+255),f,b
  3787  002DAA  D7FA               	bra	u5767
  3788  002DAC                     
  3789                           ;Principal.c: 207:     LCD_Clear();
  3790  002DAC  EC97  F020         	call	_LCD_Clear	;wreg free
  3791  002DB0  0012               	return		;funcret
  3792  002DB2                     __end_of_imprimir:
  3793                           	callstack 0
  3794                           
  3795 ;; *************** function _LCD_String_xy *****************
  3796 ;; Defined at:
  3797 ;;		line 98 in file "LCD.c"
  3798 ;; Parameters:    Size  Location     Type
  3799 ;;  row             1    wreg     unsigned char 
  3800 ;;  pos             1    4[COMRAM] unsigned char 
  3801 ;;  msg             2    5[COMRAM] PTR const unsigned char 
  3802 ;;		 -> Reloj_Calendario@Date_var(17), Reloj_Calendario@Time(15), imprimir@aux_luz(16), imprimir@aux_temp(16), 
  3803 ;;		 -> imprimir@aux_dist(16), STR_1(7), 
  3804 ;; Auto vars:     Size  Location     Type
  3805 ;;  row             1    7[COMRAM] unsigned char 
  3806 ;;  location        1    8[COMRAM] unsigned char 
  3807 ;; Return value:  Size  Location     Type
  3808 ;;                  1    wreg      void 
  3809 ;; Registers used:
  3810 ;;		wreg, fsr1l, fsr1h, status,2, status,0, tblptrl, tblptrh, tblptru, cstack
  3811 ;; Tracked objects:
  3812 ;;		On entry : 0/0
  3813 ;;		On exit  : 0/0
  3814 ;;		Unchanged: 0/0
  3815 ;; Data sizes:     COMRAM   BANK0   BANK1   BANK2   BANK3   BANK4   BANK5   BANK6   BANK7
  3816 ;;      Params:         3       0       0       0       0       0       0       0       0
  3817 ;;      Locals:         2       0       0       0       0       0       0       0       0
  3818 ;;      Temps:          0       0       0       0       0       0       0       0       0
  3819 ;;      Totals:         5       0       0       0       0       0       0       0       0
  3820 ;;Total ram usage:        5 bytes
  3821 ;; Hardware stack levels used: 1
  3822 ;; Hardware stack levels required when called: 2
  3823 ;; This function calls:
  3824 ;;		_LCD_Command
  3825 ;;		_LCD_String
  3826 ;; This function is called by:
  3827 ;;		_imprimir
  3828 ;;		_Reloj_Calendario
  3829 ;; This function uses a non-reentrant model
  3830 ;;
  3831                           
  3832                           	psect	text18
  3833  003B84                     __ptext18:
  3834                           	callstack 0
  3835  003B84                     _LCD_String_xy:
  3836                           	callstack 25
  3837                           
  3838                           ;incstack = 0
  3839                           ;LCD_String_xy@row stored from wreg
  3840  003B84  6E08               	movwf	LCD_String_xy@row^0,c
  3841  003B86                     
  3842                           ;LCD.c: 100:     if (row <= 1) {
  3843  003B86  0E02               	movlw	2
  3844  003B88  6008               	cpfslt	LCD_String_xy@row^0,c
  3845  003B8A  EFC9  F01D         	goto	u3871
  3846  003B8E  EFCB  F01D         	goto	u3870
  3847  003B92                     u3871:
  3848  003B92  EFD4  F01D         	goto	l4072
  3849  003B96                     u3870:
  3850  003B96                     
  3851                           ;LCD.c: 101:         location = (0x80) | ((pos) & 0x0f);
  3852  003B96  5005               	movf	LCD_String_xy@pos^0,w,c
  3853  003B98  0B0F               	andlw	15
  3854  003B9A  0980               	iorlw	128
  3855  003B9C  6E09               	movwf	LCD_String_xy@location^0,c
  3856  003B9E                     
  3857                           ;LCD.c: 102:         LCD_Command(location);
  3858  003B9E  5009               	movf	LCD_String_xy@location^0,w,c
  3859  003BA0  EC9F  F01C         	call	_LCD_Command
  3860                           
  3861                           ;LCD.c: 103:     } else {
  3862  003BA4  EFDB  F01D         	goto	l4076
  3863  003BA8                     l4072:
  3864                           
  3865                           ;LCD.c: 104:         location = (0xc0) | ((pos) & 0x0f);
  3866  003BA8  5005               	movf	LCD_String_xy@pos^0,w,c
  3867  003BAA  0B0F               	andlw	15
  3868  003BAC  09C0               	iorlw	192
  3869  003BAE  6E09               	movwf	LCD_String_xy@location^0,c
  3870  003BB0                     
  3871                           ;LCD.c: 105:         LCD_Command(location);
  3872  003BB0  5009               	movf	LCD_String_xy@location^0,w,c
  3873  003BB2  EC9F  F01C         	call	_LCD_Command
  3874  003BB6                     l4076:
  3875                           
  3876                           ;LCD.c: 108:     LCD_String(msg);
  3877  003BB6  C006  F003         	movff	LCD_String_xy@msg,LCD_String@msg
  3878  003BBA  C007  F004         	movff	LCD_String_xy@msg+1,LCD_String@msg+1
  3879  003BBE  EC71  F01B         	call	_LCD_String	;wreg free
  3880  003BC2  0012               	return		;funcret
  3881  003BC4                     __end_of_LCD_String_xy:
  3882                           	callstack 0
  3883                           
  3884 ;; *************** function _LCD_String *****************
  3885 ;; Defined at:
  3886 ;;		line 83 in file "LCD.c"
  3887 ;; Parameters:    Size  Location     Type
  3888 ;;  msg             2    2[COMRAM] PTR const unsigned char 
  3889 ;;		 -> Reloj_Calendario@Date_var(17), Reloj_Calendario@Time(15), imprimir@aux_luz(16), imprimir@aux_temp(16), 
  3890 ;;		 -> imprimir@aux_dist(16), STR_1(7), 
  3891 ;; Auto vars:     Size  Location     Type
  3892 ;;		None
  3893 ;; Return value:  Size  Location     Type
  3894 ;;                  1    wreg      void 
  3895 ;; Registers used:
  3896 ;;		wreg, fsr1l, fsr1h, status,2, status,0, tblptrl, tblptrh, tblptru, cstack
  3897 ;; Tracked objects:
  3898 ;;		On entry : 0/0
  3899 ;;		On exit  : 0/0
  3900 ;;		Unchanged: 0/0
  3901 ;; Data sizes:     COMRAM   BANK0   BANK1   BANK2   BANK3   BANK4   BANK5   BANK6   BANK7
  3902 ;;      Params:         2       0       0       0       0       0       0       0       0
  3903 ;;      Locals:         0       0       0       0       0       0       0       0       0
  3904 ;;      Temps:          0       0       0       0       0       0       0       0       0
  3905 ;;      Totals:         2       0       0       0       0       0       0       0       0
  3906 ;;Total ram usage:        2 bytes
  3907 ;; Hardware stack levels used: 1
  3908 ;; Hardware stack levels required when called: 1
  3909 ;; This function calls:
  3910 ;;		_LCD_Char
  3911 ;; This function is called by:
  3912 ;;		_LCD_String_xy
  3913 ;; This function uses a non-reentrant model
  3914 ;;
  3915                           
  3916                           	psect	text19
  3917  0036E2                     __ptext19:
  3918                           	callstack 0
  3919  0036E2                     _LCD_String:
  3920                           	callstack 25
  3921  0036E2                     
  3922                           ;LCD.c: 84:     while ((*msg) != 0) {
  3923  0036E2  EF87  F01B         	goto	l4044
  3924  0036E6                     l4040:
  3925                           
  3926                           ;LCD.c: 85:         LCD_Char(*msg);
  3927  0036E6  C003  FFF6         	movff	LCD_String@msg,tblptrl
  3928  0036EA  C004  FFF7         	movff	LCD_String@msg+1,tblptrh
  3929  0036EE  6AF8               	clrf	tblptru,c
  3930  0036F0  0E07               	movlw	(high __ramtop+-1)
  3931  0036F2  64F7               	cpfsgt	tblptrh,c
  3932  0036F4  D003               	bra	u3837
  3933  0036F6  0008               	tblrd		*
  3934  0036F8  50F5               	movf	tablat,w,c
  3935  0036FA  D005               	bra	u3830
  3936  0036FC                     u3837:
  3937  0036FC  CFF6 FFE1          	movff	tblptrl,fsr1l
  3938  003700  CFF7 FFE2          	movff	tblptrh,fsr1h
  3939  003704  50E7               	movf	indf1,w,c
  3940  003706                     u3830:
  3941  003706  EC77  F01C         	call	_LCD_Char
  3942  00370A                     
  3943                           ;LCD.c: 86:         msg++;
  3944  00370A  4A03               	infsnz	LCD_String@msg^0,f,c
  3945  00370C  2A04               	incf	(LCD_String@msg+1)^0,f,c
  3946  00370E                     l4044:
  3947                           
  3948                           ;LCD.c: 84:     while ((*msg) != 0) {
  3949  00370E  C003  FFF6         	movff	LCD_String@msg,tblptrl
  3950  003712  C004  FFF7         	movff	LCD_String@msg+1,tblptrh
  3951  003716  6AF8               	clrf	tblptru,c
  3952  003718  0E07               	movlw	(high __ramtop+-1)
  3953  00371A  64F7               	cpfsgt	tblptrh,c
  3954  00371C  D003               	bra	u3847
  3955  00371E  0008               	tblrd		*
  3956  003720  50F5               	movf	tablat,w,c
  3957  003722  D005               	bra	u3840
  3958  003724                     u3847:
  3959  003724  CFF6 FFE1          	movff	tblptrl,fsr1l
  3960  003728  CFF7 FFE2          	movff	tblptrh,fsr1h
  3961  00372C  50E7               	movf	indf1,w,c
  3962  00372E                     u3840:
  3963  00372E  0900               	iorlw	0
  3964  003730  A4D8               	btfss	status,2,c
  3965  003732  EF9D  F01B         	goto	u3851
  3966  003736  EF9F  F01B         	goto	u3850
  3967  00373A                     u3851:
  3968  00373A  EF73  F01B         	goto	l4040
  3969  00373E                     u3850:
  3970  00373E  0012               	return		;funcret
  3971  003740                     __end_of_LCD_String:
  3972                           	callstack 0
  3973                           
  3974 ;; *************** function _LCD_Clear *****************
  3975 ;; Defined at:
  3976 ;;		line 133 in file "LCD.c"
  3977 ;; Parameters:    Size  Location     Type
  3978 ;;		None
  3979 ;; Auto vars:     Size  Location     Type
  3980 ;;		None
  3981 ;; Return value:  Size  Location     Type
  3982 ;;                  1    wreg      void 
  3983 ;; Registers used:
  3984 ;;		wreg, status,2, status,0, cstack
  3985 ;; Tracked objects:
  3986 ;;		On entry : 0/0
  3987 ;;		On exit  : 0/0
  3988 ;;		Unchanged: 0/0
  3989 ;; Data sizes:     COMRAM   BANK0   BANK1   BANK2   BANK3   BANK4   BANK5   BANK6   BANK7
  3990 ;;      Params:         0       0       0       0       0       0       0       0       0
  3991 ;;      Locals:         0       0       0       0       0       0       0       0       0
  3992 ;;      Temps:          0       0       0       0       0       0       0       0       0
  3993 ;;      Totals:         0       0       0       0       0       0       0       0       0
  3994 ;;Total ram usage:        0 bytes
  3995 ;; Hardware stack levels used: 1
  3996 ;; Hardware stack levels required when called: 1
  3997 ;; This function calls:
  3998 ;;		_LCD_Command
  3999 ;; This function is called by:
  4000 ;;		_mostrar_estadisticas
  4001 ;;		_mostrar_hora
  4002 ;;		_imprimir
  4003 ;; This function uses a non-reentrant model
  4004 ;;
  4005                           
  4006                           	psect	text20
  4007  00412E                     __ptext20:
  4008                           	callstack 0
  4009  00412E                     _LCD_Clear:
  4010                           	callstack 28
  4011  00412E                     
  4012                           ;LCD.c: 134:     LCD_Command(0x01);
  4013  00412E  0E01               	movlw	1
  4014  004130  EC9F  F01C         	call	_LCD_Command
  4015  004134  0012               	return		;funcret
  4016  004136                     __end_of_LCD_Clear:
  4017                           	callstack 0
  4018                           
  4019 ;; *************** function _establecer_valores *****************
  4020 ;; Defined at:
  4021 ;;		line 103 in file "Principal.c"
  4022 ;; Parameters:    Size  Location     Type
  4023 ;;		None
  4024 ;; Auto vars:     Size  Location     Type
  4025 ;;		None
  4026 ;; Return value:  Size  Location     Type
  4027 ;;                  1    wreg      void 
  4028 ;; Registers used:
  4029 ;;		wreg, fsr1l, fsr1h, fsr2l, fsr2h, status,2, status,0, tblptrl, tblptrh, tblptru, prodl, prodh, cstack
  4030 ;; Tracked objects:
  4031 ;;		On entry : 0/0
  4032 ;;		On exit  : 0/0
  4033 ;;		Unchanged: 0/0
  4034 ;; Data sizes:     COMRAM   BANK0   BANK1   BANK2   BANK3   BANK4   BANK5   BANK6   BANK7
  4035 ;;      Params:         0       0       0       0       0       0       0       0       0
  4036 ;;      Locals:         0       0       0       0       0       0       0       0       0
  4037 ;;      Temps:          0       0       0       0       0       0       0       0       0
  4038 ;;      Totals:         0       0       0       0       0       0       0       0       0
  4039 ;;Total ram usage:        0 bytes
  4040 ;; Hardware stack levels used: 1
  4041 ;; Hardware stack levels required when called: 12
  4042 ;; This function calls:
  4043 ;;		_encender_leds
  4044 ;;		_sensor_distancia
  4045 ;;		_sensor_luz
  4046 ;;		_sensor_temperatura
  4047 ;;		_validar
  4048 ;; This function is called by:
  4049 ;;		_mostrar_estadisticas
  4050 ;;		_mostrar_hora
  4051 ;; This function uses a non-reentrant model
  4052 ;;
  4053                           
  4054                           	psect	text21
  4055  00398E                     __ptext21:
  4056                           	callstack 0
  4057  00398E                     _establecer_valores:
  4058                           	callstack 17
  4059  00398E                     
  4060                           ;Principal.c: 104:     s_dist = sensor_distancia();
  4061  00398E  EC0B  F019         	call	_sensor_distancia	;wreg free
  4062  003992  C005  F234         	movff	?_sensor_distancia,_s_dist
  4063  003996  C006  F235         	movff	?_sensor_distancia+1,_s_dist+1
  4064  00399A                     
  4065                           ;Principal.c: 105:     s_temp = sensor_temperatura();
  4066  00399A  EC55  F01A         	call	_sensor_temperatura	;wreg free
  4067  00399E  C032  F232         	movff	?_sensor_temperatura,_s_temp
  4068  0039A2  C033  F233         	movff	?_sensor_temperatura+1,_s_temp+1
  4069  0039A6                     
  4070                           ;Principal.c: 106:     s_luz = sensor_luz();
  4071  0039A6  ECD6  F019         	call	_sensor_luz	;wreg free
  4072  0039AA  C00E  F230         	movff	?_sensor_luz,_s_luz
  4073  0039AE  C00F  F231         	movff	?_sensor_luz+1,_s_luz+1
  4074  0039B2                     
  4075                           ;Principal.c: 107:     encender_leds(validar(s_temp, s_dist, s_luz));
  4076  0039B2  C232  F0E7         	movff	_s_temp,validar@temp
  4077  0039B6  C233  F0E8         	movff	_s_temp+1,validar@temp+1
  4078  0039BA  C234  F0E9         	movff	_s_dist,validar@distancia
  4079  0039BE  C235  F0EA         	movff	_s_dist+1,validar@distancia+1
  4080  0039C2  C230  F0EB         	movff	_s_luz,validar@luz
  4081  0039C6  C231  F0EC         	movff	_s_luz+1,validar@luz+1
  4082  0039CA  EC12  F00F         	call	_validar	;wreg free
  4083  0039CE  C0E7  F0ED         	movff	?_validar,encender_leds@valor
  4084  0039D2  C0E8  F0EE         	movff	?_validar+1,encender_leds@valor+1
  4085  0039D6  EC95  F019         	call	_encender_leds	;wreg free
  4086  0039DA  0012               	return		;funcret
  4087  0039DC                     __end_of_establecer_valores:
  4088                           	callstack 0
  4089                           
  4090 ;; *************** function _validar *****************
  4091 ;; Defined at:
  4092 ;;		line 77 in file "Leds.c"
  4093 ;; Parameters:    Size  Location     Type
  4094 ;;  temp            2  135[BANK0 ] int 
  4095 ;;  distancia       2  137[BANK0 ] int 
  4096 ;;  luz             2  139[BANK0 ] int 
  4097 ;; Auto vars:     Size  Location     Type
  4098 ;;  valor_usart    30   60[BANK2 ] unsigned char [30]
  4099 ;;  valor_usart    30   30[BANK2 ] unsigned char [30]
  4100 ;;  valor_usart    30    0[BANK2 ] unsigned char [30]
  4101 ;;  contador        2   90[BANK2 ] int 
  4102 ;; Return value:  Size  Location     Type
  4103 ;;                  2  135[BANK0 ] int 
  4104 ;; Registers used:
  4105 ;;		wreg, fsr1l, fsr1h, fsr2l, fsr2h, status,2, status,0, tblptrl, tblptrh, tblptru, prodl, prodh, cstack
  4106 ;; Tracked objects:
  4107 ;;		On entry : 0/0
  4108 ;;		On exit  : 0/0
  4109 ;;		Unchanged: 0/0
  4110 ;; Data sizes:     COMRAM   BANK0   BANK1   BANK2   BANK3   BANK4   BANK5   BANK6   BANK7
  4111 ;;      Params:         0       6       0       0       0       0       0       0       0
  4112 ;;      Locals:         0       0       0      92       0       0       0       0       0
  4113 ;;      Temps:          0       0       0       0       0       0       0       0       0
  4114 ;;      Totals:         0       6       0      92       0       0       0       0       0
  4115 ;;Total ram usage:       98 bytes
  4116 ;; Hardware stack levels used: 1
  4117 ;; Hardware stack levels required when called: 11
  4118 ;; This function calls:
  4119 ;;		_mostrar_emoticon
  4120 ;;		_mostrar_estadistica
  4121 ;;		_sprintf
  4122 ;; This function is called by:
  4123 ;;		_establecer_valores
  4124 ;; This function uses a non-reentrant model
  4125 ;;
  4126                           
  4127                           	psect	text22
  4128  001E24                     __ptext22:
  4129                           	callstack 0
  4130  001E24                     _validar:
  4131                           	callstack 17
  4132  001E24                     
  4133                           ;Leds.c: 78:     int contador = 0;
  4134  001E24  0E00               	movlw	0
  4135  001E26  0102               	movlb	2	; () banked
  4136  001E28  6FB9               	movwf	(validar@contador+1)& (0+255),b
  4137  001E2A  0E00               	movlw	0
  4138  001E2C  6FB8               	movwf	validar@contador& (0+255),b
  4139  001E2E                     
  4140                           ; BSR set to: 2
  4141                           ;Leds.c: 80:     if (temp < 17 || temp > 30) {
  4142  001E2E  0100               	movlb	0	; () banked
  4143  001E30  BFE8               	btfsc	(validar@temp+1)& (0+255),7,b
  4144  001E32  EF24  F00F         	goto	u4571
  4145  001E36  51E8               	movf	(validar@temp+1)& (0+255),w,b
  4146  001E38  E109               	bnz	u4570
  4147  001E3A  0E11               	movlw	17
  4148  001E3C  5DE7               	subwf	validar@temp& (0+255),w,b
  4149  001E3E  A0D8               	btfss	status,0,c
  4150  001E40  EF24  F00F         	goto	u4571
  4151  001E44  EF26  F00F         	goto	u4570
  4152  001E48                     u4571:
  4153  001E48  EF34  F00F         	goto	l4588
  4154  001E4C                     u4570:
  4155  001E4C                     
  4156                           ; BSR set to: 0
  4157  001E4C  BFE8               	btfsc	(validar@temp+1)& (0+255),7,b
  4158  001E4E  EF32  F00F         	goto	u4581
  4159  001E52  51E8               	movf	(validar@temp+1)& (0+255),w,b
  4160  001E54  E109               	bnz	u4580
  4161  001E56  0E1F               	movlw	31
  4162  001E58  5DE7               	subwf	validar@temp& (0+255),w,b
  4163  001E5A  A0D8               	btfss	status,0,c
  4164  001E5C  EF32  F00F         	goto	u4581
  4165  001E60  EF34  F00F         	goto	u4580
  4166  001E64                     u4581:
  4167  001E64  EF67  F00F         	goto	l4598
  4168  001E68                     u4580:
  4169  001E68                     l4588:
  4170                           
  4171                           ; BSR set to: 0
  4172                           ;Leds.c: 82:         if (temp != temp_ant) {
  4173  001E68  0102               	movlb	2	; () banked
  4174  001E6A  513C               	movf	_temp_ant& (0+255),w,b
  4175  001E6C  0100               	movlb	0	; () banked
  4176  001E6E  19E7               	xorwf	validar@temp& (0+255),w,b
  4177  001E70  E10B               	bnz	u4590
  4178  001E72  0102               	movlb	2	; () banked
  4179  001E74  513D               	movf	(_temp_ant+1)& (0+255),w,b
  4180  001E76  0100               	movlb	0	; () banked
  4181  001E78  19E8               	xorwf	(validar@temp+1)& (0+255),w,b
  4182  001E7A  B4D8               	btfsc	status,2,c
  4183  001E7C  EF42  F00F         	goto	u4591
  4184  001E80  EF44  F00F         	goto	u4590
  4185  001E84                     u4591:
  4186  001E84  EF61  F00F         	goto	l4594
  4187  001E88                     u4590:
  4188  001E88                     
  4189                           ; BSR set to: 0
  4190                           ;Leds.c: 83:             char valor_usart[30];;Leds.c: 84:             sprintf(valor_usa
      +                          rt, "%d", temp);
  4191  001E88  0E5E               	movlw	low validar@valor_usart
  4192  001E8A  6F68               	movwf	sprintf@s& (0+255),b
  4193  001E8C  0E02               	movlw	high validar@valor_usart
  4194  001E8E  6F69               	movwf	(sprintf@s+1)& (0+255),b
  4195  001E90  0EC9               	movlw	low STR_5
  4196  001E92  6F6A               	movwf	sprintf@fmt& (0+255),b
  4197  001E94  0E08               	movlw	high STR_5
  4198  001E96  6F6B               	movwf	(sprintf@fmt+1)& (0+255),b
  4199  001E98  C0E7  F06C         	movff	validar@temp,?_sprintf+4
  4200  001E9C  C0E8  F06D         	movff	validar@temp+1,?_sprintf+5
  4201  001EA0  EC26  F01C         	call	_sprintf	;wreg free
  4202                           
  4203                           ;Leds.c: 85:             mostrar_estadistica(1, valor_usart);
  4204  001EA4  0E00               	movlw	0
  4205  001EA6  0100               	movlb	0	; () banked
  4206  001EA8  6F7E               	movwf	(mostrar_estadistica@sensor+1)& (0+255),b
  4207  001EAA  0E01               	movlw	1
  4208  001EAC  6F7D               	movwf	mostrar_estadistica@sensor& (0+255),b
  4209  001EAE  0E5E               	movlw	low validar@valor_usart
  4210  001EB0  6F7F               	movwf	mostrar_estadistica@valor_usart& (0+255),b
  4211  001EB2  0E02               	movlw	high validar@valor_usart
  4212  001EB4  6F80               	movwf	(mostrar_estadistica@valor_usart+1)& (0+255),b
  4213  001EB6  ECE6  F015         	call	_mostrar_estadistica	;wreg free
  4214  001EBA                     
  4215                           ;Leds.c: 86:             temp_ant = temp;
  4216  001EBA  C0E7  F23C         	movff	validar@temp,_temp_ant
  4217  001EBE  C0E8  F23D         	movff	validar@temp+1,_temp_ant+1
  4218  001EC2                     l4594:
  4219                           
  4220                           ;Leds.c: 89:         mostrar_emoticon(5);
  4221  001EC2  0E05               	movlw	5
  4222  001EC4  EC48  F020         	call	_mostrar_emoticon
  4223  001EC8                     
  4224                           ;Leds.c: 90:         contador++;
  4225  001EC8  0102               	movlb	2	; () banked
  4226  001ECA  4BB8               	infsnz	validar@contador& (0+255),f,b
  4227  001ECC  2BB9               	incf	(validar@contador+1)& (0+255),f,b
  4228  001ECE                     l4598:
  4229                           
  4230                           ;Leds.c: 92:     if (distancia < 40) {
  4231  001ECE  0100               	movlb	0	; () banked
  4232  001ED0  BFEA               	btfsc	(validar@distancia+1)& (0+255),7,b
  4233  001ED2  EF76  F00F         	goto	u4600
  4234  001ED6  51EA               	movf	(validar@distancia+1)& (0+255),w,b
  4235  001ED8  E107               	bnz	u4601
  4236  001EDA  0E28               	movlw	40
  4237  001EDC  5DE9               	subwf	validar@distancia& (0+255),w,b
  4238  001EDE  B0D8               	btfsc	status,0,c
  4239  001EE0  EF74  F00F         	goto	u4601
  4240  001EE4  EF76  F00F         	goto	u4600
  4241  001EE8                     u4601:
  4242  001EE8  EFA9  F00F         	goto	l4610
  4243  001EEC                     u4600:
  4244  001EEC                     
  4245                           ; BSR set to: 0
  4246                           ;Leds.c: 94:         if (distancia != dist_ant) {
  4247  001EEC  0102               	movlb	2	; () banked
  4248  001EEE  513A               	movf	_dist_ant& (0+255),w,b
  4249  001EF0  0100               	movlb	0	; () banked
  4250  001EF2  19E9               	xorwf	validar@distancia& (0+255),w,b
  4251  001EF4  E10B               	bnz	u4610
  4252  001EF6  0102               	movlb	2	; () banked
  4253  001EF8  513B               	movf	(_dist_ant+1)& (0+255),w,b
  4254  001EFA  0100               	movlb	0	; () banked
  4255  001EFC  19EA               	xorwf	(validar@distancia+1)& (0+255),w,b
  4256  001EFE  B4D8               	btfsc	status,2,c
  4257  001F00  EF84  F00F         	goto	u4611
  4258  001F04  EF86  F00F         	goto	u4610
  4259  001F08                     u4611:
  4260  001F08  EFA3  F00F         	goto	l4606
  4261  001F0C                     u4610:
  4262  001F0C                     
  4263                           ; BSR set to: 0
  4264                           ;Leds.c: 95:             char valor_usart[30];;Leds.c: 96:             sprintf(valor_usa
      +                          rt, "%d", distancia);
  4265  001F0C  0E7C               	movlw	low validar@valor_usart_842
  4266  001F0E  6F68               	movwf	sprintf@s& (0+255),b
  4267  001F10  0E02               	movlw	high validar@valor_usart_842
  4268  001F12  6F69               	movwf	(sprintf@s+1)& (0+255),b
  4269  001F14  0EC9               	movlw	low STR_5
  4270  001F16  6F6A               	movwf	sprintf@fmt& (0+255),b
  4271  001F18  0E08               	movlw	high STR_5
  4272  001F1A  6F6B               	movwf	(sprintf@fmt+1)& (0+255),b
  4273  001F1C  C0E9  F06C         	movff	validar@distancia,?_sprintf+4
  4274  001F20  C0EA  F06D         	movff	validar@distancia+1,?_sprintf+5
  4275  001F24  EC26  F01C         	call	_sprintf	;wreg free
  4276                           
  4277                           ;Leds.c: 97:             mostrar_estadistica(2, valor_usart);
  4278  001F28  0E00               	movlw	0
  4279  001F2A  0100               	movlb	0	; () banked
  4280  001F2C  6F7E               	movwf	(mostrar_estadistica@sensor+1)& (0+255),b
  4281  001F2E  0E02               	movlw	2
  4282  001F30  6F7D               	movwf	mostrar_estadistica@sensor& (0+255),b
  4283  001F32  0E7C               	movlw	low validar@valor_usart_842
  4284  001F34  6F7F               	movwf	mostrar_estadistica@valor_usart& (0+255),b
  4285  001F36  0E02               	movlw	high validar@valor_usart_842
  4286  001F38  6F80               	movwf	(mostrar_estadistica@valor_usart+1)& (0+255),b
  4287  001F3A  ECE6  F015         	call	_mostrar_estadistica	;wreg free
  4288  001F3E                     
  4289                           ;Leds.c: 98:             dist_ant = distancia;
  4290  001F3E  C0E9  F23A         	movff	validar@distancia,_dist_ant
  4291  001F42  C0EA  F23B         	movff	validar@distancia+1,_dist_ant+1
  4292  001F46                     l4606:
  4293                           
  4294                           ;Leds.c: 101:         mostrar_emoticon(6);
  4295  001F46  0E06               	movlw	6
  4296  001F48  EC48  F020         	call	_mostrar_emoticon
  4297  001F4C                     
  4298                           ;Leds.c: 102:         contador++;
  4299  001F4C  0102               	movlb	2	; () banked
  4300  001F4E  4BB8               	infsnz	validar@contador& (0+255),f,b
  4301  001F50  2BB9               	incf	(validar@contador+1)& (0+255),f,b
  4302  001F52                     l4610:
  4303                           
  4304                           ;Leds.c: 104:     if (luz > 60 || luz < 10) {
  4305  001F52  0100               	movlb	0	; () banked
  4306  001F54  BFEC               	btfsc	(validar@luz+1)& (0+255),7,b
  4307  001F56  EFB8  F00F         	goto	u4620
  4308  001F5A  51EC               	movf	(validar@luz+1)& (0+255),w,b
  4309  001F5C  E107               	bnz	u4621
  4310  001F5E  0E3D               	movlw	61
  4311  001F60  5DEB               	subwf	validar@luz& (0+255),w,b
  4312  001F62  B0D8               	btfsc	status,0,c
  4313  001F64  EFB6  F00F         	goto	u4621
  4314  001F68  EFB8  F00F         	goto	u4620
  4315  001F6C                     u4621:
  4316  001F6C  EFC6  F00F         	goto	l4614
  4317  001F70                     u4620:
  4318  001F70                     
  4319                           ; BSR set to: 0
  4320  001F70  BFEC               	btfsc	(validar@luz+1)& (0+255),7,b
  4321  001F72  EFC6  F00F         	goto	u4630
  4322  001F76  51EC               	movf	(validar@luz+1)& (0+255),w,b
  4323  001F78  E107               	bnz	u4631
  4324  001F7A  0E0A               	movlw	10
  4325  001F7C  5DEB               	subwf	validar@luz& (0+255),w,b
  4326  001F7E  B0D8               	btfsc	status,0,c
  4327  001F80  EFC4  F00F         	goto	u4631
  4328  001F84  EFC6  F00F         	goto	u4630
  4329  001F88                     u4631:
  4330  001F88  EFF8  F00F         	goto	l4624
  4331  001F8C                     u4630:
  4332  001F8C                     l4614:
  4333                           
  4334                           ; BSR set to: 0
  4335                           ;Leds.c: 105:         mostrar_emoticon(7);
  4336  001F8C  0E07               	movlw	7
  4337  001F8E  EC48  F020         	call	_mostrar_emoticon
  4338  001F92                     
  4339                           ;Leds.c: 106:         contador++;
  4340  001F92  0102               	movlb	2	; () banked
  4341  001F94  4BB8               	infsnz	validar@contador& (0+255),f,b
  4342  001F96  2BB9               	incf	(validar@contador+1)& (0+255),f,b
  4343  001F98                     
  4344                           ; BSR set to: 2
  4345                           ;Leds.c: 108:         if (luz != lum_ant) {
  4346  001F98  5138               	movf	_lum_ant& (0+255),w,b
  4347  001F9A  0100               	movlb	0	; () banked
  4348  001F9C  19EB               	xorwf	validar@luz& (0+255),w,b
  4349  001F9E  E10B               	bnz	u4640
  4350  001FA0  0102               	movlb	2	; () banked
  4351  001FA2  5139               	movf	(_lum_ant+1)& (0+255),w,b
  4352  001FA4  0100               	movlb	0	; () banked
  4353  001FA6  19EC               	xorwf	(validar@luz+1)& (0+255),w,b
  4354  001FA8  B4D8               	btfsc	status,2,c
  4355  001FAA  EFD9  F00F         	goto	u4641
  4356  001FAE  EFDB  F00F         	goto	u4640
  4357  001FB2                     u4641:
  4358  001FB2  EFF8  F00F         	goto	l4624
  4359  001FB6                     u4640:
  4360  001FB6                     
  4361                           ; BSR set to: 0
  4362                           ;Leds.c: 109:             char valor_usart[30];;Leds.c: 110:             sprintf(valor_u
      +                          sart, "%d", luz);
  4363  001FB6  0E9A               	movlw	low validar@valor_usart_844
  4364  001FB8  6F68               	movwf	sprintf@s& (0+255),b
  4365  001FBA  0E02               	movlw	high validar@valor_usart_844
  4366  001FBC  6F69               	movwf	(sprintf@s+1)& (0+255),b
  4367  001FBE  0EC9               	movlw	low STR_5
  4368  001FC0  6F6A               	movwf	sprintf@fmt& (0+255),b
  4369  001FC2  0E08               	movlw	high STR_5
  4370  001FC4  6F6B               	movwf	(sprintf@fmt+1)& (0+255),b
  4371  001FC6  C0EB  F06C         	movff	validar@luz,?_sprintf+4
  4372  001FCA  C0EC  F06D         	movff	validar@luz+1,?_sprintf+5
  4373  001FCE  EC26  F01C         	call	_sprintf	;wreg free
  4374                           
  4375                           ;Leds.c: 111:             mostrar_estadistica(3, valor_usart);
  4376  001FD2  0E00               	movlw	0
  4377  001FD4  0100               	movlb	0	; () banked
  4378  001FD6  6F7E               	movwf	(mostrar_estadistica@sensor+1)& (0+255),b
  4379  001FD8  0E03               	movlw	3
  4380  001FDA  6F7D               	movwf	mostrar_estadistica@sensor& (0+255),b
  4381  001FDC  0E9A               	movlw	low validar@valor_usart_844
  4382  001FDE  6F7F               	movwf	mostrar_estadistica@valor_usart& (0+255),b
  4383  001FE0  0E02               	movlw	high validar@valor_usart_844
  4384  001FE2  6F80               	movwf	(mostrar_estadistica@valor_usart+1)& (0+255),b
  4385  001FE4  ECE6  F015         	call	_mostrar_estadistica	;wreg free
  4386  001FE8                     
  4387                           ;Leds.c: 112:             lum_ant = luz;
  4388  001FE8  C0EB  F238         	movff	validar@luz,_lum_ant
  4389  001FEC  C0EC  F239         	movff	validar@luz+1,_lum_ant+1
  4390  001FF0                     l4624:
  4391                           
  4392                           ;Leds.c: 116:     if (contador == 0) {
  4393  001FF0  0102               	movlb	2	; () banked
  4394  001FF2  51B8               	movf	validar@contador& (0+255),w,b
  4395  001FF4  11B9               	iorwf	(validar@contador+1)& (0+255),w,b
  4396  001FF6  A4D8               	btfss	status,2,c
  4397  001FF8  EF00  F010         	goto	u4651
  4398  001FFC  EF02  F010         	goto	u4650
  4399  002000                     u4651:
  4400  002000  EF05  F010         	goto	l4628
  4401  002004                     u4650:
  4402  002004                     
  4403                           ; BSR set to: 2
  4404                           ;Leds.c: 117:         mostrar_emoticon(4);
  4405  002004  0E04               	movlw	4
  4406  002006  EC48  F020         	call	_mostrar_emoticon
  4407  00200A                     l4628:
  4408                           
  4409                           ;Leds.c: 121:     return contador;
  4410  00200A  C2B8  F0E7         	movff	validar@contador,?_validar
  4411  00200E  C2B9  F0E8         	movff	validar@contador+1,?_validar+1
  4412  002012  0012               	return		;funcret
  4413  002014                     __end_of_validar:
  4414                           	callstack 0
  4415                           
  4416 ;; *************** function _mostrar_estadistica *****************
  4417 ;; Defined at:
  4418 ;;		line 124 in file "Leds.c"
  4419 ;; Parameters:    Size  Location     Type
  4420 ;;  sensor          2   29[BANK0 ] int 
  4421 ;;  valor_usart     2   31[BANK0 ] PTR unsigned char 
  4422 ;;		 -> validar@valor_usart_844(30), validar@valor_usart_842(30), validar@valor_usart(30), 
  4423 ;; Auto vars:     Size  Location     Type
  4424 ;;  mensaje_usar  100  100[BANK1 ] unsigned char [100]
  4425 ;;  mensaje_usar  100    0[BANK1 ] unsigned char [100]
  4426 ;;  mensaje_usar  100   33[BANK0 ] unsigned char [100]
  4427 ;; Return value:  Size  Location     Type
  4428 ;;                  1    wreg      void 
  4429 ;; Registers used:
  4430 ;;		wreg, fsr1l, fsr1h, fsr2l, fsr2h, status,2, status,0, tblptrl, tblptrh, tblptru, cstack
  4431 ;; Tracked objects:
  4432 ;;		On entry : 0/0
  4433 ;;		On exit  : 0/0
  4434 ;;		Unchanged: 0/0
  4435 ;; Data sizes:     COMRAM   BANK0   BANK1   BANK2   BANK3   BANK4   BANK5   BANK6   BANK7
  4436 ;;      Params:         0       4       0       0       0       0       0       0       0
  4437 ;;      Locals:         0     102     200       0       0       0       0       0       0
  4438 ;;      Temps:          0       0       0       0       0       0       0       0       0
  4439 ;;      Totals:         0     106     200       0       0       0       0       0       0
  4440 ;;Total ram usage:      306 bytes
  4441 ;; Hardware stack levels used: 1
  4442 ;; Hardware stack levels required when called: 10
  4443 ;; This function calls:
  4444 ;;		_USART_SendString
  4445 ;;		_obtener_tiempo_fecha
  4446 ;;		_sprintf
  4447 ;; This function is called by:
  4448 ;;		_validar
  4449 ;; This function uses a non-reentrant model
  4450 ;;
  4451                           
  4452                           	psect	text23
  4453  002BCC                     __ptext23:
  4454                           	callstack 0
  4455  002BCC                     _mostrar_estadistica:
  4456                           	callstack 17
  4457  002BCC                     
  4458                           ;Leds.c: 126:     if (sensor == 1) {
  4459  002BCC  0100               	movlb	0	; () banked
  4460  002BCE  057D               	decf	mostrar_estadistica@sensor& (0+255),w,b
  4461  002BD0  117E               	iorwf	(mostrar_estadistica@sensor+1)& (0+255),w,b
  4462  002BD2  A4D8               	btfss	status,2,c
  4463  002BD4  EFEE  F015         	goto	u3921
  4464  002BD8  EFF0  F015         	goto	u3920
  4465  002BDC                     u3921:
  4466  002BDC  EF0F  F016         	goto	l4138
  4467  002BE0                     u3920:
  4468  002BE0                     
  4469                           ; BSR set to: 0
  4470                           ;Leds.c: 129:         char mensaje_usart[100];;Leds.c: 130:         sprintf(mensaje_usar
      +                          t, "%s Alerta de Temperatura: %s G \r\n", obtener_tiempo_fecha(), valor_usart);
  4471  002BE0  ECB9  F01F         	call	_obtener_tiempo_fecha	;wreg free
  4472  002BE4  C07B  F0E5         	movff	?_obtener_tiempo_fecha,_mostrar_estadistica$2248
  4473  002BE8  C07C  F0E6         	movff	?_obtener_tiempo_fecha+1,_mostrar_estadistica$2248+1
  4474                           
  4475                           ;Leds.c: 129:         char mensaje_usart[100];;Leds.c: 130:         sprintf(mensaje_usar
      +                          t, "%s Alerta de Temperatura: %s G \r\n", obtener_tiempo_fecha(), valor_usart);
  4476  002BEC  0E81               	movlw	low mostrar_estadistica@mensaje_usart
  4477  002BEE  0100               	movlb	0	; () banked
  4478  002BF0  6F68               	movwf	sprintf@s& (0+255),b
  4479  002BF2  0E00               	movlw	high mostrar_estadistica@mensaje_usart
  4480  002BF4  6F69               	movwf	(sprintf@s+1)& (0+255),b
  4481  002BF6  0E2B               	movlw	low STR_8
  4482  002BF8  6F6A               	movwf	sprintf@fmt& (0+255),b
  4483  002BFA  0E08               	movlw	high STR_8
  4484  002BFC  6F6B               	movwf	(sprintf@fmt+1)& (0+255),b
  4485  002BFE  C0E5  F06C         	movff	_mostrar_estadistica$2248,?_sprintf+4
  4486  002C02  C0E6  F06D         	movff	_mostrar_estadistica$2248+1,?_sprintf+5
  4487  002C06  C07F  F06E         	movff	mostrar_estadistica@valor_usart,?_sprintf+6
  4488  002C0A  C080  F06F         	movff	mostrar_estadistica@valor_usart+1,?_sprintf+7
  4489  002C0E  EC26  F01C         	call	_sprintf	;wreg free
  4490  002C12                     
  4491                           ;Leds.c: 131:         USART_SendString(mensaje_usart);
  4492  002C12  0E81               	movlw	low mostrar_estadistica@mensaje_usart
  4493  002C14  6E02               	movwf	USART_SendString@out^0,c
  4494  002C16  0E00               	movlw	high mostrar_estadistica@mensaje_usart
  4495  002C18  6E03               	movwf	(USART_SendString@out+1)^0,c
  4496  002C1A  EC1A  F01F         	call	_USART_SendString	;wreg free
  4497  002C1E                     l4138:
  4498                           
  4499                           ;Leds.c: 134:     if (sensor == 2) {
  4500  002C1E  0E02               	movlw	2
  4501  002C20  0100               	movlb	0	; () banked
  4502  002C22  197D               	xorwf	mostrar_estadistica@sensor& (0+255),w,b
  4503  002C24  117E               	iorwf	(mostrar_estadistica@sensor+1)& (0+255),w,b
  4504  002C26  A4D8               	btfss	status,2,c
  4505  002C28  EF18  F016         	goto	u3931
  4506  002C2C  EF1A  F016         	goto	u3930
  4507  002C30                     u3931:
  4508  002C30  EF39  F016         	goto	l4144
  4509  002C34                     u3930:
  4510  002C34                     
  4511                           ; BSR set to: 0
  4512                           ;Leds.c: 136:         char mensaje_usart[100];;Leds.c: 137:         sprintf(mensaje_usar
      +                          t, "%s Alerta de Distancia: %s Cm \r\n", obtener_tiempo_fecha(), valor_usart);
  4513  002C34  ECB9  F01F         	call	_obtener_tiempo_fecha	;wreg free
  4514  002C38  C07B  F0E5         	movff	?_obtener_tiempo_fecha,_mostrar_estadistica$2248
  4515  002C3C  C07C  F0E6         	movff	?_obtener_tiempo_fecha+1,_mostrar_estadistica$2248+1
  4516                           
  4517                           ;Leds.c: 136:         char mensaje_usart[100];;Leds.c: 137:         sprintf(mensaje_usar
      +                          t, "%s Alerta de Distancia: %s Cm \r\n", obtener_tiempo_fecha(), valor_usart);
  4518  002C40  0E00               	movlw	low mostrar_estadistica@mensaje_usart_851
  4519  002C42  0100               	movlb	0	; () banked
  4520  002C44  6F68               	movwf	sprintf@s& (0+255),b
  4521  002C46  0E01               	movlw	high mostrar_estadistica@mensaje_usart_851
  4522  002C48  6F69               	movwf	(sprintf@s+1)& (0+255),b
  4523  002C4A  0E4D               	movlw	low STR_9
  4524  002C4C  6F6A               	movwf	sprintf@fmt& (0+255),b
  4525  002C4E  0E08               	movlw	high STR_9
  4526  002C50  6F6B               	movwf	(sprintf@fmt+1)& (0+255),b
  4527  002C52  C0E5  F06C         	movff	_mostrar_estadistica$2248,?_sprintf+4
  4528  002C56  C0E6  F06D         	movff	_mostrar_estadistica$2248+1,?_sprintf+5
  4529  002C5A  C07F  F06E         	movff	mostrar_estadistica@valor_usart,?_sprintf+6
  4530  002C5E  C080  F06F         	movff	mostrar_estadistica@valor_usart+1,?_sprintf+7
  4531  002C62  EC26  F01C         	call	_sprintf	;wreg free
  4532  002C66                     
  4533                           ;Leds.c: 138:         USART_SendString(mensaje_usart);
  4534  002C66  0E00               	movlw	low mostrar_estadistica@mensaje_usart_851
  4535  002C68  6E02               	movwf	USART_SendString@out^0,c
  4536  002C6A  0E01               	movlw	high mostrar_estadistica@mensaje_usart_851
  4537  002C6C  6E03               	movwf	(USART_SendString@out+1)^0,c
  4538  002C6E  EC1A  F01F         	call	_USART_SendString	;wreg free
  4539  002C72                     l4144:
  4540                           
  4541                           ;Leds.c: 141:     if (sensor == 3) {
  4542  002C72  0E03               	movlw	3
  4543  002C74  0100               	movlb	0	; () banked
  4544  002C76  197D               	xorwf	mostrar_estadistica@sensor& (0+255),w,b
  4545  002C78  117E               	iorwf	(mostrar_estadistica@sensor+1)& (0+255),w,b
  4546  002C7A  A4D8               	btfss	status,2,c
  4547  002C7C  EF42  F016         	goto	u3941
  4548  002C80  EF44  F016         	goto	u3940
  4549  002C84                     u3941:
  4550  002C84  EF63  F016         	goto	l391
  4551  002C88                     u3940:
  4552  002C88                     
  4553                           ; BSR set to: 0
  4554                           ;Leds.c: 143:         char mensaje_usart[100];;Leds.c: 144:         sprintf(mensaje_usar
      +                          t, "%s Alerta de Luminosidad: %s Porciento \r\n", obtener_tiempo_fecha(), valor_usart);
  4555  002C88  ECB9  F01F         	call	_obtener_tiempo_fecha	;wreg free
  4556  002C8C  C07B  F0E5         	movff	?_obtener_tiempo_fecha,_mostrar_estadistica$2248
  4557  002C90  C07C  F0E6         	movff	?_obtener_tiempo_fecha+1,_mostrar_estadistica$2248+1
  4558                           
  4559                           ;Leds.c: 143:         char mensaje_usart[100];;Leds.c: 144:         sprintf(mensaje_usar
      +                          t, "%s Alerta de Luminosidad: %s Porciento \r\n", obtener_tiempo_fecha(), valor_usart);
  4560  002C94  0E64               	movlw	low mostrar_estadistica@mensaje_usart_853
  4561  002C96  0100               	movlb	0	; () banked
  4562  002C98  6F68               	movwf	sprintf@s& (0+255),b
  4563  002C9A  0E01               	movlw	high mostrar_estadistica@mensaje_usart_853
  4564  002C9C  6F69               	movwf	(sprintf@s+1)& (0+255),b
  4565  002C9E  0E01               	movlw	low STR_10
  4566  002CA0  6F6A               	movwf	sprintf@fmt& (0+255),b
  4567  002CA2  0E08               	movlw	high STR_10
  4568  002CA4  6F6B               	movwf	(sprintf@fmt+1)& (0+255),b
  4569  002CA6  C0E5  F06C         	movff	_mostrar_estadistica$2248,?_sprintf+4
  4570  002CAA  C0E6  F06D         	movff	_mostrar_estadistica$2248+1,?_sprintf+5
  4571  002CAE  C07F  F06E         	movff	mostrar_estadistica@valor_usart,?_sprintf+6
  4572  002CB2  C080  F06F         	movff	mostrar_estadistica@valor_usart+1,?_sprintf+7
  4573  002CB6  EC26  F01C         	call	_sprintf	;wreg free
  4574  002CBA                     
  4575                           ;Leds.c: 145:         USART_SendString(mensaje_usart);
  4576  002CBA  0E64               	movlw	low mostrar_estadistica@mensaje_usart_853
  4577  002CBC  6E02               	movwf	USART_SendString@out^0,c
  4578  002CBE  0E01               	movlw	high mostrar_estadistica@mensaje_usart_853
  4579  002CC0  6E03               	movwf	(USART_SendString@out+1)^0,c
  4580  002CC2  EC1A  F01F         	call	_USART_SendString	;wreg free
  4581  002CC6                     l391:
  4582  002CC6  0012               	return		;funcret
  4583  002CC8                     __end_of_mostrar_estadistica:
  4584                           	callstack 0
  4585                           
  4586 ;; *************** function _obtener_tiempo_fecha *****************
  4587 ;; Defined at:
  4588 ;;		line 74 in file "RTC.c"
  4589 ;; Parameters:    Size  Location     Type
  4590 ;;		None
  4591 ;; Auto vars:     Size  Location     Type
  4592 ;;		None
  4593 ;; Return value:  Size  Location     Type
  4594 ;;                  2   27[BANK0 ] PTR unsigned char 
  4595 ;; Registers used:
  4596 ;;		wreg, fsr1l, fsr1h, fsr2l, fsr2h, status,2, status,0, tblptrl, tblptrh, tblptru, cstack
  4597 ;; Tracked objects:
  4598 ;;		On entry : 0/0
  4599 ;;		On exit  : 0/0
  4600 ;;		Unchanged: 0/0
  4601 ;; Data sizes:     COMRAM   BANK0   BANK1   BANK2   BANK3   BANK4   BANK5   BANK6   BANK7
  4602 ;;      Params:         0       2       0       0       0       0       0       0       0
  4603 ;;      Locals:         0       0       0       0       0       0       0       0       0
  4604 ;;      Temps:          0       0       0       0       0       0       0       0       0
  4605 ;;      Totals:         0       2       0       0       0       0       0       0       0
  4606 ;;Total ram usage:        2 bytes
  4607 ;; Hardware stack levels used: 1
  4608 ;; Hardware stack levels required when called: 9
  4609 ;; This function calls:
  4610 ;;		_I2C_Init
  4611 ;;		_RTC_obtener_fecha
  4612 ;;		_RTC_obtener_hora
  4613 ;;		_strcat
  4614 ;; This function is called by:
  4615 ;;		_mostrar_estadistica
  4616 ;; This function uses a non-reentrant model
  4617 ;;
  4618                           
  4619                           	psect	text24
  4620  003F72                     __ptext24:
  4621                           	callstack 0
  4622  003F72                     _obtener_tiempo_fecha:
  4623                           	callstack 17
  4624  003F72                     
  4625                           ;RTC.c: 75:     I2C_Init();
  4626  003F72  EC25  F020         	call	_I2C_Init	;wreg free
  4627  003F76                     
  4628                           ;RTC.c: 76:     RTC_obtener_hora();
  4629  003F76  ECD9  F016         	call	_RTC_obtener_hora	;wreg free
  4630  003F7A                     
  4631                           ;RTC.c: 77:     RTC_obtener_fecha();
  4632  003F7A  ECB0  F01E         	call	_RTC_obtener_fecha	;wreg free
  4633  003F7E                     
  4634                           ;RTC.c: 78:     return strcat(date, time);
  4635  003F7E  0EB4               	movlw	low _date
  4636  003F80  6E0D               	movwf	strcat@dest^0,c
  4637  003F82  0E03               	movlw	high _date
  4638  003F84  6E0E               	movwf	(strcat@dest+1)^0,c
  4639  003F86  0E78               	movlw	low _time
  4640  003F88  6E0F               	movwf	strcat@src^0,c
  4641  003F8A  0E03               	movlw	high _time
  4642  003F8C  6E10               	movwf	(strcat@src+1)^0,c
  4643  003F8E  EC32  F01F         	call	_strcat	;wreg free
  4644  003F92  C00D  F07B         	movff	?_strcat,?_obtener_tiempo_fecha
  4645  003F96  C00E  F07C         	movff	?_strcat+1,?_obtener_tiempo_fecha+1
  4646  003F9A  0012               	return		;funcret
  4647  003F9C                     __end_of_obtener_tiempo_fecha:
  4648                           	callstack 0
  4649                           
  4650 ;; *************** function _strcat *****************
  4651 ;; Defined at:
  4652 ;;		line 3 in file "D:\mplab\pic\sources\c99\common\strcat.c"
  4653 ;; Parameters:    Size  Location     Type
  4654 ;;  dest            2   12[COMRAM] PTR unsigned char 
  4655 ;;		 -> date(60), 
  4656 ;;  src             2   14[COMRAM] PTR const unsigned char 
  4657 ;;		 -> time(60), 
  4658 ;; Auto vars:     Size  Location     Type
  4659 ;;		None
  4660 ;; Return value:  Size  Location     Type
  4661 ;;                  2   12[COMRAM] PTR unsigned char 
  4662 ;; Registers used:
  4663 ;;		wreg, fsr1l, fsr1h, fsr2l, fsr2h, status,2, status,0, cstack
  4664 ;; Tracked objects:
  4665 ;;		On entry : 0/0
  4666 ;;		On exit  : 0/0
  4667 ;;		Unchanged: 0/0
  4668 ;; Data sizes:     COMRAM   BANK0   BANK1   BANK2   BANK3   BANK4   BANK5   BANK6   BANK7
  4669 ;;      Params:         4       0       0       0       0       0       0       0       0
  4670 ;;      Locals:         0       0       0       0       0       0       0       0       0
  4671 ;;      Temps:          0       0       0       0       0       0       0       0       0
  4672 ;;      Totals:         4       0       0       0       0       0       0       0       0
  4673 ;;Total ram usage:        4 bytes
  4674 ;; Hardware stack levels used: 1
  4675 ;; Hardware stack levels required when called: 1
  4676 ;; This function calls:
  4677 ;;		_strcpy
  4678 ;;		_strlen
  4679 ;; This function is called by:
  4680 ;;		_obtener_tiempo_fecha
  4681 ;; This function uses a non-reentrant model
  4682 ;;
  4683                           
  4684                           	psect	text25
  4685  003E64                     __ptext25:
  4686                           	callstack 0
  4687  003E64                     _strcat:
  4688                           	callstack 24
  4689  003E64  C00D  F001         	movff	strcat@dest,strlen@s
  4690  003E68  C00E  F002         	movff	strcat@dest+1,strlen@s+1
  4691  003E6C  ECCB  F01E         	call	_strlen	;wreg free
  4692  003E70  5001               	movf	?_strlen^0,w,c
  4693  003E72  240D               	addwf	strcat@dest^0,w,c
  4694  003E74  6E05               	movwf	strcpy@dest^0,c
  4695  003E76  5002               	movf	(?_strlen+1)^0,w,c
  4696  003E78  200E               	addwfc	(strcat@dest+1)^0,w,c
  4697  003E7A  6E06               	movwf	(strcpy@dest+1)^0,c
  4698  003E7C  C00F  F007         	movff	strcat@src,strcpy@src
  4699  003E80  C010  F008         	movff	strcat@src+1,strcpy@src+1
  4700  003E84  EC02  F01E         	call	_strcpy	;wreg free
  4701  003E88  C00D  F00D         	movff	strcat@dest,?_strcat
  4702  003E8C  C00E  F00E         	movff	strcat@dest+1,?_strcat+1
  4703  003E90  0012               	return		;funcret
  4704  003E92                     __end_of_strcat:
  4705                           	callstack 0
  4706                           
  4707 ;; *************** function _strcpy *****************
  4708 ;; Defined at:
  4709 ;;		line 3 in file "D:\mplab\pic\sources\c99\common\strcpy.c"
  4710 ;; Parameters:    Size  Location     Type
  4711 ;;  dest            2    4[COMRAM] PTR unsigned char 
  4712 ;;		 -> date(60), 
  4713 ;;  src             2    6[COMRAM] PTR const unsigned char 
  4714 ;;		 -> time(60), 
  4715 ;; Auto vars:     Size  Location     Type
  4716 ;;  d               2   10[COMRAM] PTR unsigned char 
  4717 ;;		 -> date(60), 
  4718 ;;  s               2    8[COMRAM] PTR const unsigned char 
  4719 ;;		 -> time(60), 
  4720 ;; Return value:  Size  Location     Type
  4721 ;;                  2    4[COMRAM] PTR unsigned char 
  4722 ;; Registers used:
  4723 ;;		wreg, fsr1l, fsr1h, fsr2l, fsr2h, status,2, status,0
  4724 ;; Tracked objects:
  4725 ;;		On entry : 0/0
  4726 ;;		On exit  : 0/0
  4727 ;;		Unchanged: 0/0
  4728 ;; Data sizes:     COMRAM   BANK0   BANK1   BANK2   BANK3   BANK4   BANK5   BANK6   BANK7
  4729 ;;      Params:         4       0       0       0       0       0       0       0       0
  4730 ;;      Locals:         4       0       0       0       0       0       0       0       0
  4731 ;;      Temps:          0       0       0       0       0       0       0       0       0
  4732 ;;      Totals:         8       0       0       0       0       0       0       0       0
  4733 ;;Total ram usage:        8 bytes
  4734 ;; Hardware stack levels used: 1
  4735 ;; This function calls:
  4736 ;;		Nothing
  4737 ;; This function is called by:
  4738 ;;		_strcat
  4739 ;; This function uses a non-reentrant model
  4740 ;;
  4741                           
  4742                           	psect	text26
  4743  003C04                     __ptext26:
  4744                           	callstack 0
  4745  003C04                     _strcpy:
  4746                           	callstack 24
  4747  003C04  C007  F009         	movff	strcpy@src,strcpy@s
  4748  003C08  C008  F00A         	movff	strcpy@src+1,strcpy@s+1
  4749  003C0C  C005  F00B         	movff	strcpy@dest,strcpy@d
  4750  003C10  C006  F00C         	movff	strcpy@dest+1,strcpy@d+1
  4751  003C14                     l3944:
  4752  003C14  C009  FFD9         	movff	strcpy@s,fsr2l
  4753  003C18  C00A  FFDA         	movff	strcpy@s+1,fsr2h
  4754  003C1C  4A09               	infsnz	strcpy@s^0,f,c
  4755  003C1E  2A0A               	incf	(strcpy@s+1)^0,f,c
  4756  003C20  C00B  FFE1         	movff	strcpy@d,fsr1l
  4757  003C24  C00C  FFE2         	movff	strcpy@d+1,fsr1h
  4758  003C28  4A0B               	infsnz	strcpy@d^0,f,c
  4759  003C2A  2A0C               	incf	(strcpy@d+1)^0,f,c
  4760  003C2C  CFDF FFE7          	movff	indf2,indf1
  4761  003C30  50E7               	movf	indf1,w,c
  4762  003C32  A4D8               	btfss	status,2,c
  4763  003C34  EF1E  F01E         	goto	u3781
  4764  003C38  EF20  F01E         	goto	u3780
  4765  003C3C                     u3781:
  4766  003C3C  EF0A  F01E         	goto	l3944
  4767  003C40                     u3780:
  4768  003C40  0012               	return		;funcret
  4769  003C42                     __end_of_strcpy:
  4770                           	callstack 0
  4771                           
  4772 ;; *************** function _RTC_obtener_hora *****************
  4773 ;; Defined at:
  4774 ;;		line 51 in file "RTC.c"
  4775 ;; Parameters:    Size  Location     Type
  4776 ;;		None
  4777 ;; Auto vars:     Size  Location     Type
  4778 ;;  AM_PM           1   26[BANK0 ] unsigned char 
  4779 ;;  Clock_type      1    0        unsigned char 
  4780 ;; Return value:  Size  Location     Type
  4781 ;;                  1    wreg      void 
  4782 ;; Registers used:
  4783 ;;		wreg, fsr1l, fsr1h, fsr2l, fsr2h, status,2, status,0, tblptrl, tblptrh, tblptru, cstack
  4784 ;; Tracked objects:
  4785 ;;		On entry : 0/0
  4786 ;;		On exit  : 0/0
  4787 ;;		Unchanged: 0/0
  4788 ;; Data sizes:     COMRAM   BANK0   BANK1   BANK2   BANK3   BANK4   BANK5   BANK6   BANK7
  4789 ;;      Params:         0       0       0       0       0       0       0       0       0
  4790 ;;      Locals:         0       1       0       0       0       0       0       0       0
  4791 ;;      Temps:          0       0       0       0       0       0       0       0       0
  4792 ;;      Totals:         0       1       0       0       0       0       0       0       0
  4793 ;;Total ram usage:        1 bytes
  4794 ;; Hardware stack levels used: 1
  4795 ;; Hardware stack levels required when called: 8
  4796 ;; This function calls:
  4797 ;;		_I2C_Stop
  4798 ;;		_RTC_Read_Clock
  4799 ;;		_sprintf
  4800 ;; This function is called by:
  4801 ;;		_obtener_tiempo_fecha
  4802 ;; This function uses a non-reentrant model
  4803 ;;
  4804                           
  4805                           	psect	text27
  4806  002DB2                     __ptext27:
  4807                           	callstack 0
  4808  002DB2                     _RTC_obtener_hora:
  4809                           	callstack 17
  4810  002DB2                     
  4811                           ;RTC.c: 53:     char AM_PM = 0x05;
  4812  002DB2  0E05               	movlw	5
  4813  002DB4  0100               	movlb	0	; () banked
  4814  002DB6  6F7A               	movwf	RTC_obtener_hora@AM_PM& (0+255),b
  4815  002DB8                     
  4816                           ; BSR set to: 0
  4817                           ;RTC.c: 54:     RTC_Read_Clock(0);
  4818  002DB8  0E00               	movlw	0
  4819  002DBA  ECEE  F01C         	call	_RTC_Read_Clock
  4820  002DBE                     
  4821                           ;RTC.c: 55:     I2C_Stop();
  4822  002DBE  EC53  F020         	call	_I2C_Stop	;wreg free
  4823  002DC2                     
  4824                           ;RTC.c: 56:     if (hour & (1 << Clock_type)) {
  4825  002DC2  0100               	movlb	0	; () banked
  4826  002DC4  ADF5               	btfss	_hour& (0+255),6,b
  4827  002DC6  EFE7  F016         	goto	u3801
  4828  002DCA  EFE9  F016         	goto	u3800
  4829  002DCE                     u3801:
  4830  002DCE  EF24  F017         	goto	l3994
  4831  002DD2                     u3800:
  4832  002DD2                     
  4833                           ; BSR set to: 0
  4834                           ;RTC.c: 57:         if (hour & (1 << AM_PM)) {
  4835  002DD2  ABF5               	btfss	_hour& (0+255),5,b
  4836  002DD4  EFEE  F016         	goto	u3811
  4837  002DD8  EFF0  F016         	goto	u3810
  4838  002DDC                     u3811:
  4839  002DDC  EF0C  F017         	goto	l3992
  4840  002DE0                     u3810:
  4841  002DE0                     
  4842                           ; BSR set to: 0
  4843                           ;RTC.c: 58:             hour = hour & (0x1f);
  4844  002DE0  0E1F               	movlw	31
  4845  002DE2  15F5               	andwf	_hour& (0+255),w,b
  4846  002DE4  6FF5               	movwf	_hour& (0+255),b
  4847  002DE6  6BF6               	clrf	(_hour+1)& (0+255),b
  4848  002DE8                     
  4849                           ; BSR set to: 0
  4850                           ;RTC.c: 59:             sprintf(time, "Time: %x:%x:%x PM", hour, min, sec);
  4851  002DE8  0E78               	movlw	low _time
  4852  002DEA  6F68               	movwf	sprintf@s& (0+255),b
  4853  002DEC  0E03               	movlw	high _time
  4854  002DEE  6F69               	movwf	(sprintf@s+1)& (0+255),b
  4855  002DF0  0E80               	movlw	low STR_11
  4856  002DF2  6F6A               	movwf	sprintf@fmt& (0+255),b
  4857  002DF4  0E08               	movlw	high STR_11
  4858  002DF6  6F6B               	movwf	(sprintf@fmt+1)& (0+255),b
  4859  002DF8  C0F5  F06C         	movff	_hour,?_sprintf+4
  4860  002DFC  C0F6  F06D         	movff	_hour+1,?_sprintf+5
  4861  002E00  C1F2  F06E         	movff	_min,?_sprintf+6
  4862  002E04  C1F3  F06F         	movff	_min+1,?_sprintf+7
  4863  002E08  C1F4  F070         	movff	_sec,?_sprintf+8
  4864  002E0C  C1F5  F071         	movff	_sec+1,?_sprintf+9
  4865  002E10  EC26  F01C         	call	_sprintf	;wreg free
  4866                           
  4867                           ;RTC.c: 60:         } else {
  4868  002E14  EF3E  F017         	goto	l636
  4869  002E18                     l3992:
  4870                           
  4871                           ; BSR set to: 0
  4872                           ;RTC.c: 61:             sprintf(time, "Time: %x:%x:%x AM", hour, min, sec);
  4873  002E18  0E78               	movlw	low _time
  4874  002E1A  6F68               	movwf	sprintf@s& (0+255),b
  4875  002E1C  0E03               	movlw	high _time
  4876  002E1E  6F69               	movwf	(sprintf@s+1)& (0+255),b
  4877  002E20  0E6E               	movlw	low STR_12
  4878  002E22  6F6A               	movwf	sprintf@fmt& (0+255),b
  4879  002E24  0E08               	movlw	high STR_12
  4880  002E26  6F6B               	movwf	(sprintf@fmt+1)& (0+255),b
  4881  002E28  C0F5  F06C         	movff	_hour,?_sprintf+4
  4882  002E2C  C0F6  F06D         	movff	_hour+1,?_sprintf+5
  4883  002E30  C1F2  F06E         	movff	_min,?_sprintf+6
  4884  002E34  C1F3  F06F         	movff	_min+1,?_sprintf+7
  4885  002E38  C1F4  F070         	movff	_sec,?_sprintf+8
  4886  002E3C  C1F5  F071         	movff	_sec+1,?_sprintf+9
  4887  002E40  EC26  F01C         	call	_sprintf	;wreg free
  4888  002E44  EF3E  F017         	goto	l636
  4889  002E48                     l3994:
  4890                           
  4891                           ; BSR set to: 0
  4892                           ;RTC.c: 64:         hour = hour & (0x3f);
  4893  002E48  0E3F               	movlw	63
  4894  002E4A  15F5               	andwf	_hour& (0+255),w,b
  4895  002E4C  6FF5               	movwf	_hour& (0+255),b
  4896  002E4E  6BF6               	clrf	(_hour+1)& (0+255),b
  4897  002E50                     
  4898                           ; BSR set to: 0
  4899                           ;RTC.c: 65:         sprintf(time, "Time: %x:%x:%x ", hour, min, sec);
  4900  002E50  0E78               	movlw	low _time
  4901  002E52  6F68               	movwf	sprintf@s& (0+255),b
  4902  002E54  0E03               	movlw	high _time
  4903  002E56  6F69               	movwf	(sprintf@s+1)& (0+255),b
  4904  002E58  0EA2               	movlw	low STR_13
  4905  002E5A  6F6A               	movwf	sprintf@fmt& (0+255),b
  4906  002E5C  0E08               	movlw	high STR_13
  4907  002E5E  6F6B               	movwf	(sprintf@fmt+1)& (0+255),b
  4908  002E60  C0F5  F06C         	movff	_hour,?_sprintf+4
  4909  002E64  C0F6  F06D         	movff	_hour+1,?_sprintf+5
  4910  002E68  C1F2  F06E         	movff	_min,?_sprintf+6
  4911  002E6C  C1F3  F06F         	movff	_min+1,?_sprintf+7
  4912  002E70  C1F4  F070         	movff	_sec,?_sprintf+8
  4913  002E74  C1F5  F071         	movff	_sec+1,?_sprintf+9
  4914  002E78  EC26  F01C         	call	_sprintf	;wreg free
  4915  002E7C                     l636:
  4916  002E7C  0012               	return		;funcret
  4917  002E7E                     __end_of_RTC_obtener_hora:
  4918                           	callstack 0
  4919                           
  4920 ;; *************** function _RTC_Read_Clock *****************
  4921 ;; Defined at:
  4922 ;;		line 30 in file "RTC.c"
  4923 ;; Parameters:    Size  Location     Type
  4924 ;;  read_clock_a    1    wreg     unsigned char 
  4925 ;; Auto vars:     Size  Location     Type
  4926 ;;  read_clock_a    1    3[COMRAM] unsigned char 
  4927 ;; Return value:  Size  Location     Type
  4928 ;;                  1    wreg      void 
  4929 ;; Registers used:
  4930 ;;		wreg, status,2, status,0, cstack
  4931 ;; Tracked objects:
  4932 ;;		On entry : 0/0
  4933 ;;		On exit  : 0/0
  4934 ;;		Unchanged: 0/0
  4935 ;; Data sizes:     COMRAM   BANK0   BANK1   BANK2   BANK3   BANK4   BANK5   BANK6   BANK7
  4936 ;;      Params:         0       0       0       0       0       0       0       0       0
  4937 ;;      Locals:         1       0       0       0       0       0       0       0       0
  4938 ;;      Temps:          1       0       0       0       0       0       0       0       0
  4939 ;;      Totals:         2       0       0       0       0       0       0       0       0
  4940 ;;Total ram usage:        2 bytes
  4941 ;; Hardware stack levels used: 1
  4942 ;; Hardware stack levels required when called: 3
  4943 ;; This function calls:
  4944 ;;		_I2C_Read
  4945 ;;		_I2C_Repeated_Start
  4946 ;;		_I2C_Start
  4947 ;;		_I2C_Stop
  4948 ;;		_I2C_Write
  4949 ;; This function is called by:
  4950 ;;		_RTC_obtener_hora
  4951 ;;		_configurarHora
  4952 ;; This function uses a non-reentrant model
  4953 ;;
  4954                           
  4955                           	psect	text28
  4956  0039DC                     __ptext28:
  4957                           	callstack 0
  4958  0039DC                     _RTC_Read_Clock:
  4959                           	callstack 21
  4960                           
  4961                           ;incstack = 0
  4962                           ;RTC_Read_Clock@read_clock_address stored from wreg
  4963  0039DC  6E04               	movwf	RTC_Read_Clock@read_clock_address^0,c
  4964  0039DE                     
  4965                           ;RTC.c: 31:     I2C_Start(0xD0);
  4966  0039DE  0ED0               	movlw	208
  4967  0039E0  EC49  F01F         	call	_I2C_Start
  4968                           
  4969                           ;RTC.c: 32:     I2C_Write(read_clock_address);
  4970  0039E4  5004               	movf	RTC_Read_Clock@read_clock_address^0,w,c
  4971  0039E6  ECF6  F01F         	call	_I2C_Write
  4972                           
  4973                           ;RTC.c: 33:     I2C_Repeated_Start(0xD1);
  4974  0039EA  0ED1               	movlw	209
  4975  0039EC  EC60  F01F         	call	_I2C_Repeated_Start
  4976  0039F0                     
  4977                           ;RTC.c: 34:     sec = I2C_Read(0);
  4978  0039F0  0E00               	movlw	0
  4979  0039F2  EC3F  F01E         	call	_I2C_Read
  4980  0039F6  6E03               	movwf	??_RTC_Read_Clock^0,c
  4981  0039F8  5003               	movf	??_RTC_Read_Clock^0,w,c
  4982  0039FA  0101               	movlb	1	; () banked
  4983  0039FC  6FF4               	movwf	_sec& (0+255),b
  4984  0039FE  6BF5               	clrf	(_sec+1)& (0+255),b
  4985  003A00                     
  4986                           ; BSR set to: 1
  4987                           ;RTC.c: 35:     min = I2C_Read(0);
  4988  003A00  0E00               	movlw	0
  4989  003A02  EC3F  F01E         	call	_I2C_Read
  4990  003A06  6E03               	movwf	??_RTC_Read_Clock^0,c
  4991  003A08  5003               	movf	??_RTC_Read_Clock^0,w,c
  4992  003A0A  0101               	movlb	1	; () banked
  4993  003A0C  6FF2               	movwf	_min& (0+255),b
  4994  003A0E  6BF3               	clrf	(_min+1)& (0+255),b
  4995  003A10                     
  4996                           ; BSR set to: 1
  4997                           ;RTC.c: 36:     hour = I2C_Read(1);
  4998  003A10  0E01               	movlw	1
  4999  003A12  EC3F  F01E         	call	_I2C_Read
  5000  003A16  6E03               	movwf	??_RTC_Read_Clock^0,c
  5001  003A18  5003               	movf	??_RTC_Read_Clock^0,w,c
  5002  003A1A  0100               	movlb	0	; () banked
  5003  003A1C  6FF5               	movwf	_hour& (0+255),b
  5004  003A1E  6BF6               	clrf	(_hour+1)& (0+255),b
  5005  003A20                     
  5006                           ; BSR set to: 0
  5007                           ;RTC.c: 37:     I2C_Stop();
  5008  003A20  EC53  F020         	call	_I2C_Stop	;wreg free
  5009  003A24  0012               	return		;funcret
  5010  003A26                     __end_of_RTC_Read_Clock:
  5011                           	callstack 0
  5012                           
  5013 ;; *************** function _RTC_obtener_fecha *****************
  5014 ;; Defined at:
  5015 ;;		line 69 in file "RTC.c"
  5016 ;; Parameters:    Size  Location     Type
  5017 ;;		None
  5018 ;; Auto vars:     Size  Location     Type
  5019 ;;		None
  5020 ;; Return value:  Size  Location     Type
  5021 ;;                  1    wreg      void 
  5022 ;; Registers used:
  5023 ;;		wreg, fsr1l, fsr1h, fsr2l, fsr2h, status,2, status,0, tblptrl, tblptrh, tblptru, cstack
  5024 ;; Tracked objects:
  5025 ;;		On entry : 0/0
  5026 ;;		On exit  : 0/0
  5027 ;;		Unchanged: 0/0
  5028 ;; Data sizes:     COMRAM   BANK0   BANK1   BANK2   BANK3   BANK4   BANK5   BANK6   BANK7
  5029 ;;      Params:         0       0       0       0       0       0       0       0       0
  5030 ;;      Locals:         0       0       0       0       0       0       0       0       0
  5031 ;;      Temps:          0       0       0       0       0       0       0       0       0
  5032 ;;      Totals:         0       0       0       0       0       0       0       0       0
  5033 ;;Total ram usage:        0 bytes
  5034 ;; Hardware stack levels used: 1
  5035 ;; Hardware stack levels required when called: 8
  5036 ;; This function calls:
  5037 ;;		_RTC_Read_Calendar
  5038 ;;		_sprintf
  5039 ;; This function is called by:
  5040 ;;		_obtener_tiempo_fecha
  5041 ;; This function uses a non-reentrant model
  5042 ;;
  5043                           
  5044                           	psect	text29
  5045  003D60                     __ptext29:
  5046                           	callstack 0
  5047  003D60                     _RTC_obtener_fecha:
  5048                           	callstack 17
  5049  003D60                     
  5050                           ;RTC.c: 70:     RTC_Read_Calendar(3);
  5051  003D60  0E03               	movlw	3
  5052  003D62  ECCF  F01B         	call	_RTC_Read_Calendar
  5053  003D66                     
  5054                           ;RTC.c: 71:     sprintf(date, "Date: %x/%x/%x ", Date, Month, Year);
  5055  003D66  0EB4               	movlw	low _date
  5056  003D68  0100               	movlb	0	; () banked
  5057  003D6A  6F68               	movwf	sprintf@s& (0+255),b
  5058  003D6C  0E03               	movlw	high _date
  5059  003D6E  6F69               	movwf	(sprintf@s+1)& (0+255),b
  5060  003D70  0E92               	movlw	low STR_14
  5061  003D72  6F6A               	movwf	sprintf@fmt& (0+255),b
  5062  003D74  0E08               	movlw	high STR_14
  5063  003D76  6F6B               	movwf	(sprintf@fmt+1)& (0+255),b
  5064  003D78  C1EE  F06C         	movff	_Date,?_sprintf+4
  5065  003D7C  C1EF  F06D         	movff	_Date+1,?_sprintf+5
  5066  003D80  C1EC  F06E         	movff	_Month,?_sprintf+6
  5067  003D84  C1ED  F06F         	movff	_Month+1,?_sprintf+7
  5068  003D88  C1EA  F070         	movff	_Year,?_sprintf+8
  5069  003D8C  C1EB  F071         	movff	_Year+1,?_sprintf+9
  5070  003D90  EC26  F01C         	call	_sprintf	;wreg free
  5071  003D94  0012               	return		;funcret
  5072  003D96                     __end_of_RTC_obtener_fecha:
  5073                           	callstack 0
  5074                           
  5075 ;; *************** function _sprintf *****************
  5076 ;; Defined at:
  5077 ;;		line 9 in file "D:\mplab\pic\sources\c99\common\nf_sprintf.c"
  5078 ;; Parameters:    Size  Location     Type
  5079 ;;  s               2    8[BANK0 ] PTR unsigned char 
  5080 ;;		 -> date(60), time(60), mostrar_estadistica@mensaje_usart_853(100), mostrar_estadistica@mensaje_usart_851(100), 
  5081 ;;		 -> mostrar_estadistica@mensaje_usart(100), validar@valor_usart_844(30), validar@valor_usart_842(30), validar@valor_
      +usart(30), 
  5082 ;;		 -> imprimir@aux_luz(16), imprimir@aux_temp(16), imprimir@aux_dist(16), 
  5083 ;;  fmt             2   10[BANK0 ] PTR const unsigned char 
  5084 ;;		 -> STR_14(16), STR_13(16), STR_12(18), STR_11(18), 
  5085 ;;		 -> STR_10(42), STR_9(33), STR_8(34), STR_7(3), 
  5086 ;;		 -> STR_6(3), STR_5(3), STR_4(4), STR_3(4), 
  5087 ;;		 -> STR_2(5), 
  5088 ;; Auto vars:     Size  Location     Type
  5089 ;;  f               6   20[BANK0 ] struct _IO_FILE
  5090 ;;  ap              2   18[BANK0 ] PTR void [1]
  5091 ;;		 -> ?_sprintf(2), 
  5092 ;;  ret             2    0        int 
  5093 ;; Return value:  Size  Location     Type
  5094 ;;                  2    8[BANK0 ] int 
  5095 ;; Registers used:
  5096 ;;		wreg, fsr1l, fsr1h, fsr2l, fsr2h, status,2, status,0, tblptrl, tblptrh, tblptru, cstack
  5097 ;; Tracked objects:
  5098 ;;		On entry : 0/0
  5099 ;;		On exit  : 0/0
  5100 ;;		Unchanged: 0/0
  5101 ;; Data sizes:     COMRAM   BANK0   BANK1   BANK2   BANK3   BANK4   BANK5   BANK6   BANK7
  5102 ;;      Params:         0      10       0       0       0       0       0       0       0
  5103 ;;      Locals:         0       8       0       0       0       0       0       0       0
  5104 ;;      Temps:          0       0       0       0       0       0       0       0       0
  5105 ;;      Totals:         0      18       0       0       0       0       0       0       0
  5106 ;;Total ram usage:       18 bytes
  5107 ;; Hardware stack levels used: 1
  5108 ;; Hardware stack levels required when called: 7
  5109 ;; This function calls:
  5110 ;;		_vfprintf
  5111 ;; This function is called by:
  5112 ;;		_imprimir
  5113 ;;		_validar
  5114 ;;		_mostrar_estadistica
  5115 ;;		_RTC_obtener_hora
  5116 ;;		_RTC_obtener_fecha
  5117 ;; This function uses a non-reentrant model
  5118 ;;
  5119                           
  5120                           	psect	text30
  5121  00384C                     __ptext30:
  5122                           	callstack 0
  5123  00384C                     _sprintf:
  5124                           	callstack 20
  5125  00384C  0E6C               	movlw	low (?_sprintf+4)
  5126  00384E  0100               	movlb	0	; () banked
  5127  003850  6F72               	movwf	sprintf@ap& (0+255),b
  5128  003852  0E00               	movlw	high (?_sprintf+4)
  5129  003854  6F73               	movwf	(sprintf@ap+1)& (0+255),b
  5130  003856  C068  F074         	movff	sprintf@s,sprintf@f
  5131  00385A  C069  F075         	movff	sprintf@s+1,sprintf@f+1
  5132  00385E                     
  5133                           ; BSR set to: 0
  5134  00385E  0E00               	movlw	0
  5135  003860  6F77               	movwf	(sprintf@f+3)& (0+255),b
  5136  003862  0E00               	movlw	0
  5137  003864  6F76               	movwf	(sprintf@f+2)& (0+255),b
  5138  003866                     
  5139                           ; BSR set to: 0
  5140  003866  0E00               	movlw	0
  5141  003868  6F79               	movwf	(sprintf@f+5)& (0+255),b
  5142  00386A  0E00               	movlw	0
  5143  00386C  6F78               	movwf	(sprintf@f+4)& (0+255),b
  5144  00386E                     
  5145                           ; BSR set to: 0
  5146  00386E  0E74               	movlw	low sprintf@f
  5147  003870  6F60               	movwf	vfprintf@fp& (0+255),b
  5148  003872  0E00               	movlw	high sprintf@f
  5149  003874  6F61               	movwf	(vfprintf@fp+1)& (0+255),b
  5150  003876  C06A  F062         	movff	sprintf@fmt,vfprintf@fmt
  5151  00387A  C06B  F063         	movff	sprintf@fmt+1,vfprintf@fmt+1
  5152  00387E  0E72               	movlw	low sprintf@ap
  5153  003880  6F64               	movwf	vfprintf@ap& (0+255),b
  5154  003882  0E00               	movlw	high sprintf@ap
  5155  003884  6F65               	movwf	(vfprintf@ap+1)& (0+255),b
  5156  003886  EC40  F01B         	call	_vfprintf	;wreg free
  5157  00388A  0100               	movlb	0	; () banked
  5158  00388C  5176               	movf	(sprintf@f+2)& (0+255),w,b
  5159  00388E  2568               	addwf	sprintf@s& (0+255),w,b
  5160  003890  6ED9               	movwf	fsr2l,c
  5161  003892  5177               	movf	(sprintf@f+3)& (0+255),w,b
  5162  003894  2169               	addwfc	(sprintf@s+1)& (0+255),w,b
  5163  003896  6EDA               	movwf	fsr2h,c
  5164  003898  0E00               	movlw	0
  5165  00389A  6EDF               	movwf	indf2,c
  5166  00389C                     
  5167                           ; BSR set to: 0
  5168  00389C  0012               	return		;funcret
  5169  00389E                     __end_of_sprintf:
  5170                           	callstack 0
  5171                           
  5172 ;; *************** function _vfprintf *****************
  5173 ;; Defined at:
  5174 ;;		line 1390 in file "D:\mplab\pic\sources\c99\common\doprnt.c"
  5175 ;; Parameters:    Size  Location     Type
  5176 ;;  fp              2    0[BANK0 ] PTR struct _IO_FILE
  5177 ;;		 -> sprintf@f(6), 
  5178 ;;  fmt             2    2[BANK0 ] PTR const unsigned char 
  5179 ;;		 -> STR_14(16), STR_13(16), STR_12(18), STR_11(18), 
  5180 ;;		 -> STR_10(42), STR_9(33), STR_8(34), STR_7(3), 
  5181 ;;		 -> STR_6(3), STR_5(3), STR_4(4), STR_3(4), 
  5182 ;;		 -> STR_2(5), 
  5183 ;;  ap              2    4[BANK0 ] PTR PTR void 
  5184 ;;		 -> sprintf@ap(2), 
  5185 ;; Auto vars:     Size  Location     Type
  5186 ;;  cfmt            2    6[BANK0 ] PTR unsigned char 
  5187 ;;		 -> STR_14(16), STR_13(16), STR_12(18), STR_11(18), 
  5188 ;;		 -> STR_10(42), STR_9(33), STR_8(34), STR_7(3), 
  5189 ;;		 -> STR_6(3), STR_5(3), STR_4(4), STR_3(4), 
  5190 ;;		 -> STR_2(5), 
  5191 ;; Return value:  Size  Location     Type
  5192 ;;                  2    0[BANK0 ] int 
  5193 ;; Registers used:
  5194 ;;		wreg, fsr1l, fsr1h, fsr2l, fsr2h, status,2, status,0, tblptrl, tblptrh, tblptru, cstack
  5195 ;; Tracked objects:
  5196 ;;		On entry : 0/0
  5197 ;;		On exit  : 0/0
  5198 ;;		Unchanged: 0/0
  5199 ;; Data sizes:     COMRAM   BANK0   BANK1   BANK2   BANK3   BANK4   BANK5   BANK6   BANK7
  5200 ;;      Params:         0       6       0       0       0       0       0       0       0
  5201 ;;      Locals:         0       2       0       0       0       0       0       0       0
  5202 ;;      Temps:          0       0       0       0       0       0       0       0       0
  5203 ;;      Totals:         0       8       0       0       0       0       0       0       0
  5204 ;;Total ram usage:        8 bytes
  5205 ;; Hardware stack levels used: 1
  5206 ;; Hardware stack levels required when called: 6
  5207 ;; This function calls:
  5208 ;;		_vfpfcnvrt
  5209 ;; This function is called by:
  5210 ;;		_sprintf
  5211 ;; This function uses a non-reentrant model
  5212 ;;
  5213                           
  5214                           	psect	text31
  5215  003680                     __ptext31:
  5216                           	callstack 0
  5217  003680                     _vfprintf:
  5218                           	callstack 20
  5219  003680                     
  5220                           ;D:\mplab\pic\sources\c99\common\doprnt.c: 1390: int vfprintf(FILE *fp, const char *fmt,
      +                           va_list ap);D:\mplab\pic\sources\c99\common\doprnt.c: 1391: {;D:\mplab\pic\sources\c99\
      +                          common\doprnt.c: 1393:     char *cfmt;;D:\mplab\pic\sources\c99\common\doprnt.c: 1395:  
      +                             cfmt = (char *)fmt;
  5221  003680  C062  F066         	movff	vfprintf@fmt,vfprintf@cfmt
  5222  003684  C063  F067         	movff	vfprintf@fmt+1,vfprintf@cfmt+1
  5223  003688                     
  5224                           ;D:\mplab\pic\sources\c99\common\doprnt.c: 1396:     nout = 0;
  5225  003688  0E00               	movlw	0
  5226  00368A  0101               	movlb	1	; () banked
  5227  00368C  6FE7               	movwf	(_nout+1)& (0+255),b
  5228  00368E  0E00               	movlw	0
  5229  003690  6FE6               	movwf	_nout& (0+255),b
  5230                           
  5231                           ;D:\mplab\pic\sources\c99\common\doprnt.c: 1397:     while (*cfmt) {
  5232  003692  EF5E  F01B         	goto	l3906
  5233  003696                     l3904:
  5234                           
  5235                           ; BSR set to: 1
  5236                           ;D:\mplab\pic\sources\c99\common\doprnt.c: 1398:         nout += vfpfcnvrt(fp, &cfmt, ap
      +                          );
  5237  003696  C060  F043         	movff	vfprintf@fp,vfpfcnvrt@fp
  5238  00369A  C061  F044         	movff	vfprintf@fp+1,vfpfcnvrt@fp+1
  5239  00369E  0E66               	movlw	low vfprintf@cfmt
  5240  0036A0  6E45               	movwf	vfpfcnvrt@fmt^0,c
  5241  0036A2  0E00               	movlw	high vfprintf@cfmt
  5242  0036A4  6E46               	movwf	(vfpfcnvrt@fmt+1)^0,c
  5243  0036A6  C064  F047         	movff	vfprintf@ap,vfpfcnvrt@ap
  5244  0036AA  C065  F048         	movff	vfprintf@ap+1,vfpfcnvrt@ap+1
  5245  0036AE  ECA9  F00A         	call	_vfpfcnvrt	;wreg free
  5246  0036B2  5043               	movf	?_vfpfcnvrt^0,w,c
  5247  0036B4  0101               	movlb	1	; () banked
  5248  0036B6  27E6               	addwf	_nout& (0+255),f,b
  5249  0036B8  5044               	movf	(?_vfpfcnvrt+1)^0,w,c
  5250  0036BA  23E7               	addwfc	(_nout+1)& (0+255),f,b
  5251  0036BC                     l3906:
  5252                           
  5253                           ; BSR set to: 1
  5254                           ;D:\mplab\pic\sources\c99\common\doprnt.c: 1397:     while (*cfmt) {
  5255  0036BC  C066  FFF6         	movff	vfprintf@cfmt,tblptrl
  5256  0036C0  C067  FFF7         	movff	vfprintf@cfmt+1,tblptrh
  5257  0036C4                     	if	0	;tblptru may be non-zero
  5258  0036C4                     	endif
  5259  0036C4                     	if	0	;tblptru may be non-zero
  5260  0036C4                     	endif
  5261  0036C4  0008               	tblrd		*
  5262  0036C6  50F5               	movf	tablat,w,c
  5263  0036C8  0900               	iorlw	0
  5264  0036CA  A4D8               	btfss	status,2,c
  5265  0036CC  EF6A  F01B         	goto	u3771
  5266  0036D0  EF6C  F01B         	goto	u3770
  5267  0036D4                     u3771:
  5268  0036D4  EF4B  F01B         	goto	l3904
  5269  0036D8                     u3770:
  5270  0036D8                     
  5271                           ; BSR set to: 1
  5272                           ;D:\mplab\pic\sources\c99\common\doprnt.c: 1400:     return nout;
  5273  0036D8  C1E6  F060         	movff	_nout,?_vfprintf
  5274  0036DC  C1E7  F061         	movff	_nout+1,?_vfprintf+1
  5275  0036E0                     
  5276                           ; BSR set to: 1
  5277  0036E0  0012               	return		;funcret
  5278  0036E2                     __end_of_vfprintf:
  5279                           	callstack 0
  5280                           
  5281 ;; *************** function _vfpfcnvrt *****************
  5282 ;; Defined at:
  5283 ;;		line 692 in file "D:\mplab\pic\sources\c99\common\doprnt.c"
  5284 ;; Parameters:    Size  Location     Type
  5285 ;;  fp              2   66[COMRAM] PTR struct _IO_FILE
  5286 ;;		 -> sprintf@f(6), 
  5287 ;;  fmt             2   68[COMRAM] PTR PTR unsigned char 
  5288 ;;		 -> vfprintf@cfmt(2), 
  5289 ;;  ap              2   70[COMRAM] PTR PTR void 
  5290 ;;		 -> sprintf@ap(2), 
  5291 ;; Auto vars:     Size  Location     Type
  5292 ;;  llu             8   84[COMRAM] unsigned long long 
  5293 ;;  ll              8   76[COMRAM] long long 
  5294 ;;  f               4    0        long long 
  5295 ;;  vp              3    0        PTR void 
  5296 ;;  ct              3    0        unsigned char [3]
  5297 ;;  cp              2   92[COMRAM] PTR unsigned char 
  5298 ;;		 -> ?_sprintf(2), date(60), validar@valor_usart_844(30), validar@valor_usart_842(30), 
  5299 ;;		 -> validar@valor_usart(30), 
  5300 ;;  i               2    0        int 
  5301 ;;  done            2    0        int 
  5302 ;;  c               1   94[COMRAM] unsigned char 
  5303 ;; Return value:  Size  Location     Type
  5304 ;;                  2   66[COMRAM] int 
  5305 ;; Registers used:
  5306 ;;		wreg, fsr1l, fsr1h, fsr2l, fsr2h, status,2, status,0, tblptrl, tblptrh, tblptru, cstack
  5307 ;; Tracked objects:
  5308 ;;		On entry : 0/0
  5309 ;;		On exit  : 0/0
  5310 ;;		Unchanged: 0/0
  5311 ;; Data sizes:     COMRAM   BANK0   BANK1   BANK2   BANK3   BANK4   BANK5   BANK6   BANK7
  5312 ;;      Params:         6       0       0       0       0       0       0       0       0
  5313 ;;      Locals:        19       0       0       0       0       0       0       0       0
  5314 ;;      Temps:          4       0       0       0       0       0       0       0       0
  5315 ;;      Totals:        29       0       0       0       0       0       0       0       0
  5316 ;;Total ram usage:       29 bytes
  5317 ;; Hardware stack levels used: 1
  5318 ;; Hardware stack levels required when called: 5
  5319 ;; This function calls:
  5320 ;;		_dtoa
  5321 ;;		_fputc
  5322 ;;		_stoa
  5323 ;;		_xtoa
  5324 ;; This function is called by:
  5325 ;;		_vfprintf
  5326 ;; This function uses a non-reentrant model
  5327 ;;
  5328                           
  5329                           	psect	text32
  5330  001552                     __ptext32:
  5331                           	callstack 0
  5332  001552                     _vfpfcnvrt:
  5333                           	callstack 20
  5334  001552                     
  5335                           ;D:\mplab\pic\sources\c99\common\doprnt.c: 692: static int vfpfcnvrt(FILE *fp, char *fmt
      +                          [], va_list ap);D:\mplab\pic\sources\c99\common\doprnt.c: 693: {;D:\mplab\pic\sources\c9
      +                          9\common\doprnt.c: 694:     char c, *cp, ct[3];;D:\mplab\pic\sources\c99\common\doprnt.c
      +                          : 695:     int done, i;;D:\mplab\pic\sources\c99\common\doprnt.c: 696:     long long ll;
      +                          ;D:\mplab\pic\sources\c99\common\doprnt.c: 697:     unsigned long long llu;;D:\mplab\pic
      +                          \sources\c99\common\doprnt.c: 698:     long double f;;D:\mplab\pic\sources\c99\common\do
      +                          prnt.c: 699:     void *vp;
  5336  001552  C045  FFD9         	movff	vfpfcnvrt@fmt,fsr2l
  5337  001556  C046  FFDA         	movff	vfpfcnvrt@fmt+1,fsr2h
  5338  00155A  CFDE FFF6          	movff	postinc2,tblptrl
  5339  00155E  CFDD FFF7          	movff	postdec2,tblptrh
  5340  001562                     	if	0	;tblptru may be non-zero
  5341  001562                     	endif
  5342  001562                     	if	0	;tblptru may be non-zero
  5343  001562                     	endif
  5344  001562  0008               	tblrd		*
  5345  001564  50F5               	movf	tablat,w,c
  5346  001566  0A25               	xorlw	37
  5347  001568  A4D8               	btfss	status,2,c
  5348  00156A  EFB9  F00A         	goto	u3631
  5349  00156E  EFBB  F00A         	goto	u3630
  5350  001572                     u3631:
  5351  001572  EF17  F00C         	goto	l3858
  5352  001576                     u3630:
  5353  001576                     
  5354                           ;D:\mplab\pic\sources\c99\common\doprnt.c: 703:         ++*fmt;
  5355  001576  C045  FFD9         	movff	vfpfcnvrt@fmt,fsr2l
  5356  00157A  C046  FFDA         	movff	vfpfcnvrt@fmt+1,fsr2h
  5357  00157E  2ADE               	incf	postinc2,f,c
  5358  001580  0E00               	movlw	0
  5359  001582  22DD               	addwfc	postdec2,f,c
  5360  001584                     
  5361                           ;D:\mplab\pic\sources\c99\common\doprnt.c: 705:         flags = width = 0;
  5362  001584  0E00               	movlw	0
  5363  001586  0101               	movlb	1	; () banked
  5364  001588  6FE9               	movwf	(_width+1)& (0+255),b
  5365  00158A  0E00               	movlw	0
  5366  00158C  6FE8               	movwf	_width& (0+255),b
  5367  00158E  C1E8  F0F3         	movff	_width,_flags
  5368  001592  C1E9  F0F4         	movff	_width+1,_flags+1
  5369  001596                     
  5370                           ; BSR set to: 1
  5371                           ;D:\mplab\pic\sources\c99\common\doprnt.c: 706:         prec = -1;
  5372  001596  0100               	movlb	0	; () banked
  5373  001598  69F1               	setf	_prec& (0+255),b
  5374  00159A  69F2               	setf	(_prec+1)& (0+255),b
  5375  00159C                     
  5376                           ; BSR set to: 0
  5377                           ;D:\mplab\pic\sources\c99\common\doprnt.c: 847:         if ((*fmt[0] == 'd') || (*fmt[0]
      +                           == 'i')) {
  5378  00159C  C045  FFD9         	movff	vfpfcnvrt@fmt,fsr2l
  5379  0015A0  C046  FFDA         	movff	vfpfcnvrt@fmt+1,fsr2h
  5380  0015A4  CFDE FFF6          	movff	postinc2,tblptrl
  5381  0015A8  CFDD FFF7          	movff	postdec2,tblptrh
  5382  0015AC                     	if	0	;tblptru may be non-zero
  5383  0015AC                     	endif
  5384  0015AC                     	if	0	;tblptru may be non-zero
  5385  0015AC                     	endif
  5386  0015AC  0008               	tblrd		*
  5387  0015AE  50F5               	movf	tablat,w,c
  5388  0015B0  0A64               	xorlw	100
  5389  0015B2  B4D8               	btfsc	status,2,c
  5390  0015B4  EFDE  F00A         	goto	u3641
  5391  0015B8  EFE0  F00A         	goto	u3640
  5392  0015BC                     u3641:
  5393  0015BC  EFF2  F00A         	goto	l3814
  5394  0015C0                     u3640:
  5395  0015C0                     
  5396                           ; BSR set to: 0
  5397  0015C0  C045  FFD9         	movff	vfpfcnvrt@fmt,fsr2l
  5398  0015C4  C046  FFDA         	movff	vfpfcnvrt@fmt+1,fsr2h
  5399  0015C8  CFDE FFF6          	movff	postinc2,tblptrl
  5400  0015CC  CFDD FFF7          	movff	postdec2,tblptrh
  5401  0015D0                     	if	0	;tblptru may be non-zero
  5402  0015D0                     	endif
  5403  0015D0                     	if	0	;tblptru may be non-zero
  5404  0015D0                     	endif
  5405  0015D0  0008               	tblrd		*
  5406  0015D2  50F5               	movf	tablat,w,c
  5407  0015D4  0A69               	xorlw	105
  5408  0015D6  A4D8               	btfss	status,2,c
  5409  0015D8  EFF0  F00A         	goto	u3651
  5410  0015DC  EFF2  F00A         	goto	u3650
  5411  0015E0                     u3651:
  5412  0015E0  EF32  F00B         	goto	l3820
  5413  0015E4                     u3650:
  5414  0015E4                     l3814:
  5415                           
  5416                           ; BSR set to: 0
  5417                           ;D:\mplab\pic\sources\c99\common\doprnt.c: 849:             ++*fmt;
  5418  0015E4  C045  FFD9         	movff	vfpfcnvrt@fmt,fsr2l
  5419  0015E8  C046  FFDA         	movff	vfpfcnvrt@fmt+1,fsr2h
  5420  0015EC  2ADE               	incf	postinc2,f,c
  5421  0015EE  0E00               	movlw	0
  5422  0015F0  22DD               	addwfc	postdec2,f,c
  5423                           
  5424                           ;D:\mplab\pic\sources\c99\common\doprnt.c: 850:             ll = (long long)(*(int *)__v
      +                          a_arg(*(int **)ap, (int)0));
  5425  0015F2  C047  FFD9         	movff	vfpfcnvrt@ap,fsr2l
  5426  0015F6  C048  FFDA         	movff	vfpfcnvrt@ap+1,fsr2h
  5427  0015FA  CFDF F049          	movff	indf2,??_vfpfcnvrt
  5428  0015FE  0E02               	movlw	2
  5429  001600  26DE               	addwf	postinc2,f,c
  5430  001602  CFDF F04A          	movff	indf2,??_vfpfcnvrt+1
  5431  001606  0E00               	movlw	0
  5432  001608  22DD               	addwfc	postdec2,f,c
  5433  00160A  C049  FFD9         	movff	??_vfpfcnvrt,fsr2l
  5434  00160E  C04A  FFDA         	movff	??_vfpfcnvrt+1,fsr2h
  5435  001612  CFDE F04D          	movff	postinc2,vfpfcnvrt@ll
  5436  001616  CFDD F04E          	movff	postdec2,vfpfcnvrt@ll+1
  5437  00161A  0E00               	movlw	0
  5438  00161C  BE4E               	btfsc	(vfpfcnvrt@ll+1)^0,7,c
  5439  00161E  0EFF               	movlw	-1
  5440  001620  6E4F               	movwf	(vfpfcnvrt@ll+2)^0,c
  5441  001622  6E50               	movwf	(vfpfcnvrt@ll+3)^0,c
  5442  001624  6E51               	movwf	(vfpfcnvrt@ll+4)^0,c
  5443  001626  6E52               	movwf	(vfpfcnvrt@ll+5)^0,c
  5444  001628  6E53               	movwf	(vfpfcnvrt@ll+6)^0,c
  5445  00162A  6E54               	movwf	(vfpfcnvrt@ll+7)^0,c
  5446  00162C                     
  5447                           ; BSR set to: 0
  5448                           ;D:\mplab\pic\sources\c99\common\doprnt.c: 852:             return dtoa(fp, ll);
  5449  00162C  C043  F01C         	movff	vfpfcnvrt@fp,dtoa@fp
  5450  001630  C044  F01D         	movff	vfpfcnvrt@fp+1,dtoa@fp+1
  5451  001634  C04D  F01E         	movff	vfpfcnvrt@ll,dtoa@d
  5452  001638  C04E  F01F         	movff	vfpfcnvrt@ll+1,dtoa@d+1
  5453  00163C  C04F  F020         	movff	vfpfcnvrt@ll+2,dtoa@d+2
  5454  001640  C050  F021         	movff	vfpfcnvrt@ll+3,dtoa@d+3
  5455  001644  C051  F022         	movff	vfpfcnvrt@ll+4,dtoa@d+4
  5456  001648  C052  F023         	movff	vfpfcnvrt@ll+5,dtoa@d+5
  5457  00164C  C053  F024         	movff	vfpfcnvrt@ll+6,dtoa@d+6
  5458  001650  C054  F025         	movff	vfpfcnvrt@ll+7,dtoa@d+7
  5459  001654  EC33  F00C         	call	_dtoa	;wreg free
  5460  001658  C01C  F043         	movff	?_dtoa,?_vfpfcnvrt
  5461  00165C  C01D  F044         	movff	?_dtoa+1,?_vfpfcnvrt+1
  5462  001660  EF32  F00C         	goto	l1509
  5463  001664                     l3820:
  5464                           
  5465                           ; BSR set to: 0
  5466                           ;D:\mplab\pic\sources\c99\common\doprnt.c: 1171:         if (*fmt[0] == 's') {
  5467  001664  C045  FFD9         	movff	vfpfcnvrt@fmt,fsr2l
  5468  001668  C046  FFDA         	movff	vfpfcnvrt@fmt+1,fsr2h
  5469  00166C  CFDE FFF6          	movff	postinc2,tblptrl
  5470  001670  CFDD FFF7          	movff	postdec2,tblptrh
  5471  001674                     	if	0	;tblptru may be non-zero
  5472  001674                     	endif
  5473  001674                     	if	0	;tblptru may be non-zero
  5474  001674                     	endif
  5475  001674  0008               	tblrd		*
  5476  001676  50F5               	movf	tablat,w,c
  5477  001678  0A73               	xorlw	115
  5478  00167A  A4D8               	btfss	status,2,c
  5479  00167C  EF42  F00B         	goto	u3661
  5480  001680  EF44  F00B         	goto	u3660
  5481  001684                     u3661:
  5482  001684  EF6F  F00B         	goto	l3828
  5483  001688                     u3660:
  5484  001688                     
  5485                           ; BSR set to: 0
  5486                           ;D:\mplab\pic\sources\c99\common\doprnt.c: 1173:             ++*fmt;
  5487  001688  C045  FFD9         	movff	vfpfcnvrt@fmt,fsr2l
  5488  00168C  C046  FFDA         	movff	vfpfcnvrt@fmt+1,fsr2h
  5489  001690  2ADE               	incf	postinc2,f,c
  5490  001692  0E00               	movlw	0
  5491  001694  22DD               	addwfc	postdec2,f,c
  5492                           
  5493                           ;D:\mplab\pic\sources\c99\common\doprnt.c: 1174:             cp = (*(char * *)__va_arg(*
      +                          (char * **)ap, (char *)0));
  5494  001696  C047  FFD9         	movff	vfpfcnvrt@ap,fsr2l
  5495  00169A  C048  FFDA         	movff	vfpfcnvrt@ap+1,fsr2h
  5496  00169E  CFDF F049          	movff	indf2,??_vfpfcnvrt
  5497  0016A2  0E02               	movlw	2
  5498  0016A4  26DE               	addwf	postinc2,f,c
  5499  0016A6  CFDF F04A          	movff	indf2,??_vfpfcnvrt+1
  5500  0016AA  0E00               	movlw	0
  5501  0016AC  22DD               	addwfc	postdec2,f,c
  5502  0016AE  C049  FFD9         	movff	??_vfpfcnvrt,fsr2l
  5503  0016B2  C04A  FFDA         	movff	??_vfpfcnvrt+1,fsr2h
  5504  0016B6  CFDE F05D          	movff	postinc2,vfpfcnvrt@cp
  5505  0016BA  CFDD F05E          	movff	postdec2,vfpfcnvrt@cp+1
  5506  0016BE                     
  5507                           ; BSR set to: 0
  5508                           ;D:\mplab\pic\sources\c99\common\doprnt.c: 1176:             return stoa(fp, cp);
  5509  0016BE  C043  F00A         	movff	vfpfcnvrt@fp,stoa@fp
  5510  0016C2  C044  F00B         	movff	vfpfcnvrt@fp+1,stoa@fp+1
  5511  0016C6  C05D  F00C         	movff	vfpfcnvrt@cp,stoa@s
  5512  0016CA  C05E  F00D         	movff	vfpfcnvrt@cp+1,stoa@s+1
  5513  0016CE  EC5D  F013         	call	_stoa	;wreg free
  5514  0016D2  C00A  F043         	movff	?_stoa,?_vfpfcnvrt
  5515  0016D6  C00B  F044         	movff	?_stoa+1,?_vfpfcnvrt+1
  5516  0016DA  EF32  F00C         	goto	l1509
  5517  0016DE                     l3828:
  5518                           
  5519                           ; BSR set to: 0
  5520                           ;D:\mplab\pic\sources\c99\common\doprnt.c: 1296:         if ((*fmt[0] == 'x') || (*fmt[0
      +                          ] == 'X')) {
  5521  0016DE  C045  FFD9         	movff	vfpfcnvrt@fmt,fsr2l
  5522  0016E2  C046  FFDA         	movff	vfpfcnvrt@fmt+1,fsr2h
  5523  0016E6  CFDE FFF6          	movff	postinc2,tblptrl
  5524  0016EA  CFDD FFF7          	movff	postdec2,tblptrh
  5525  0016EE                     	if	0	;tblptru may be non-zero
  5526  0016EE                     	endif
  5527  0016EE                     	if	0	;tblptru may be non-zero
  5528  0016EE                     	endif
  5529  0016EE  0008               	tblrd		*
  5530  0016F0  50F5               	movf	tablat,w,c
  5531  0016F2  0A78               	xorlw	120
  5532  0016F4  B4D8               	btfsc	status,2,c
  5533  0016F6  EF7F  F00B         	goto	u3671
  5534  0016FA  EF81  F00B         	goto	u3670
  5535  0016FE                     u3671:
  5536  0016FE  EF93  F00B         	goto	l3832
  5537  001702                     u3670:
  5538  001702                     
  5539                           ; BSR set to: 0
  5540  001702  C045  FFD9         	movff	vfpfcnvrt@fmt,fsr2l
  5541  001706  C046  FFDA         	movff	vfpfcnvrt@fmt+1,fsr2h
  5542  00170A  CFDE FFF6          	movff	postinc2,tblptrl
  5543  00170E  CFDD FFF7          	movff	postdec2,tblptrh
  5544  001712                     	if	0	;tblptru may be non-zero
  5545  001712                     	endif
  5546  001712                     	if	0	;tblptru may be non-zero
  5547  001712                     	endif
  5548  001712  0008               	tblrd		*
  5549  001714  50F5               	movf	tablat,w,c
  5550  001716  0A58               	xorlw	88
  5551  001718  A4D8               	btfss	status,2,c
  5552  00171A  EF91  F00B         	goto	u3681
  5553  00171E  EF93  F00B         	goto	u3680
  5554  001722                     u3681:
  5555  001722  EFE1  F00B         	goto	l3842
  5556  001726                     u3680:
  5557  001726                     l3832:
  5558                           
  5559                           ; BSR set to: 0
  5560                           ;D:\mplab\pic\sources\c99\common\doprnt.c: 1298:             c = (*fmt)[0];
  5561  001726  C045  FFD9         	movff	vfpfcnvrt@fmt,fsr2l
  5562  00172A  C046  FFDA         	movff	vfpfcnvrt@fmt+1,fsr2h
  5563  00172E  CFDE FFF6          	movff	postinc2,tblptrl
  5564  001732  CFDD FFF7          	movff	postdec2,tblptrh
  5565  001736                     	if	0	;tblptru may be non-zero
  5566  001736                     	endif
  5567  001736                     	if	0	;tblptru may be non-zero
  5568  001736                     	endif
  5569  001736  0008               	tblrd		*
  5570  001738  CFF5 F05F          	movff	tablat,vfpfcnvrt@c
  5571  00173C                     
  5572                           ; BSR set to: 0
  5573                           ;D:\mplab\pic\sources\c99\common\doprnt.c: 1299:             ++*fmt;
  5574  00173C  C045  FFD9         	movff	vfpfcnvrt@fmt,fsr2l
  5575  001740  C046  FFDA         	movff	vfpfcnvrt@fmt+1,fsr2h
  5576  001744  2ADE               	incf	postinc2,f,c
  5577  001746  0E00               	movlw	0
  5578  001748  22DD               	addwfc	postdec2,f,c
  5579  00174A                     
  5580                           ; BSR set to: 0
  5581                           ;D:\mplab\pic\sources\c99\common\doprnt.c: 1300:             llu = (unsigned long long)(
      +                          *(unsigned int *)__va_arg(*(unsigned int **)ap, (unsigned int)0));
  5582  00174A  C047  FFD9         	movff	vfpfcnvrt@ap,fsr2l
  5583  00174E  C048  FFDA         	movff	vfpfcnvrt@ap+1,fsr2h
  5584  001752  CFDF F049          	movff	indf2,??_vfpfcnvrt
  5585  001756  0E02               	movlw	2
  5586  001758  26DE               	addwf	postinc2,f,c
  5587  00175A  CFDF F04A          	movff	indf2,??_vfpfcnvrt+1
  5588  00175E  0E00               	movlw	0
  5589  001760  22DD               	addwfc	postdec2,f,c
  5590  001762  C049  FFD9         	movff	??_vfpfcnvrt,fsr2l
  5591  001766  C04A  FFDA         	movff	??_vfpfcnvrt+1,fsr2h
  5592  00176A  CFDE F04B          	movff	postinc2,??_vfpfcnvrt+2
  5593  00176E  CFDD F04C          	movff	postdec2,??_vfpfcnvrt+3
  5594  001772  C04B  F055         	movff	??_vfpfcnvrt+2,vfpfcnvrt@llu
  5595  001776  C04C  F056         	movff	??_vfpfcnvrt+3,vfpfcnvrt@llu+1
  5596  00177A  6A57               	clrf	(vfpfcnvrt@llu+2)^0,c
  5597  00177C  6A58               	clrf	(vfpfcnvrt@llu+3)^0,c
  5598  00177E  6A59               	clrf	(vfpfcnvrt@llu+4)^0,c
  5599  001780  6A5A               	clrf	(vfpfcnvrt@llu+5)^0,c
  5600  001782  6A5B               	clrf	(vfpfcnvrt@llu+6)^0,c
  5601  001784  6A5C               	clrf	(vfpfcnvrt@llu+7)^0,c
  5602  001786                     
  5603                           ; BSR set to: 0
  5604                           ;D:\mplab\pic\sources\c99\common\doprnt.c: 1302:             return xtoa(fp, llu, c);
  5605  001786  C043  F01C         	movff	vfpfcnvrt@fp,xtoa@fp
  5606  00178A  C044  F01D         	movff	vfpfcnvrt@fp+1,xtoa@fp+1
  5607  00178E  C055  F01E         	movff	vfpfcnvrt@llu,xtoa@d
  5608  001792  C056  F01F         	movff	vfpfcnvrt@llu+1,xtoa@d+1
  5609  001796  C057  F020         	movff	vfpfcnvrt@llu+2,xtoa@d+2
  5610  00179A  C058  F021         	movff	vfpfcnvrt@llu+3,xtoa@d+3
  5611  00179E  C059  F022         	movff	vfpfcnvrt@llu+4,xtoa@d+4
  5612  0017A2  C05A  F023         	movff	vfpfcnvrt@llu+5,xtoa@d+5
  5613  0017A6  C05B  F024         	movff	vfpfcnvrt@llu+6,xtoa@d+6
  5614  0017AA  C05C  F025         	movff	vfpfcnvrt@llu+7,xtoa@d+7
  5615  0017AE  C05F  F026         	movff	vfpfcnvrt@c,xtoa@x
  5616  0017B2  ECA5  F00D         	call	_xtoa	;wreg free
  5617  0017B6  C01C  F043         	movff	?_xtoa,?_vfpfcnvrt
  5618  0017BA  C01D  F044         	movff	?_xtoa+1,?_vfpfcnvrt+1
  5619  0017BE  EF32  F00C         	goto	l1509
  5620  0017C2                     l3842:
  5621                           
  5622                           ; BSR set to: 0
  5623                           ;D:\mplab\pic\sources\c99\common\doprnt.c: 1372:         if ((*fmt)[0] == '%') {
  5624  0017C2  C045  FFD9         	movff	vfpfcnvrt@fmt,fsr2l
  5625  0017C6  C046  FFDA         	movff	vfpfcnvrt@fmt+1,fsr2h
  5626  0017CA  CFDE FFF6          	movff	postinc2,tblptrl
  5627  0017CE  CFDD FFF7          	movff	postdec2,tblptrh
  5628  0017D2                     	if	0	;tblptru may be non-zero
  5629  0017D2                     	endif
  5630  0017D2                     	if	0	;tblptru may be non-zero
  5631  0017D2                     	endif
  5632  0017D2  0008               	tblrd		*
  5633  0017D4  50F5               	movf	tablat,w,c
  5634  0017D6  0A25               	xorlw	37
  5635  0017D8  A4D8               	btfss	status,2,c
  5636  0017DA  EFF1  F00B         	goto	u3691
  5637  0017DE  EFF3  F00B         	goto	u3690
  5638  0017E2                     u3691:
  5639  0017E2  EF0A  F00C         	goto	l3852
  5640  0017E6                     u3690:
  5641  0017E6                     
  5642                           ; BSR set to: 0
  5643                           ;D:\mplab\pic\sources\c99\common\doprnt.c: 1373:             ++*fmt;
  5644  0017E6  C045  FFD9         	movff	vfpfcnvrt@fmt,fsr2l
  5645  0017EA  C046  FFDA         	movff	vfpfcnvrt@fmt+1,fsr2h
  5646  0017EE  2ADE               	incf	postinc2,f,c
  5647  0017F0  0E00               	movlw	0
  5648  0017F2  22DD               	addwfc	postdec2,f,c
  5649  0017F4                     
  5650                           ; BSR set to: 0
  5651                           ;D:\mplab\pic\sources\c99\common\doprnt.c: 1374:             fputc((int)'%', fp);
  5652  0017F4  0E00               	movlw	0
  5653  0017F6  6E02               	movwf	(fputc@c+1)^0,c
  5654  0017F8  0E25               	movlw	37
  5655  0017FA  6E01               	movwf	fputc@c^0,c
  5656  0017FC  C043  F003         	movff	vfpfcnvrt@fp,fputc@fp
  5657  001800  C044  F004         	movff	vfpfcnvrt@fp+1,fputc@fp+1
  5658  001804  EC3F  F017         	call	_fputc	;wreg free
  5659  001808                     l3848:
  5660                           
  5661                           ;D:\mplab\pic\sources\c99\common\doprnt.c: 1375:             return 1;
  5662  001808  0E00               	movlw	0
  5663  00180A  6E44               	movwf	(?_vfpfcnvrt+1)^0,c
  5664  00180C  0E01               	movlw	1
  5665  00180E  6E43               	movwf	?_vfpfcnvrt^0,c
  5666  001810  EF32  F00C         	goto	l1509
  5667  001814                     l3852:
  5668                           
  5669                           ; BSR set to: 0
  5670                           ;D:\mplab\pic\sources\c99\common\doprnt.c: 1379:         ++*fmt;
  5671  001814  C045  FFD9         	movff	vfpfcnvrt@fmt,fsr2l
  5672  001818  C046  FFDA         	movff	vfpfcnvrt@fmt+1,fsr2h
  5673  00181C  2ADE               	incf	postinc2,f,c
  5674  00181E  0E00               	movlw	0
  5675  001820  22DD               	addwfc	postdec2,f,c
  5676  001822                     
  5677                           ; BSR set to: 0
  5678                           ;D:\mplab\pic\sources\c99\common\doprnt.c: 1380:         return 0;
  5679  001822  0E00               	movlw	0
  5680  001824  6E44               	movwf	(?_vfpfcnvrt+1)^0,c
  5681  001826  0E00               	movlw	0
  5682  001828  6E43               	movwf	?_vfpfcnvrt^0,c
  5683  00182A  EF32  F00C         	goto	l1509
  5684  00182E                     l3858:
  5685                           
  5686                           ;D:\mplab\pic\sources\c99\common\doprnt.c: 1384:     fputc((int)(*fmt)[0], fp);
  5687  00182E  C045  FFD9         	movff	vfpfcnvrt@fmt,fsr2l
  5688  001832  C046  FFDA         	movff	vfpfcnvrt@fmt+1,fsr2h
  5689  001836  CFDE FFF6          	movff	postinc2,tblptrl
  5690  00183A  CFDD FFF7          	movff	postdec2,tblptrh
  5691  00183E                     	if	0	;tblptru may be non-zero
  5692  00183E                     	endif
  5693  00183E                     	if	0	;tblptru may be non-zero
  5694  00183E                     	endif
  5695  00183E  0008               	tblrd		*
  5696  001840  50F5               	movf	tablat,w,c
  5697  001842  6E01               	movwf	fputc@c^0,c
  5698  001844  6A02               	clrf	(fputc@c+1)^0,c
  5699  001846  C043  F003         	movff	vfpfcnvrt@fp,fputc@fp
  5700  00184A  C044  F004         	movff	vfpfcnvrt@fp+1,fputc@fp+1
  5701  00184E  EC3F  F017         	call	_fputc	;wreg free
  5702  001852                     
  5703                           ;D:\mplab\pic\sources\c99\common\doprnt.c: 1385:     ++*fmt;
  5704  001852  C045  FFD9         	movff	vfpfcnvrt@fmt,fsr2l
  5705  001856  C046  FFDA         	movff	vfpfcnvrt@fmt+1,fsr2h
  5706  00185A  2ADE               	incf	postinc2,f,c
  5707  00185C  0E00               	movlw	0
  5708  00185E  22DD               	addwfc	postdec2,f,c
  5709  001860  EF04  F00C         	goto	l3848
  5710  001864                     l1509:
  5711  001864  0012               	return		;funcret
  5712  001866                     __end_of_vfpfcnvrt:
  5713                           	callstack 0
  5714                           
  5715 ;; *************** function _xtoa *****************
  5716 ;; Defined at:
  5717 ;;		line 645 in file "D:\mplab\pic\sources\c99\common\doprnt.c"
  5718 ;; Parameters:    Size  Location     Type
  5719 ;;  fp              2   27[COMRAM] PTR struct _IO_FILE
  5720 ;;		 -> sprintf@f(6), 
  5721 ;;  d               8   29[COMRAM] unsigned long long 
  5722 ;;  x               1   37[COMRAM] unsigned char 
  5723 ;; Auto vars:     Size  Location     Type
  5724 ;;  n               8   54[COMRAM] unsigned long long 
  5725 ;;  c               2   64[COMRAM] int 
  5726 ;;  i               2   62[COMRAM] int 
  5727 ;;  w               2   52[COMRAM] int 
  5728 ;;  p               2   50[COMRAM] int 
  5729 ;; Return value:  Size  Location     Type
  5730 ;;                  2   27[COMRAM] int 
  5731 ;; Registers used:
  5732 ;;		wreg, fsr1l, fsr1h, fsr2l, fsr2h, status,2, status,0, cstack
  5733 ;; Tracked objects:
  5734 ;;		On entry : 0/0
  5735 ;;		On exit  : 0/0
  5736 ;;		Unchanged: 0/0
  5737 ;; Data sizes:     COMRAM   BANK0   BANK1   BANK2   BANK3   BANK4   BANK5   BANK6   BANK7
  5738 ;;      Params:        11       0       0       0       0       0       0       0       0
  5739 ;;      Locals:        20       0       0       0       0       0       0       0       0
  5740 ;;      Temps:          8       0       0       0       0       0       0       0       0
  5741 ;;      Totals:        39       0       0       0       0       0       0       0       0
  5742 ;;Total ram usage:       39 bytes
  5743 ;; Hardware stack levels used: 1
  5744 ;; Hardware stack levels required when called: 4
  5745 ;; This function calls:
  5746 ;;		_isalpha
  5747 ;;		_isupper
  5748 ;;		_pad
  5749 ;;		_toupper
  5750 ;; This function is called by:
  5751 ;;		_vfpfcnvrt
  5752 ;; This function uses a non-reentrant model
  5753 ;;
  5754                           
  5755                           	psect	text33
  5756  001B4A                     __ptext33:
  5757                           	callstack 0
  5758  001B4A                     _xtoa:
  5759                           	callstack 20
  5760  001B4A                     
  5761                           ;D:\mplab\pic\sources\c99\common\doprnt.c: 645: static int xtoa(FILE *fp, unsigned long 
      +                          long d, char x);D:\mplab\pic\sources\c99\common\doprnt.c: 646: {;D:\mplab\pic\sources\c9
      +                          9\common\doprnt.c: 647:     int c, i, p, w;;D:\mplab\pic\sources\c99\common\doprnt.c: 64
      +                          8:     unsigned long long n;;D:\mplab\pic\sources\c99\common\doprnt.c: 651:     if (!(pr
      +                          ec < 0)) {
  5762  001B4A  0100               	movlb	0	; () banked
  5763  001B4C  BFF2               	btfsc	(_prec+1)& (0+255),7,b
  5764  001B4E  EFAB  F00D         	goto	u3431
  5765  001B52  EFAD  F00D         	goto	u3430
  5766  001B56                     u3431:
  5767  001B56  EFAE  F00D         	goto	l3720
  5768  001B5A                     u3430:
  5769  001B5A                     
  5770                           ; BSR set to: 0
  5771                           ;D:\mplab\pic\sources\c99\common\doprnt.c: 652:         flags &= ~(1 << 1);
  5772  001B5A  93F3               	bcf	_flags& (0+255),1,b
  5773  001B5C                     l3720:
  5774                           
  5775                           ; BSR set to: 0
  5776                           ;D:\mplab\pic\sources\c99\common\doprnt.c: 654:     p = (0 < prec) ? prec : 1;
  5777  001B5C  BFF2               	btfsc	(_prec+1)& (0+255),7,b
  5778  001B5E  EFBB  F00D         	goto	u3440
  5779  001B62  51F2               	movf	(_prec+1)& (0+255),w,b
  5780  001B64  E106               	bnz	u3441
  5781  001B66  05F1               	decf	_prec& (0+255),w,b
  5782  001B68  B0D8               	btfsc	status,0,c
  5783  001B6A  EFB9  F00D         	goto	u3441
  5784  001B6E  EFBB  F00D         	goto	u3440
  5785  001B72                     u3441:
  5786  001B72  EFC1  F00D         	goto	l1477
  5787  001B76                     u3440:
  5788  001B76                     
  5789                           ; BSR set to: 0
  5790  001B76  0E00               	movlw	0
  5791  001B78  6E34               	movwf	(xtoa@p+1)^0,c
  5792  001B7A  0E01               	movlw	1
  5793  001B7C  6E33               	movwf	xtoa@p^0,c
  5794  001B7E  EFC5  F00D         	goto	l1479
  5795  001B82                     l1477:
  5796                           
  5797                           ; BSR set to: 0
  5798  001B82  C0F1  F033         	movff	_prec,xtoa@p
  5799  001B86  C0F2  F034         	movff	_prec+1,xtoa@p+1
  5800  001B8A                     l1479:
  5801                           
  5802                           ; BSR set to: 0
  5803                           ;D:\mplab\pic\sources\c99\common\doprnt.c: 655:     w = width;
  5804  001B8A  C1E8  F035         	movff	_width,xtoa@w
  5805  001B8E  C1E9  F036         	movff	_width+1,xtoa@w+1
  5806                           
  5807                           ;D:\mplab\pic\sources\c99\common\doprnt.c: 656:     if (flags & (1 << 4)) {
  5808  001B92  A9F3               	btfss	_flags& (0+255),4,b
  5809  001B94  EFCE  F00D         	goto	u3451
  5810  001B98  EFD0  F00D         	goto	u3450
  5811  001B9C                     u3451:
  5812  001B9C  EFD4  F00D         	goto	l3726
  5813  001BA0                     u3450:
  5814  001BA0                     
  5815                           ; BSR set to: 0
  5816                           ;D:\mplab\pic\sources\c99\common\doprnt.c: 657:         w -= 2;
  5817  001BA0  0EFE               	movlw	254
  5818  001BA2  2635               	addwf	xtoa@w^0,f,c
  5819  001BA4  0EFF               	movlw	255
  5820  001BA6  2236               	addwfc	(xtoa@w+1)^0,f,c
  5821  001BA8                     l3726:
  5822                           
  5823                           ; BSR set to: 0
  5824                           ;D:\mplab\pic\sources\c99\common\doprnt.c: 661:     n = d;
  5825  001BA8  C01E  F037         	movff	xtoa@d,xtoa@n
  5826  001BAC  C01F  F038         	movff	xtoa@d+1,xtoa@n+1
  5827  001BB0  C020  F039         	movff	xtoa@d+2,xtoa@n+2
  5828  001BB4  C021  F03A         	movff	xtoa@d+3,xtoa@n+3
  5829  001BB8  C022  F03B         	movff	xtoa@d+4,xtoa@n+4
  5830  001BBC  C023  F03C         	movff	xtoa@d+5,xtoa@n+5
  5831  001BC0  C024  F03D         	movff	xtoa@d+6,xtoa@n+6
  5832  001BC4  C025  F03E         	movff	xtoa@d+7,xtoa@n+7
  5833  001BC8                     
  5834                           ; BSR set to: 0
  5835                           ;D:\mplab\pic\sources\c99\common\doprnt.c: 662:     i = sizeof(dbuf) - 1;
  5836  001BC8  0E00               	movlw	0
  5837  001BCA  6E40               	movwf	(xtoa@i+1)^0,c
  5838  001BCC  0E1F               	movlw	31
  5839  001BCE  6E3F               	movwf	xtoa@i^0,c
  5840  001BD0                     
  5841                           ; BSR set to: 0
  5842                           ;D:\mplab\pic\sources\c99\common\doprnt.c: 663:     dbuf[i] = '\0';
  5843  001BD0  0E00               	movlw	0
  5844  001BD2  0102               	movlb	2	; () banked
  5845  001BD4  6F5D               	movwf	(_dbuf+31)& (0+255),b
  5846                           
  5847                           ;D:\mplab\pic\sources\c99\common\doprnt.c: 664:     while (!(i < 2) && (n || (0 < p) || 
      +                          ((0 < w) && (flags & (1 << 1))))) {
  5848  001BD6  EFA0  F00E         	goto	l3762
  5849  001BDA                     l3732:
  5850                           
  5851                           ;D:\mplab\pic\sources\c99\common\doprnt.c: 665:         --i;
  5852  001BDA  063F               	decf	xtoa@i^0,f,c
  5853  001BDC  A0D8               	btfss	status,0,c
  5854  001BDE  0640               	decf	(xtoa@i+1)^0,f,c
  5855  001BE0                     
  5856                           ;D:\mplab\pic\sources\c99\common\doprnt.c: 666:         c = n & 0x0f;
  5857  001BE0  0E0F               	movlw	15
  5858  001BE2  1437               	andwf	xtoa@n^0,w,c
  5859  001BE4  6E41               	movwf	xtoa@c^0,c
  5860  001BE6  6A42               	clrf	(xtoa@c+1)^0,c
  5861  001BE8                     
  5862                           ;D:\mplab\pic\sources\c99\common\doprnt.c: 667:         c = (c < 10) ? (int)'0' + c : (i
      +                          nt)'a' + (c - 10);
  5863  001BE8  BE42               	btfsc	(xtoa@c+1)^0,7,c
  5864  001BEA  EF00  F00E         	goto	u3461
  5865  001BEE  5042               	movf	(xtoa@c+1)^0,w,c
  5866  001BF0  E109               	bnz	u3460
  5867  001BF2  0E0A               	movlw	10
  5868  001BF4  5C41               	subwf	xtoa@c^0,w,c
  5869  001BF6  A0D8               	btfss	status,0,c
  5870  001BF8  EF00  F00E         	goto	u3461
  5871  001BFC  EF02  F00E         	goto	u3460
  5872  001C00                     u3461:
  5873  001C00  EF0A  F00E         	goto	l3740
  5874  001C04                     u3460:
  5875  001C04  0E57               	movlw	87
  5876  001C06  2441               	addwf	xtoa@c^0,w,c
  5877  001C08  6E41               	movwf	xtoa@c^0,c
  5878  001C0A  0E00               	movlw	0
  5879  001C0C  2042               	addwfc	(xtoa@c+1)^0,w,c
  5880  001C0E  6E42               	movwf	(xtoa@c+1)^0,c
  5881  001C10  EF10  F00E         	goto	l1486
  5882  001C14                     l3740:
  5883  001C14  0E30               	movlw	48
  5884  001C16  2441               	addwf	xtoa@c^0,w,c
  5885  001C18  6E41               	movwf	xtoa@c^0,c
  5886  001C1A  0E00               	movlw	0
  5887  001C1C  2042               	addwfc	(xtoa@c+1)^0,w,c
  5888  001C1E  6E42               	movwf	(xtoa@c+1)^0,c
  5889  001C20                     l1486:
  5890  001C20  0EBF               	movlw	191
  5891  001C22  6E27               	movwf	??_xtoa^0,c
  5892  001C24  0EFF               	movlw	255
  5893  001C26  6E28               	movwf	(??_xtoa+1)^0,c
  5894  001C28  5026               	movf	xtoa@x^0,w,c
  5895  001C2A  6E29               	movwf	(??_xtoa+2)^0,c
  5896  001C2C  6A2A               	clrf	(??_xtoa+3)^0,c
  5897  001C2E  5027               	movf	??_xtoa^0,w,c
  5898  001C30  2629               	addwf	(??_xtoa+2)^0,f,c
  5899  001C32  5028               	movf	(??_xtoa+1)^0,w,c
  5900  001C34  222A               	addwfc	(??_xtoa+3)^0,f,c
  5901  001C36  502A               	movf	(??_xtoa+3)^0,w,c
  5902  001C38  E10A               	bnz	u3470
  5903  001C3A  0E1A               	movlw	26
  5904  001C3C  5C29               	subwf	(??_xtoa+2)^0,w,c
  5905  001C3E  A0D8               	btfss	status,0,c
  5906  001C40  EF24  F00E         	goto	u3471
  5907  001C44  EF27  F00E         	goto	u3470
  5908  001C48                     u3471:
  5909  001C48  0E01               	movlw	1
  5910  001C4A  EF28  F00E         	goto	u3480
  5911  001C4E                     u3470:
  5912  001C4E  0E00               	movlw	0
  5913  001C50                     u3480:
  5914  001C50  6E2F               	movwf	_xtoa$1888^0,c
  5915  001C52  6A30               	clrf	(_xtoa$1888+1)^0,c
  5916  001C54  502F               	movf	_xtoa$1888^0,w,c
  5917  001C56  1030               	iorwf	(_xtoa$1888+1)^0,w,c
  5918  001C58  B4D8               	btfsc	status,2,c
  5919  001C5A  EF31  F00E         	goto	u3491
  5920  001C5E  EF33  F00E         	goto	u3490
  5921  001C62                     u3491:
  5922  001C62  EF63  F00E         	goto	l3754
  5923  001C66                     u3490:
  5924  001C66  0E9F               	movlw	159
  5925  001C68  6E27               	movwf	??_xtoa^0,c
  5926  001C6A  0EFF               	movlw	255
  5927  001C6C  6E28               	movwf	(??_xtoa+1)^0,c
  5928  001C6E  0E20               	movlw	32
  5929  001C70  1041               	iorwf	xtoa@c^0,w,c
  5930  001C72  6E29               	movwf	(??_xtoa+2)^0,c
  5931  001C74  0E00               	movlw	0
  5932  001C76  1042               	iorwf	(xtoa@c+1)^0,w,c
  5933  001C78  6E2A               	movwf	(??_xtoa+3)^0,c
  5934  001C7A  5027               	movf	??_xtoa^0,w,c
  5935  001C7C  2629               	addwf	(??_xtoa+2)^0,f,c
  5936  001C7E  5028               	movf	(??_xtoa+1)^0,w,c
  5937  001C80  222A               	addwfc	(??_xtoa+3)^0,f,c
  5938  001C82  502A               	movf	(??_xtoa+3)^0,w,c
  5939  001C84  E10A               	bnz	u3500
  5940  001C86  0E1A               	movlw	26
  5941  001C88  5C29               	subwf	(??_xtoa+2)^0,w,c
  5942  001C8A  A0D8               	btfss	status,0,c
  5943  001C8C  EF4A  F00E         	goto	u3501
  5944  001C90  EF4D  F00E         	goto	u3500
  5945  001C94                     u3501:
  5946  001C94  0E01               	movlw	1
  5947  001C96  EF4E  F00E         	goto	u3510
  5948  001C9A                     u3500:
  5949  001C9A  0E00               	movlw	0
  5950  001C9C                     u3510:
  5951  001C9C  6E31               	movwf	_xtoa$1889^0,c
  5952  001C9E  6A32               	clrf	(_xtoa$1889+1)^0,c
  5953  001CA0  5031               	movf	_xtoa$1889^0,w,c
  5954  001CA2  1032               	iorwf	(_xtoa$1889+1)^0,w,c
  5955  001CA4  B4D8               	btfsc	status,2,c
  5956  001CA6  EF57  F00E         	goto	u3521
  5957  001CAA  EF59  F00E         	goto	u3520
  5958  001CAE                     u3521:
  5959  001CAE  EF63  F00E         	goto	l3754
  5960  001CB2                     u3520:
  5961  001CB2                     
  5962                           ;D:\mplab\pic\sources\c99\common\doprnt.c: 669:             c = toupper(c);
  5963  001CB2  C041  F007         	movff	xtoa@c,toupper@c
  5964  001CB6  C042  F008         	movff	xtoa@c+1,toupper@c+1
  5965  001CBA  ECA0  F01B         	call	_toupper	;wreg free
  5966  001CBE  C007  F041         	movff	?_toupper,xtoa@c
  5967  001CC2  C008  F042         	movff	?_toupper+1,xtoa@c+1
  5968  001CC6                     l3754:
  5969                           
  5970                           ;D:\mplab\pic\sources\c99\common\doprnt.c: 671:         dbuf[i] = (char)c;
  5971  001CC6  0E3E               	movlw	low _dbuf
  5972  001CC8  243F               	addwf	xtoa@i^0,w,c
  5973  001CCA  6ED9               	movwf	fsr2l,c
  5974  001CCC  0E02               	movlw	high _dbuf
  5975  001CCE  2040               	addwfc	(xtoa@i+1)^0,w,c
  5976  001CD0  6EDA               	movwf	fsr2h,c
  5977  001CD2  C041  FFDF         	movff	xtoa@c,indf2
  5978  001CD6                     
  5979                           ;D:\mplab\pic\sources\c99\common\doprnt.c: 672:         --p;
  5980  001CD6  0633               	decf	xtoa@p^0,f,c
  5981  001CD8  A0D8               	btfss	status,0,c
  5982  001CDA  0634               	decf	(xtoa@p+1)^0,f,c
  5983  001CDC                     
  5984                           ;D:\mplab\pic\sources\c99\common\doprnt.c: 673:         --w;
  5985  001CDC  0635               	decf	xtoa@w^0,f,c
  5986  001CDE  A0D8               	btfss	status,0,c
  5987  001CE0  0636               	decf	(xtoa@w+1)^0,f,c
  5988  001CE2                     
  5989                           ;D:\mplab\pic\sources\c99\common\doprnt.c: 674:         n = n >> 4;
  5990  001CE2  C037  F027         	movff	xtoa@n,??_xtoa
  5991  001CE6  C038  F028         	movff	xtoa@n+1,??_xtoa+1
  5992  001CEA  C039  F029         	movff	xtoa@n+2,??_xtoa+2
  5993  001CEE  C03A  F02A         	movff	xtoa@n+3,??_xtoa+3
  5994  001CF2  C03B  F02B         	movff	xtoa@n+4,??_xtoa+4
  5995  001CF6  C03C  F02C         	movff	xtoa@n+5,??_xtoa+5
  5996  001CFA  C03D  F02D         	movff	xtoa@n+6,??_xtoa+6
  5997  001CFE  C03E  F02E         	movff	xtoa@n+7,??_xtoa+7
  5998  001D02  0E05               	movlw	5
  5999  001D04  EF8D  F00E         	goto	u3530
  6000  001D08                     u3535:
  6001  001D08  90D8               	bcf	status,0,c
  6002  001D0A  322E               	rrcf	(??_xtoa+7)^0,f,c
  6003  001D0C  322D               	rrcf	(??_xtoa+6)^0,f,c
  6004  001D0E  322C               	rrcf	(??_xtoa+5)^0,f,c
  6005  001D10  322B               	rrcf	(??_xtoa+4)^0,f,c
  6006  001D12  322A               	rrcf	(??_xtoa+3)^0,f,c
  6007  001D14  3229               	rrcf	(??_xtoa+2)^0,f,c
  6008  001D16  3228               	rrcf	(??_xtoa+1)^0,f,c
  6009  001D18  3227               	rrcf	??_xtoa^0,f,c
  6010  001D1A                     u3530:
  6011  001D1A  2EE8               	decfsz	wreg,f,c
  6012  001D1C  EF84  F00E         	goto	u3535
  6013  001D20  C027  F037         	movff	??_xtoa,xtoa@n
  6014  001D24  C028  F038         	movff	??_xtoa+1,xtoa@n+1
  6015  001D28  C029  F039         	movff	??_xtoa+2,xtoa@n+2
  6016  001D2C  C02A  F03A         	movff	??_xtoa+3,xtoa@n+3
  6017  001D30  C02B  F03B         	movff	??_xtoa+4,xtoa@n+4
  6018  001D34  C02C  F03C         	movff	??_xtoa+5,xtoa@n+5
  6019  001D38  C02D  F03D         	movff	??_xtoa+6,xtoa@n+6
  6020  001D3C  C02E  F03E         	movff	??_xtoa+7,xtoa@n+7
  6021  001D40                     l3762:
  6022                           
  6023                           ;D:\mplab\pic\sources\c99\common\doprnt.c: 664:     while (!(i < 2) && (n || (0 < p) || 
      +                          ((0 < w) && (flags & (1 << 1))))) {
  6024  001D40  BE40               	btfsc	(xtoa@i+1)^0,7,c
  6025  001D42  EFAC  F00E         	goto	u3541
  6026  001D46  5040               	movf	(xtoa@i+1)^0,w,c
  6027  001D48  E109               	bnz	u3540
  6028  001D4A  0E02               	movlw	2
  6029  001D4C  5C3F               	subwf	xtoa@i^0,w,c
  6030  001D4E  A0D8               	btfss	status,0,c
  6031  001D50  EFAC  F00E         	goto	u3541
  6032  001D54  EFAE  F00E         	goto	u3540
  6033  001D58                     u3541:
  6034  001D58  EFDF  F00E         	goto	l1500
  6035  001D5C                     u3540:
  6036  001D5C  5037               	movf	xtoa@n^0,w,c
  6037  001D5E  1038               	iorwf	(xtoa@n+1)^0,w,c
  6038  001D60  1039               	iorwf	(xtoa@n+2)^0,w,c
  6039  001D62  103A               	iorwf	(xtoa@n+3)^0,w,c
  6040  001D64  103B               	iorwf	(xtoa@n+4)^0,w,c
  6041  001D66  103C               	iorwf	(xtoa@n+5)^0,w,c
  6042  001D68  103D               	iorwf	(xtoa@n+6)^0,w,c
  6043  001D6A  103E               	iorwf	(xtoa@n+7)^0,w,c
  6044  001D6C  A4D8               	btfss	status,2,c
  6045  001D6E  EFBB  F00E         	goto	u3551
  6046  001D72  EFBD  F00E         	goto	u3550
  6047  001D76                     u3551:
  6048  001D76  EFED  F00D         	goto	l3732
  6049  001D7A                     u3550:
  6050  001D7A  BE34               	btfsc	(xtoa@p+1)^0,7,c
  6051  001D7C  EFCA  F00E         	goto	u3560
  6052  001D80  5034               	movf	(xtoa@p+1)^0,w,c
  6053  001D82  E106               	bnz	u3561
  6054  001D84  0433               	decf	xtoa@p^0,w,c
  6055  001D86  B0D8               	btfsc	status,0,c
  6056  001D88  EFC8  F00E         	goto	u3561
  6057  001D8C  EFCA  F00E         	goto	u3560
  6058  001D90                     u3561:
  6059  001D90  EFED  F00D         	goto	l3732
  6060  001D94                     u3560:
  6061  001D94  BE36               	btfsc	(xtoa@w+1)^0,7,c
  6062  001D96  EFD5  F00E         	goto	u3571
  6063  001D9A  5036               	movf	(xtoa@w+1)^0,w,c
  6064  001D9C  E108               	bnz	u3570
  6065  001D9E  0435               	decf	xtoa@w^0,w,c
  6066  001DA0  A0D8               	btfss	status,0,c
  6067  001DA2  EFD5  F00E         	goto	u3571
  6068  001DA6  EFD7  F00E         	goto	u3570
  6069  001DAA                     u3571:
  6070  001DAA  EFDF  F00E         	goto	l1500
  6071  001DAE                     u3570:
  6072  001DAE  0100               	movlb	0	; () banked
  6073  001DB0  B3F3               	btfsc	_flags& (0+255),1,b
  6074  001DB2  EFDD  F00E         	goto	u3581
  6075  001DB6  EFDF  F00E         	goto	u3580
  6076  001DBA                     u3581:
  6077  001DBA  EFED  F00D         	goto	l3732
  6078  001DBE                     u3580:
  6079  001DBE                     l1500:
  6080                           
  6081                           ;D:\mplab\pic\sources\c99\common\doprnt.c: 678:     if (flags & (1 << 4)) {
  6082  001DBE  0100               	movlb	0	; () banked
  6083  001DC0  A9F3               	btfss	_flags& (0+255),4,b
  6084  001DC2  EFE5  F00E         	goto	u3591
  6085  001DC6  EFE7  F00E         	goto	u3590
  6086  001DCA                     u3591:
  6087  001DCA  EFFD  F00E         	goto	l3778
  6088  001DCE                     u3590:
  6089  001DCE                     
  6090                           ; BSR set to: 0
  6091                           ;D:\mplab\pic\sources\c99\common\doprnt.c: 679:         --i;
  6092  001DCE  063F               	decf	xtoa@i^0,f,c
  6093  001DD0  A0D8               	btfss	status,0,c
  6094  001DD2  0640               	decf	(xtoa@i+1)^0,f,c
  6095  001DD4                     
  6096                           ; BSR set to: 0
  6097                           ;D:\mplab\pic\sources\c99\common\doprnt.c: 680:         dbuf[i] = x;
  6098  001DD4  0E3E               	movlw	low _dbuf
  6099  001DD6  243F               	addwf	xtoa@i^0,w,c
  6100  001DD8  6ED9               	movwf	fsr2l,c
  6101  001DDA  0E02               	movlw	high _dbuf
  6102  001DDC  2040               	addwfc	(xtoa@i+1)^0,w,c
  6103  001DDE  6EDA               	movwf	fsr2h,c
  6104  001DE0  C026  FFDF         	movff	xtoa@x,indf2
  6105  001DE4                     
  6106                           ; BSR set to: 0
  6107                           ;D:\mplab\pic\sources\c99\common\doprnt.c: 681:         --i;
  6108  001DE4  063F               	decf	xtoa@i^0,f,c
  6109  001DE6  A0D8               	btfss	status,0,c
  6110  001DE8  0640               	decf	(xtoa@i+1)^0,f,c
  6111                           
  6112                           ;D:\mplab\pic\sources\c99\common\doprnt.c: 682:         dbuf[i] = '0';
  6113  001DEA  0E3E               	movlw	low _dbuf
  6114  001DEC  243F               	addwf	xtoa@i^0,w,c
  6115  001DEE  6ED9               	movwf	fsr2l,c
  6116  001DF0  0E02               	movlw	high _dbuf
  6117  001DF2  2040               	addwfc	(xtoa@i+1)^0,w,c
  6118  001DF4  6EDA               	movwf	fsr2h,c
  6119  001DF6  0E30               	movlw	48
  6120  001DF8  6EDF               	movwf	indf2,c
  6121  001DFA                     l3778:
  6122                           
  6123                           ; BSR set to: 0
  6124                           ;D:\mplab\pic\sources\c99\common\doprnt.c: 686:     return pad(fp, &dbuf[i], w);
  6125  001DFA  C01C  F011         	movff	xtoa@fp,pad@fp
  6126  001DFE  C01D  F012         	movff	xtoa@fp+1,pad@fp+1
  6127  001E02  0E3E               	movlw	low _dbuf
  6128  001E04  243F               	addwf	xtoa@i^0,w,c
  6129  001E06  6E13               	movwf	pad@buf^0,c
  6130  001E08  0E02               	movlw	high _dbuf
  6131  001E0A  2040               	addwfc	(xtoa@i+1)^0,w,c
  6132  001E0C  6E14               	movwf	(pad@buf+1)^0,c
  6133  001E0E  C035  F015         	movff	xtoa@w,pad@p
  6134  001E12  C036  F016         	movff	xtoa@w+1,pad@p+1
  6135  001E16  ECA4  F017         	call	_pad	;wreg free
  6136  001E1A  C011  F01C         	movff	?_pad,?_xtoa
  6137  001E1E  C012  F01D         	movff	?_pad+1,?_xtoa+1
  6138  001E22  0012               	return		;funcret
  6139  001E24                     __end_of_xtoa:
  6140                           	callstack 0
  6141                           
  6142 ;; *************** function _toupper *****************
  6143 ;; Defined at:
  6144 ;;		line 4 in file "D:\mplab\pic\sources\c99\common\toupper.c"
  6145 ;; Parameters:    Size  Location     Type
  6146 ;;  c               2    6[COMRAM] int 
  6147 ;; Auto vars:     Size  Location     Type
  6148 ;;		None
  6149 ;; Return value:  Size  Location     Type
  6150 ;;                  2    6[COMRAM] int 
  6151 ;; Registers used:
  6152 ;;		wreg, status,2, status,0
  6153 ;; Tracked objects:
  6154 ;;		On entry : 0/0
  6155 ;;		On exit  : 0/0
  6156 ;;		Unchanged: 0/0
  6157 ;; Data sizes:     COMRAM   BANK0   BANK1   BANK2   BANK3   BANK4   BANK5   BANK6   BANK7
  6158 ;;      Params:         2       0       0       0       0       0       0       0       0
  6159 ;;      Locals:         2       0       0       0       0       0       0       0       0
  6160 ;;      Temps:          4       0       0       0       0       0       0       0       0
  6161 ;;      Totals:         8       0       0       0       0       0       0       0       0
  6162 ;;Total ram usage:        8 bytes
  6163 ;; Hardware stack levels used: 1
  6164 ;; Hardware stack levels required when called: 1
  6165 ;; This function calls:
  6166 ;;		_islower
  6167 ;; This function is called by:
  6168 ;;		_xtoa
  6169 ;; This function uses a non-reentrant model
  6170 ;;
  6171                           
  6172                           	psect	text34
  6173  003740                     __ptext34:
  6174                           	callstack 0
  6175  003740                     _toupper:
  6176                           	callstack 22
  6177  003740  0E9F               	movlw	159
  6178  003742  6E09               	movwf	??_toupper^0,c
  6179  003744  0EFF               	movlw	255
  6180  003746  6E0A               	movwf	(??_toupper+1)^0,c
  6181  003748  C007  F00B         	movff	toupper@c,??_toupper+2
  6182  00374C  C008  F00C         	movff	toupper@c+1,??_toupper+3
  6183  003750  5009               	movf	??_toupper^0,w,c
  6184  003752  260B               	addwf	(??_toupper+2)^0,f,c
  6185  003754  500A               	movf	(??_toupper+1)^0,w,c
  6186  003756  220C               	addwfc	(??_toupper+3)^0,f,c
  6187  003758  500C               	movf	(??_toupper+3)^0,w,c
  6188  00375A  E10A               	bnz	u3150
  6189  00375C  0E1A               	movlw	26
  6190  00375E  5C0B               	subwf	(??_toupper+2)^0,w,c
  6191  003760  A0D8               	btfss	status,0,c
  6192  003762  EFB5  F01B         	goto	u3151
  6193  003766  EFB8  F01B         	goto	u3150
  6194  00376A                     u3151:
  6195  00376A  0E01               	movlw	1
  6196  00376C  EFB9  F01B         	goto	u3160
  6197  003770                     u3150:
  6198  003770  0E00               	movlw	0
  6199  003772                     u3160:
  6200  003772  6E0D               	movwf	_toupper$1992^0,c
  6201  003774  6A0E               	clrf	(_toupper$1992+1)^0,c
  6202  003776  500D               	movf	_toupper$1992^0,w,c
  6203  003778  100E               	iorwf	(_toupper$1992+1)^0,w,c
  6204  00377A  B4D8               	btfsc	status,2,c
  6205  00377C  EFC2  F01B         	goto	u3171
  6206  003780  EFC4  F01B         	goto	u3170
  6207  003784                     u3171:
  6208  003784  EFCA  F01B         	goto	l1586
  6209  003788                     u3170:
  6210  003788  0E5F               	movlw	95
  6211  00378A  1407               	andwf	toupper@c^0,w,c
  6212  00378C  6E07               	movwf	?_toupper^0,c
  6213  00378E  6A08               	clrf	(?_toupper+1)^0,c
  6214  003790  EFCE  F01B         	goto	l1591
  6215  003794                     l1586:
  6216  003794  C007  F007         	movff	toupper@c,?_toupper
  6217  003798  C008  F008         	movff	toupper@c+1,?_toupper+1
  6218  00379C                     l1591:
  6219  00379C  0012               	return		;funcret
  6220  00379E                     __end_of_toupper:
  6221                           	callstack 0
  6222                           
  6223 ;; *************** function _islower *****************
  6224 ;; Defined at:
  6225 ;;		line 5 in file "D:\mplab\pic\sources\c99\common\islower.c"
  6226 ;; Parameters:    Size  Location     Type
  6227 ;;  c               2    0[COMRAM] int 
  6228 ;; Auto vars:     Size  Location     Type
  6229 ;;		None
  6230 ;; Return value:  Size  Location     Type
  6231 ;;                  2    0[COMRAM] int 
  6232 ;; Registers used:
  6233 ;;		wreg, status,2, status,0
  6234 ;; Tracked objects:
  6235 ;;		On entry : 0/0
  6236 ;;		On exit  : 0/0
  6237 ;;		Unchanged: 0/0
  6238 ;; Data sizes:     COMRAM   BANK0   BANK1   BANK2   BANK3   BANK4   BANK5   BANK6   BANK7
  6239 ;;      Params:         2       0       0       0       0       0       0       0       0
  6240 ;;      Locals:         0       0       0       0       0       0       0       0       0
  6241 ;;      Temps:          4       0       0       0       0       0       0       0       0
  6242 ;;      Totals:         6       0       0       0       0       0       0       0       0
  6243 ;;Total ram usage:        6 bytes
  6244 ;; Hardware stack levels used: 1
  6245 ;; This function calls:
  6246 ;;		Nothing
  6247 ;; This function is called by:
  6248 ;;		_toupper
  6249 ;; This function uses a non-reentrant model
  6250 ;;
  6251                           
  6252                           	psect	text35
  6253  003CF0                     __ptext35:
  6254                           	callstack 0
  6255  003CF0                     _islower:
  6256                           	callstack 22
  6257  003CF0  0E9F               	movlw	159
  6258  003CF2  6E03               	movwf	??_islower^0,c
  6259  003CF4  0EFF               	movlw	255
  6260  003CF6  6E04               	movwf	(??_islower+1)^0,c
  6261  003CF8  C001  F005         	movff	islower@c,??_islower+2
  6262  003CFC  C002  F006         	movff	islower@c+1,??_islower+3
  6263  003D00  5003               	movf	??_islower^0,w,c
  6264  003D02  2605               	addwf	(??_islower+2)^0,f,c
  6265  003D04  5004               	movf	(??_islower+1)^0,w,c
  6266  003D06  2206               	addwfc	(??_islower+3)^0,f,c
  6267  003D08  5006               	movf	(??_islower+3)^0,w,c
  6268  003D0A  E10A               	bnz	u2910
  6269  003D0C  0E1A               	movlw	26
  6270  003D0E  5C05               	subwf	(??_islower+2)^0,w,c
  6271  003D10  A0D8               	btfss	status,0,c
  6272  003D12  EF8D  F01E         	goto	u2911
  6273  003D16  EF90  F01E         	goto	u2910
  6274  003D1A                     u2911:
  6275  003D1A  0E01               	movlw	1
  6276  003D1C  EF91  F01E         	goto	u2920
  6277  003D20                     u2910:
  6278  003D20  0E00               	movlw	0
  6279  003D22                     u2920:
  6280  003D22  6E01               	movwf	?_islower^0,c
  6281  003D24  6A02               	clrf	(?_islower+1)^0,c
  6282  003D26  0012               	return		;funcret
  6283  003D28                     __end_of_islower:
  6284                           	callstack 0
  6285                           
  6286 ;; *************** function _isupper *****************
  6287 ;; Defined at:
  6288 ;;		line 5 in file "D:\mplab\pic\sources\c99\common\isupper.c"
  6289 ;; Parameters:    Size  Location     Type
  6290 ;;  c               2    0[COMRAM] int 
  6291 ;; Auto vars:     Size  Location     Type
  6292 ;;		None
  6293 ;; Return value:  Size  Location     Type
  6294 ;;                  2    0[COMRAM] int 
  6295 ;; Registers used:
  6296 ;;		wreg, status,2, status,0
  6297 ;; Tracked objects:
  6298 ;;		On entry : 0/0
  6299 ;;		On exit  : 0/0
  6300 ;;		Unchanged: 0/0
  6301 ;; Data sizes:     COMRAM   BANK0   BANK1   BANK2   BANK3   BANK4   BANK5   BANK6   BANK7
  6302 ;;      Params:         2       0       0       0       0       0       0       0       0
  6303 ;;      Locals:         0       0       0       0       0       0       0       0       0
  6304 ;;      Temps:          4       0       0       0       0       0       0       0       0
  6305 ;;      Totals:         6       0       0       0       0       0       0       0       0
  6306 ;;Total ram usage:        6 bytes
  6307 ;; Hardware stack levels used: 1
  6308 ;; This function calls:
  6309 ;;		Nothing
  6310 ;; This function is called by:
  6311 ;;		_xtoa
  6312 ;; This function uses a non-reentrant model
  6313 ;;
  6314                           
  6315                           	psect	text36
  6316  003D28                     __ptext36:
  6317                           	callstack 0
  6318  003D28                     _isupper:
  6319                           	callstack 23
  6320  003D28  0EBF               	movlw	191
  6321  003D2A  6E03               	movwf	??_isupper^0,c
  6322  003D2C  0EFF               	movlw	255
  6323  003D2E  6E04               	movwf	(??_isupper+1)^0,c
  6324  003D30  C001  F005         	movff	isupper@c,??_isupper+2
  6325  003D34  C002  F006         	movff	isupper@c+1,??_isupper+3
  6326  003D38  5003               	movf	??_isupper^0,w,c
  6327  003D3A  2605               	addwf	(??_isupper+2)^0,f,c
  6328  003D3C  5004               	movf	(??_isupper+1)^0,w,c
  6329  003D3E  2206               	addwfc	(??_isupper+3)^0,f,c
  6330  003D40  5006               	movf	(??_isupper+3)^0,w,c
  6331  003D42  E10A               	bnz	u3110
  6332  003D44  0E1A               	movlw	26
  6333  003D46  5C05               	subwf	(??_isupper+2)^0,w,c
  6334  003D48  A0D8               	btfss	status,0,c
  6335  003D4A  EFA9  F01E         	goto	u3111
  6336  003D4E  EFAC  F01E         	goto	u3110
  6337  003D52                     u3111:
  6338  003D52  0E01               	movlw	1
  6339  003D54  EFAD  F01E         	goto	u3120
  6340  003D58                     u3110:
  6341  003D58  0E00               	movlw	0
  6342  003D5A                     u3120:
  6343  003D5A  6E01               	movwf	?_isupper^0,c
  6344  003D5C  6A02               	clrf	(?_isupper+1)^0,c
  6345  003D5E  0012               	return		;funcret
  6346  003D60                     __end_of_isupper:
  6347                           	callstack 0
  6348                           
  6349 ;; *************** function _isalpha *****************
  6350 ;; Defined at:
  6351 ;;		line 5 in file "D:\mplab\pic\sources\c99\common\isalpha.c"
  6352 ;; Parameters:    Size  Location     Type
  6353 ;;  c               2    0[COMRAM] int 
  6354 ;; Auto vars:     Size  Location     Type
  6355 ;;		None
  6356 ;; Return value:  Size  Location     Type
  6357 ;;                  2    0[COMRAM] int 
  6358 ;; Registers used:
  6359 ;;		wreg, status,2, status,0
  6360 ;; Tracked objects:
  6361 ;;		On entry : 0/0
  6362 ;;		On exit  : 0/0
  6363 ;;		Unchanged: 0/0
  6364 ;; Data sizes:     COMRAM   BANK0   BANK1   BANK2   BANK3   BANK4   BANK5   BANK6   BANK7
  6365 ;;      Params:         2       0       0       0       0       0       0       0       0
  6366 ;;      Locals:         0       0       0       0       0       0       0       0       0
  6367 ;;      Temps:          4       0       0       0       0       0       0       0       0
  6368 ;;      Totals:         6       0       0       0       0       0       0       0       0
  6369 ;;Total ram usage:        6 bytes
  6370 ;; Hardware stack levels used: 1
  6371 ;; This function calls:
  6372 ;;		Nothing
  6373 ;; This function is called by:
  6374 ;;		_xtoa
  6375 ;; This function uses a non-reentrant model
  6376 ;;
  6377                           
  6378                           	psect	text37
  6379  003C42                     __ptext37:
  6380                           	callstack 0
  6381  003C42                     _isalpha:
  6382                           	callstack 23
  6383  003C42  0E9F               	movlw	159
  6384  003C44  6E03               	movwf	??_isalpha^0,c
  6385  003C46  0EFF               	movlw	255
  6386  003C48  6E04               	movwf	(??_isalpha+1)^0,c
  6387  003C4A  0E20               	movlw	32
  6388  003C4C  1001               	iorwf	isalpha@c^0,w,c
  6389  003C4E  6E05               	movwf	(??_isalpha+2)^0,c
  6390  003C50  0E00               	movlw	0
  6391  003C52  1002               	iorwf	(isalpha@c+1)^0,w,c
  6392  003C54  6E06               	movwf	(??_isalpha+3)^0,c
  6393  003C56  5003               	movf	??_isalpha^0,w,c
  6394  003C58  2605               	addwf	(??_isalpha+2)^0,f,c
  6395  003C5A  5004               	movf	(??_isalpha+1)^0,w,c
  6396  003C5C  2206               	addwfc	(??_isalpha+3)^0,f,c
  6397  003C5E  5006               	movf	(??_isalpha+3)^0,w,c
  6398  003C60  E10A               	bnz	u3130
  6399  003C62  0E1A               	movlw	26
  6400  003C64  5C05               	subwf	(??_isalpha+2)^0,w,c
  6401  003C66  A0D8               	btfss	status,0,c
  6402  003C68  EF38  F01E         	goto	u3131
  6403  003C6C  EF3B  F01E         	goto	u3130
  6404  003C70                     u3131:
  6405  003C70  0E01               	movlw	1
  6406  003C72  EF3C  F01E         	goto	u3140
  6407  003C76                     u3130:
  6408  003C76  0E00               	movlw	0
  6409  003C78                     u3140:
  6410  003C78  6E01               	movwf	?_isalpha^0,c
  6411  003C7A  6A02               	clrf	(?_isalpha+1)^0,c
  6412  003C7C  0012               	return		;funcret
  6413  003C7E                     __end_of_isalpha:
  6414                           	callstack 0
  6415                           
  6416 ;; *************** function _stoa *****************
  6417 ;; Defined at:
  6418 ;;		line 568 in file "D:\mplab\pic\sources\c99\common\doprnt.c"
  6419 ;; Parameters:    Size  Location     Type
  6420 ;;  fp              2    9[COMRAM] PTR struct _IO_FILE
  6421 ;;		 -> sprintf@f(6), 
  6422 ;;  s               2   11[COMRAM] PTR unsigned char 
  6423 ;;		 -> ?_sprintf(2), date(60), validar@valor_usart_844(30), validar@valor_usart_842(30), 
  6424 ;;		 -> validar@valor_usart(30), 
  6425 ;; Auto vars:     Size  Location     Type
  6426 ;;  nuls            7   14[COMRAM] unsigned char [7]
  6427 ;;  l               2   29[COMRAM] int 
  6428 ;;  p               2   27[COMRAM] int 
  6429 ;;  cp              2   25[COMRAM] PTR unsigned char 
  6430 ;;		 -> stoa@nuls(7), ?_sprintf(2), date(60), validar@valor_usart_844(30), 
  6431 ;;		 -> validar@valor_usart_842(30), validar@valor_usart(30), 
  6432 ;;  w               2   23[COMRAM] int 
  6433 ;;  i               2   21[COMRAM] int 
  6434 ;; Return value:  Size  Location     Type
  6435 ;;                  2    9[COMRAM] int 
  6436 ;; Registers used:
  6437 ;;		wreg, fsr1l, fsr1h, fsr2l, fsr2h, status,2, status,0, cstack
  6438 ;; Tracked objects:
  6439 ;;		On entry : 0/0
  6440 ;;		On exit  : 0/0
  6441 ;;		Unchanged: 0/0
  6442 ;; Data sizes:     COMRAM   BANK0   BANK1   BANK2   BANK3   BANK4   BANK5   BANK6   BANK7
  6443 ;;      Params:         4       0       0       0       0       0       0       0       0
  6444 ;;      Locals:        17       0       0       0       0       0       0       0       0
  6445 ;;      Temps:          1       0       0       0       0       0       0       0       0
  6446 ;;      Totals:        22       0       0       0       0       0       0       0       0
  6447 ;;Total ram usage:       22 bytes
  6448 ;; Hardware stack levels used: 1
  6449 ;; Hardware stack levels required when called: 2
  6450 ;; This function calls:
  6451 ;;		_fputc
  6452 ;;		_strlen
  6453 ;; This function is called by:
  6454 ;;		_vfpfcnvrt
  6455 ;; This function uses a non-reentrant model
  6456 ;;
  6457                           
  6458                           	psect	text38
  6459  0026BA                     __ptext38:
  6460                           	callstack 0
  6461  0026BA                     _stoa:
  6462                           	callstack 22
  6463  0026BA                     
  6464                           ;D:\mplab\pic\sources\c99\common\doprnt.c: 568: static int stoa(FILE *fp, char *s);D:\mp
      +                          lab\pic\sources\c99\common\doprnt.c: 569: {;D:\mplab\pic\sources\c99\common\doprnt.c: 57
      +                          0:     char *cp, nuls[] = "(null)";
  6465  0026BA  EE21  F0D0         	lfsr	2,stoa@F1141
  6466  0026BE  EE10  F00F         	lfsr	1,stoa@nuls
  6467  0026C2  0E06               	movlw	6
  6468  0026C4                     u3341:
  6469  0026C4  CFDB FFE3          	movff	plusw2,plusw1
  6470  0026C8  06E8               	decf	wreg,f,c
  6471  0026CA  E2FC               	bc	u3341
  6472  0026CC                     
  6473                           ;D:\mplab\pic\sources\c99\common\doprnt.c: 571:     int i, l, p, w;;D:\mplab\pic\sources
      +                          \c99\common\doprnt.c: 574:     cp = s;
  6474  0026CC  C00C  F01A         	movff	stoa@s,stoa@cp
  6475  0026D0  C00D  F01B         	movff	stoa@s+1,stoa@cp+1
  6476  0026D4                     
  6477                           ;D:\mplab\pic\sources\c99\common\doprnt.c: 575:     if (!cp) {
  6478  0026D4  501A               	movf	stoa@cp^0,w,c
  6479  0026D6  101B               	iorwf	(stoa@cp+1)^0,w,c
  6480  0026D8  A4D8               	btfss	status,2,c
  6481  0026DA  EF71  F013         	goto	u3351
  6482  0026DE  EF73  F013         	goto	u3350
  6483  0026E2                     u3351:
  6484  0026E2  EF77  F013         	goto	l3682
  6485  0026E6                     u3350:
  6486  0026E6                     
  6487                           ;D:\mplab\pic\sources\c99\common\doprnt.c: 576:         cp = nuls;
  6488  0026E6  0E0F               	movlw	low stoa@nuls
  6489  0026E8  6E1A               	movwf	stoa@cp^0,c
  6490  0026EA  0E00               	movlw	high stoa@nuls
  6491  0026EC  6E1B               	movwf	(stoa@cp+1)^0,c
  6492  0026EE                     l3682:
  6493                           
  6494                           ;D:\mplab\pic\sources\c99\common\doprnt.c: 580:     l = (int)strlen(cp);
  6495  0026EE  C01A  F001         	movff	stoa@cp,strlen@s
  6496  0026F2  C01B  F002         	movff	stoa@cp+1,strlen@s+1
  6497  0026F6  ECCB  F01E         	call	_strlen	;wreg free
  6498  0026FA  C001  F01E         	movff	?_strlen,stoa@l
  6499  0026FE  C002  F01F         	movff	?_strlen+1,stoa@l+1
  6500  002702                     
  6501                           ;D:\mplab\pic\sources\c99\common\doprnt.c: 581:     p = prec;
  6502  002702  C0F1  F01C         	movff	_prec,stoa@p
  6503  002706  C0F2  F01D         	movff	_prec+1,stoa@p+1
  6504  00270A                     
  6505                           ;D:\mplab\pic\sources\c99\common\doprnt.c: 582:     l = (!(p < 0) && (p < l)) ? p : l;
  6506  00270A  BE1D               	btfsc	(stoa@p+1)^0,7,c
  6507  00270C  EF8A  F013         	goto	u3361
  6508  002710  EF8C  F013         	goto	u3360
  6509  002714                     u3361:
  6510  002714  EFA1  F013         	goto	l1458
  6511  002718                     u3360:
  6512  002718  501E               	movf	stoa@l^0,w,c
  6513  00271A  5C1C               	subwf	stoa@p^0,w,c
  6514  00271C  501D               	movf	(stoa@p+1)^0,w,c
  6515  00271E  0A80               	xorlw	128
  6516  002720  6E0E               	movwf	??_stoa^0,c
  6517  002722  501F               	movf	(stoa@l+1)^0,w,c
  6518  002724  0A80               	xorlw	128
  6519  002726  580E               	subwfb	??_stoa^0,w,c
  6520  002728  A0D8               	btfss	status,0,c
  6521  00272A  EF99  F013         	goto	u3371
  6522  00272E  EF9B  F013         	goto	u3370
  6523  002732                     u3371:
  6524  002732  EF9D  F013         	goto	l1456
  6525  002736                     u3370:
  6526  002736  EFA1  F013         	goto	l1458
  6527  00273A                     l1456:
  6528  00273A  C01C  F01E         	movff	stoa@p,stoa@l
  6529  00273E  C01D  F01F         	movff	stoa@p+1,stoa@l+1
  6530  002742                     l1458:
  6531                           
  6532                           ;D:\mplab\pic\sources\c99\common\doprnt.c: 583:     p = l;
  6533  002742  C01E  F01C         	movff	stoa@l,stoa@p
  6534  002746  C01F  F01D         	movff	stoa@l+1,stoa@p+1
  6535                           
  6536                           ;D:\mplab\pic\sources\c99\common\doprnt.c: 584:     w = width;
  6537  00274A  C1E8  F018         	movff	_width,stoa@w
  6538  00274E  C1E9  F019         	movff	_width+1,stoa@w+1
  6539                           
  6540                           ;D:\mplab\pic\sources\c99\common\doprnt.c: 587:     if (!(flags & (1 << 0))) {
  6541  002752  0100               	movlb	0	; () banked
  6542  002754  B1F3               	btfsc	_flags& (0+255),0,b
  6543  002756  EFAF  F013         	goto	u3381
  6544  00275A  EFB1  F013         	goto	u3380
  6545  00275E                     u3381:
  6546  00275E  EFCE  F013         	goto	l3698
  6547  002762                     u3380:
  6548  002762  EFBF  F013         	goto	l3696
  6549  002766                     l3692:
  6550                           
  6551                           ;D:\mplab\pic\sources\c99\common\doprnt.c: 589:             fputc(' ', fp);
  6552  002766  0E00               	movlw	0
  6553  002768  6E02               	movwf	(fputc@c+1)^0,c
  6554  00276A  0E20               	movlw	32
  6555  00276C  6E01               	movwf	fputc@c^0,c
  6556  00276E  C00A  F003         	movff	stoa@fp,fputc@fp
  6557  002772  C00B  F004         	movff	stoa@fp+1,fputc@fp+1
  6558  002776  EC3F  F017         	call	_fputc	;wreg free
  6559  00277A                     
  6560                           ;D:\mplab\pic\sources\c99\common\doprnt.c: 590:             ++l;
  6561  00277A  4A1E               	infsnz	stoa@l^0,f,c
  6562  00277C  2A1F               	incf	(stoa@l+1)^0,f,c
  6563  00277E                     l3696:
  6564                           
  6565                           ;D:\mplab\pic\sources\c99\common\doprnt.c: 588:         while (l < w) {
  6566  00277E  5018               	movf	stoa@w^0,w,c
  6567  002780  5C1E               	subwf	stoa@l^0,w,c
  6568  002782  501F               	movf	(stoa@l+1)^0,w,c
  6569  002784  0A80               	xorlw	128
  6570  002786  6E0E               	movwf	??_stoa^0,c
  6571  002788  5019               	movf	(stoa@w+1)^0,w,c
  6572  00278A  0A80               	xorlw	128
  6573  00278C  580E               	subwfb	??_stoa^0,w,c
  6574  00278E  A0D8               	btfss	status,0,c
  6575  002790  EFCC  F013         	goto	u3391
  6576  002794  EFCE  F013         	goto	u3390
  6577  002798                     u3391:
  6578  002798  EFB3  F013         	goto	l3692
  6579  00279C                     u3390:
  6580  00279C                     l3698:
  6581                           
  6582                           ;D:\mplab\pic\sources\c99\common\doprnt.c: 595:     i = 0;
  6583  00279C  0E00               	movlw	0
  6584  00279E  6E17               	movwf	(stoa@i+1)^0,c
  6585  0027A0  0E00               	movlw	0
  6586  0027A2  6E16               	movwf	stoa@i^0,c
  6587                           
  6588                           ;D:\mplab\pic\sources\c99\common\doprnt.c: 596:     while (i < p) {
  6589  0027A4  EFE7  F013         	goto	l3706
  6590  0027A8                     l3700:
  6591                           
  6592                           ;D:\mplab\pic\sources\c99\common\doprnt.c: 597:         fputc(*cp, fp);
  6593  0027A8  C01A  FFD9         	movff	stoa@cp,fsr2l
  6594  0027AC  C01B  FFDA         	movff	stoa@cp+1,fsr2h
  6595  0027B0  50DF               	movf	indf2,w,c
  6596  0027B2  6E0E               	movwf	??_stoa^0,c
  6597  0027B4  500E               	movf	??_stoa^0,w,c
  6598  0027B6  6E01               	movwf	fputc@c^0,c
  6599  0027B8  6A02               	clrf	(fputc@c+1)^0,c
  6600  0027BA  C00A  F003         	movff	stoa@fp,fputc@fp
  6601  0027BE  C00B  F004         	movff	stoa@fp+1,fputc@fp+1
  6602  0027C2  EC3F  F017         	call	_fputc	;wreg free
  6603  0027C6                     
  6604                           ;D:\mplab\pic\sources\c99\common\doprnt.c: 598:         ++cp;
  6605  0027C6  4A1A               	infsnz	stoa@cp^0,f,c
  6606  0027C8  2A1B               	incf	(stoa@cp+1)^0,f,c
  6607  0027CA                     
  6608                           ;D:\mplab\pic\sources\c99\common\doprnt.c: 599:         ++i;
  6609  0027CA  4A16               	infsnz	stoa@i^0,f,c
  6610  0027CC  2A17               	incf	(stoa@i+1)^0,f,c
  6611  0027CE                     l3706:
  6612                           
  6613                           ;D:\mplab\pic\sources\c99\common\doprnt.c: 596:     while (i < p) {
  6614  0027CE  501C               	movf	stoa@p^0,w,c
  6615  0027D0  5C16               	subwf	stoa@i^0,w,c
  6616  0027D2  5017               	movf	(stoa@i+1)^0,w,c
  6617  0027D4  0A80               	xorlw	128
  6618  0027D6  6E0E               	movwf	??_stoa^0,c
  6619  0027D8  501D               	movf	(stoa@p+1)^0,w,c
  6620  0027DA  0A80               	xorlw	128
  6621  0027DC  580E               	subwfb	??_stoa^0,w,c
  6622  0027DE  A0D8               	btfss	status,0,c
  6623  0027E0  EFF4  F013         	goto	u3401
  6624  0027E4  EFF6  F013         	goto	u3400
  6625  0027E8                     u3401:
  6626  0027E8  EFD4  F013         	goto	l3700
  6627  0027EC                     u3400:
  6628  0027EC                     
  6629                           ;D:\mplab\pic\sources\c99\common\doprnt.c: 603:     if (flags & (1 << 0)) {
  6630  0027EC  0100               	movlb	0	; () banked
  6631  0027EE  A1F3               	btfss	_flags& (0+255),0,b
  6632  0027F0  EFFC  F013         	goto	u3411
  6633  0027F4  EFFE  F013         	goto	u3410
  6634  0027F8                     u3411:
  6635  0027F8  EF1B  F014         	goto	l1468
  6636  0027FC                     u3410:
  6637  0027FC  EF0C  F014         	goto	l3714
  6638  002800                     l3710:
  6639                           
  6640                           ;D:\mplab\pic\sources\c99\common\doprnt.c: 605:             fputc(' ', fp);
  6641  002800  0E00               	movlw	0
  6642  002802  6E02               	movwf	(fputc@c+1)^0,c
  6643  002804  0E20               	movlw	32
  6644  002806  6E01               	movwf	fputc@c^0,c
  6645  002808  C00A  F003         	movff	stoa@fp,fputc@fp
  6646  00280C  C00B  F004         	movff	stoa@fp+1,fputc@fp+1
  6647  002810  EC3F  F017         	call	_fputc	;wreg free
  6648  002814                     
  6649                           ;D:\mplab\pic\sources\c99\common\doprnt.c: 606:             ++l;
  6650  002814  4A1E               	infsnz	stoa@l^0,f,c
  6651  002816  2A1F               	incf	(stoa@l+1)^0,f,c
  6652  002818                     l3714:
  6653                           
  6654                           ;D:\mplab\pic\sources\c99\common\doprnt.c: 604:         while (l < w) {
  6655  002818  5018               	movf	stoa@w^0,w,c
  6656  00281A  5C1E               	subwf	stoa@l^0,w,c
  6657  00281C  501F               	movf	(stoa@l+1)^0,w,c
  6658  00281E  0A80               	xorlw	128
  6659  002820  6E0E               	movwf	??_stoa^0,c
  6660  002822  5019               	movf	(stoa@w+1)^0,w,c
  6661  002824  0A80               	xorlw	128
  6662  002826  580E               	subwfb	??_stoa^0,w,c
  6663  002828  A0D8               	btfss	status,0,c
  6664  00282A  EF19  F014         	goto	u3421
  6665  00282E  EF1B  F014         	goto	u3420
  6666  002832                     u3421:
  6667  002832  EF00  F014         	goto	l3710
  6668  002836                     u3420:
  6669  002836                     l1468:
  6670                           
  6671                           ;D:\mplab\pic\sources\c99\common\doprnt.c: 610:     return l;
  6672  002836  C01E  F00A         	movff	stoa@l,?_stoa
  6673  00283A  C01F  F00B         	movff	stoa@l+1,?_stoa+1
  6674  00283E  0012               	return		;funcret
  6675  002840                     __end_of_stoa:
  6676                           	callstack 0
  6677                           
  6678 ;; *************** function _dtoa *****************
  6679 ;; Defined at:
  6680 ;;		line 287 in file "D:\mplab\pic\sources\c99\common\doprnt.c"
  6681 ;; Parameters:    Size  Location     Type
  6682 ;;  fp              2   27[COMRAM] PTR struct _IO_FILE
  6683 ;;		 -> sprintf@f(6), 
  6684 ;;  d               8   29[COMRAM] long long 
  6685 ;; Auto vars:     Size  Location     Type
  6686 ;;  n               8   53[COMRAM] long long 
  6687 ;;  i               2   61[COMRAM] int 
  6688 ;;  s               2   51[COMRAM] int 
  6689 ;;  w               2   49[COMRAM] int 
  6690 ;;  p               2   47[COMRAM] int 
  6691 ;; Return value:  Size  Location     Type
  6692 ;;                  2   27[COMRAM] int 
  6693 ;; Registers used:
  6694 ;;		wreg, fsr1l, fsr1h, fsr2l, fsr2h, status,2, status,0, cstack
  6695 ;; Tracked objects:
  6696 ;;		On entry : 0/0
  6697 ;;		On exit  : 0/0
  6698 ;;		Unchanged: 0/0
  6699 ;; Data sizes:     COMRAM   BANK0   BANK1   BANK2   BANK3   BANK4   BANK5   BANK6   BANK7
  6700 ;;      Params:        10       0       0       0       0       0       0       0       0
  6701 ;;      Locals:        18       0       0       0       0       0       0       0       0
  6702 ;;      Temps:          8       0       0       0       0       0       0       0       0
  6703 ;;      Totals:        36       0       0       0       0       0       0       0       0
  6704 ;;Total ram usage:       36 bytes
  6705 ;; Hardware stack levels used: 1
  6706 ;; Hardware stack levels required when called: 4
  6707 ;; This function calls:
  6708 ;;		___aodiv
  6709 ;;		___aomod
  6710 ;;		_abs
  6711 ;;		_pad
  6712 ;; This function is called by:
  6713 ;;		_vfpfcnvrt
  6714 ;; This function uses a non-reentrant model
  6715 ;;
  6716                           
  6717                           	psect	text39
  6718  001866                     __ptext39:
  6719                           	callstack 0
  6720  001866                     _dtoa:
  6721                           	callstack 20
  6722  001866                     
  6723                           ;D:\mplab\pic\sources\c99\common\doprnt.c: 287: static int dtoa(FILE *fp, long long d);D
      +                          :\mplab\pic\sources\c99\common\doprnt.c: 288: {;D:\mplab\pic\sources\c99\common\doprnt.c
      +                          : 289:     int i, p, s, w;;D:\mplab\pic\sources\c99\common\doprnt.c: 290:     long long 
      +                          n;;D:\mplab\pic\sources\c99\common\doprnt.c: 293:     n = d;
  6724  001866  C01E  F036         	movff	dtoa@d,dtoa@n
  6725  00186A  C01F  F037         	movff	dtoa@d+1,dtoa@n+1
  6726  00186E  C020  F038         	movff	dtoa@d+2,dtoa@n+2
  6727  001872  C021  F039         	movff	dtoa@d+3,dtoa@n+3
  6728  001876  C022  F03A         	movff	dtoa@d+4,dtoa@n+4
  6729  00187A  C023  F03B         	movff	dtoa@d+5,dtoa@n+5
  6730  00187E  C024  F03C         	movff	dtoa@d+6,dtoa@n+6
  6731  001882  C025  F03D         	movff	dtoa@d+7,dtoa@n+7
  6732  001886                     
  6733                           ;D:\mplab\pic\sources\c99\common\doprnt.c: 294:     s = n < 0 ? 1 : 0;
  6734  001886  BE3D               	btfsc	(dtoa@n+7)^0,7,c
  6735  001888  EF48  F00C         	goto	u3191
  6736  00188C  EF4B  F00C         	goto	u3190
  6737  001890                     u3191:
  6738  001890  0E01               	movlw	1
  6739  001892  EF4C  F00C         	goto	u3200
  6740  001896                     u3190:
  6741  001896  0E00               	movlw	0
  6742  001898                     u3200:
  6743  001898  6E34               	movwf	dtoa@s^0,c
  6744  00189A  6A35               	clrf	(dtoa@s+1)^0,c
  6745                           
  6746                           ;D:\mplab\pic\sources\c99\common\doprnt.c: 295:     if (s) {
  6747  00189C  5034               	movf	dtoa@s^0,w,c
  6748  00189E  1035               	iorwf	(dtoa@s+1)^0,w,c
  6749  0018A0  B4D8               	btfsc	status,2,c
  6750  0018A2  EF55  F00C         	goto	u3211
  6751  0018A6  EF57  F00C         	goto	u3210
  6752  0018AA                     u3211:
  6753  0018AA  EF67  F00C         	goto	l3618
  6754  0018AE                     u3210:
  6755  0018AE                     
  6756                           ;D:\mplab\pic\sources\c99\common\doprnt.c: 296:         n = -n;
  6757  0018AE  1E3D               	comf	(dtoa@n+7)^0,f,c
  6758  0018B0  1E3C               	comf	(dtoa@n+6)^0,f,c
  6759  0018B2  1E3B               	comf	(dtoa@n+5)^0,f,c
  6760  0018B4  1E3A               	comf	(dtoa@n+4)^0,f,c
  6761  0018B6  1E39               	comf	(dtoa@n+3)^0,f,c
  6762  0018B8  1E38               	comf	(dtoa@n+2)^0,f,c
  6763  0018BA  1E37               	comf	(dtoa@n+1)^0,f,c
  6764  0018BC  6C36               	negf	dtoa@n^0,c
  6765  0018BE  0E00               	movlw	0
  6766  0018C0  2237               	addwfc	(dtoa@n+1)^0,f,c
  6767  0018C2  2238               	addwfc	(dtoa@n+2)^0,f,c
  6768  0018C4  2239               	addwfc	(dtoa@n+3)^0,f,c
  6769  0018C6  223A               	addwfc	(dtoa@n+4)^0,f,c
  6770  0018C8  223B               	addwfc	(dtoa@n+5)^0,f,c
  6771  0018CA  223C               	addwfc	(dtoa@n+6)^0,f,c
  6772  0018CC  223D               	addwfc	(dtoa@n+7)^0,f,c
  6773  0018CE                     l3618:
  6774                           
  6775                           ;D:\mplab\pic\sources\c99\common\doprnt.c: 300:     if (!(prec < 0)) {
  6776  0018CE  0100               	movlb	0	; () banked
  6777  0018D0  BFF2               	btfsc	(_prec+1)& (0+255),7,b
  6778  0018D2  EF6D  F00C         	goto	u3221
  6779  0018D6  EF6F  F00C         	goto	u3220
  6780  0018DA                     u3221:
  6781  0018DA  EF70  F00C         	goto	l3622
  6782  0018DE                     u3220:
  6783  0018DE                     
  6784                           ; BSR set to: 0
  6785                           ;D:\mplab\pic\sources\c99\common\doprnt.c: 301:         flags &= ~(1 << 1);
  6786  0018DE  93F3               	bcf	_flags& (0+255),1,b
  6787  0018E0                     l3622:
  6788                           
  6789                           ; BSR set to: 0
  6790                           ;D:\mplab\pic\sources\c99\common\doprnt.c: 303:     p = (0 < prec) ? prec : 1;
  6791  0018E0  BFF2               	btfsc	(_prec+1)& (0+255),7,b
  6792  0018E2  EF7D  F00C         	goto	u3230
  6793  0018E6  51F2               	movf	(_prec+1)& (0+255),w,b
  6794  0018E8  E106               	bnz	u3231
  6795  0018EA  05F1               	decf	_prec& (0+255),w,b
  6796  0018EC  B0D8               	btfsc	status,0,c
  6797  0018EE  EF7B  F00C         	goto	u3231
  6798  0018F2  EF7D  F00C         	goto	u3230
  6799  0018F6                     u3231:
  6800  0018F6  EF83  F00C         	goto	l1429
  6801  0018FA                     u3230:
  6802  0018FA                     
  6803                           ; BSR set to: 0
  6804  0018FA  0E00               	movlw	0
  6805  0018FC  6E31               	movwf	(dtoa@p+1)^0,c
  6806  0018FE  0E01               	movlw	1
  6807  001900  6E30               	movwf	dtoa@p^0,c
  6808  001902  EF87  F00C         	goto	l1431
  6809  001906                     l1429:
  6810                           
  6811                           ; BSR set to: 0
  6812  001906  C0F1  F030         	movff	_prec,dtoa@p
  6813  00190A  C0F2  F031         	movff	_prec+1,dtoa@p+1
  6814  00190E                     l1431:
  6815                           
  6816                           ; BSR set to: 0
  6817                           ;D:\mplab\pic\sources\c99\common\doprnt.c: 304:     w = width;
  6818  00190E  C1E8  F032         	movff	_width,dtoa@w
  6819  001912  C1E9  F033         	movff	_width+1,dtoa@w+1
  6820  001916                     
  6821                           ; BSR set to: 0
  6822                           ;D:\mplab\pic\sources\c99\common\doprnt.c: 305:     if (s || (flags & (1 << 2))) {
  6823  001916  5034               	movf	dtoa@s^0,w,c
  6824  001918  1035               	iorwf	(dtoa@s+1)^0,w,c
  6825  00191A  A4D8               	btfss	status,2,c
  6826  00191C  EF92  F00C         	goto	u3241
  6827  001920  EF94  F00C         	goto	u3240
  6828  001924                     u3241:
  6829  001924  EF9B  F00C         	goto	l3630
  6830  001928                     u3240:
  6831  001928                     
  6832                           ; BSR set to: 0
  6833  001928  A5F3               	btfss	_flags& (0+255),2,b
  6834  00192A  EF99  F00C         	goto	u3251
  6835  00192E  EF9B  F00C         	goto	u3250
  6836  001932                     u3251:
  6837  001932  EF9E  F00C         	goto	l3632
  6838  001936                     u3250:
  6839  001936                     l3630:
  6840                           
  6841                           ; BSR set to: 0
  6842                           ;D:\mplab\pic\sources\c99\common\doprnt.c: 306:         --w;
  6843  001936  0632               	decf	dtoa@w^0,f,c
  6844  001938  A0D8               	btfss	status,0,c
  6845  00193A  0633               	decf	(dtoa@w+1)^0,f,c
  6846  00193C                     l3632:
  6847                           
  6848                           ; BSR set to: 0
  6849                           ;D:\mplab\pic\sources\c99\common\doprnt.c: 310:     i = sizeof(dbuf) - 1;
  6850  00193C  0E00               	movlw	0
  6851  00193E  6E3F               	movwf	(dtoa@i+1)^0,c
  6852  001940  0E1F               	movlw	31
  6853  001942  6E3E               	movwf	dtoa@i^0,c
  6854  001944                     
  6855                           ; BSR set to: 0
  6856                           ;D:\mplab\pic\sources\c99\common\doprnt.c: 311:     dbuf[i] = '\0';
  6857  001944  0E00               	movlw	0
  6858  001946  0102               	movlb	2	; () banked
  6859  001948  6F5D               	movwf	(_dbuf+31)& (0+255),b
  6860                           
  6861                           ;D:\mplab\pic\sources\c99\common\doprnt.c: 312:     while (!(i < 1) && (n || (0 < p) || 
      +                          ((0 < w) && (flags & (1 << 1))))) {
  6862  00194A  EF23  F00D         	goto	l3646
  6863  00194E                     l3636:
  6864                           
  6865                           ;D:\mplab\pic\sources\c99\common\doprnt.c: 313:         --i;
  6866  00194E  063E               	decf	dtoa@i^0,f,c
  6867  001950  A0D8               	btfss	status,0,c
  6868  001952  063F               	decf	(dtoa@i+1)^0,f,c
  6869  001954                     
  6870                           ;D:\mplab\pic\sources\c99\common\doprnt.c: 314:         dbuf[i] = (char)((int)'0' + abs(
      +                          n % 10));
  6871  001954  0E3E               	movlw	low _dbuf
  6872  001956  243E               	addwf	dtoa@i^0,w,c
  6873  001958  6ED9               	movwf	fsr2l,c
  6874  00195A  0E02               	movlw	high _dbuf
  6875  00195C  203F               	addwfc	(dtoa@i+1)^0,w,c
  6876  00195E  6EDA               	movwf	fsr2h,c
  6877  001960  C036  F001         	movff	dtoa@n,___aomod@dividend
  6878  001964  C037  F002         	movff	dtoa@n+1,___aomod@dividend+1
  6879  001968  C038  F003         	movff	dtoa@n+2,___aomod@dividend+2
  6880  00196C  C039  F004         	movff	dtoa@n+3,___aomod@dividend+3
  6881  001970  C03A  F005         	movff	dtoa@n+4,___aomod@dividend+4
  6882  001974  C03B  F006         	movff	dtoa@n+5,___aomod@dividend+5
  6883  001978  C03C  F007         	movff	dtoa@n+6,___aomod@dividend+6
  6884  00197C  C03D  F008         	movff	dtoa@n+7,___aomod@dividend+7
  6885  001980  0E0A               	movlw	10
  6886  001982  6E09               	movwf	___aomod@divisor^0,c
  6887  001984  0E00               	movlw	0
  6888  001986  6E0A               	movwf	(___aomod@divisor+1)^0,c
  6889  001988  0E00               	movlw	0
  6890  00198A  6E0B               	movwf	(___aomod@divisor+2)^0,c
  6891  00198C  0E00               	movlw	0
  6892  00198E  6E0C               	movwf	(___aomod@divisor+3)^0,c
  6893  001990  0E00               	movlw	0
  6894  001992  6E0D               	movwf	(___aomod@divisor+4)^0,c
  6895  001994  0E00               	movlw	0
  6896  001996  6E0E               	movwf	(___aomod@divisor+5)^0,c
  6897  001998  0E00               	movlw	0
  6898  00199A  6E0F               	movwf	(___aomod@divisor+6)^0,c
  6899  00199C  0E00               	movlw	0
  6900  00199E  6E10               	movwf	(___aomod@divisor+7)^0,c
  6901  0019A0  EC20  F014         	call	___aomod	;wreg free
  6902  0019A4  C001  F026         	movff	?___aomod,??_dtoa
  6903  0019A8  C002  F027         	movff	?___aomod+1,??_dtoa+1
  6904  0019AC  C003  F028         	movff	?___aomod+2,??_dtoa+2
  6905  0019B0  C004  F029         	movff	?___aomod+3,??_dtoa+3
  6906  0019B4  C005  F02A         	movff	?___aomod+4,??_dtoa+4
  6907  0019B8  C006  F02B         	movff	?___aomod+5,??_dtoa+5
  6908  0019BC  C007  F02C         	movff	?___aomod+6,??_dtoa+6
  6909  0019C0  C008  F02D         	movff	?___aomod+7,??_dtoa+7
  6910  0019C4  C026  F013         	movff	??_dtoa,abs@a
  6911  0019C8  C028  F014         	movff	??_dtoa+2,abs@a+1
  6912  0019CC  ECE2  F01D         	call	_abs	;wreg free
  6913  0019D0  5013               	movf	?_abs^0,w,c
  6914  0019D2  0F30               	addlw	48
  6915  0019D4  6EDF               	movwf	indf2,c
  6916  0019D6                     
  6917                           ;D:\mplab\pic\sources\c99\common\doprnt.c: 315:         --p;
  6918  0019D6  0630               	decf	dtoa@p^0,f,c
  6919  0019D8  A0D8               	btfss	status,0,c
  6920  0019DA  0631               	decf	(dtoa@p+1)^0,f,c
  6921  0019DC                     
  6922                           ;D:\mplab\pic\sources\c99\common\doprnt.c: 316:         --w;
  6923  0019DC  0632               	decf	dtoa@w^0,f,c
  6924  0019DE  A0D8               	btfss	status,0,c
  6925  0019E0  0633               	decf	(dtoa@w+1)^0,f,c
  6926  0019E2                     
  6927                           ;D:\mplab\pic\sources\c99\common\doprnt.c: 317:         n = n / 10;
  6928  0019E2  C036  F001         	movff	dtoa@n,___aodiv@dividend
  6929  0019E6  C037  F002         	movff	dtoa@n+1,___aodiv@dividend+1
  6930  0019EA  C038  F003         	movff	dtoa@n+2,___aodiv@dividend+2
  6931  0019EE  C039  F004         	movff	dtoa@n+3,___aodiv@dividend+3
  6932  0019F2  C03A  F005         	movff	dtoa@n+4,___aodiv@dividend+4
  6933  0019F6  C03B  F006         	movff	dtoa@n+5,___aodiv@dividend+5
  6934  0019FA  C03C  F007         	movff	dtoa@n+6,___aodiv@dividend+6
  6935  0019FE  C03D  F008         	movff	dtoa@n+7,___aodiv@dividend+7
  6936  001A02  0E0A               	movlw	10
  6937  001A04  6E09               	movwf	___aodiv@divisor^0,c
  6938  001A06  0E00               	movlw	0
  6939  001A08  6E0A               	movwf	(___aodiv@divisor+1)^0,c
  6940  001A0A  0E00               	movlw	0
  6941  001A0C  6E0B               	movwf	(___aodiv@divisor+2)^0,c
  6942  001A0E  0E00               	movlw	0
  6943  001A10  6E0C               	movwf	(___aodiv@divisor+3)^0,c
  6944  001A12  0E00               	movlw	0
  6945  001A14  6E0D               	movwf	(___aodiv@divisor+4)^0,c
  6946  001A16  0E00               	movlw	0
  6947  001A18  6E0E               	movwf	(___aodiv@divisor+5)^0,c
  6948  001A1A  0E00               	movlw	0
  6949  001A1C  6E0F               	movwf	(___aodiv@divisor+6)^0,c
  6950  001A1E  0E00               	movlw	0
  6951  001A20  6E10               	movwf	(___aodiv@divisor+7)^0,c
  6952  001A22  EC99  F012         	call	___aodiv	;wreg free
  6953  001A26  C001  F036         	movff	?___aodiv,dtoa@n
  6954  001A2A  C002  F037         	movff	?___aodiv+1,dtoa@n+1
  6955  001A2E  C003  F038         	movff	?___aodiv+2,dtoa@n+2
  6956  001A32  C004  F039         	movff	?___aodiv+3,dtoa@n+3
  6957  001A36  C005  F03A         	movff	?___aodiv+4,dtoa@n+4
  6958  001A3A  C006  F03B         	movff	?___aodiv+5,dtoa@n+5
  6959  001A3E  C007  F03C         	movff	?___aodiv+6,dtoa@n+6
  6960  001A42  C008  F03D         	movff	?___aodiv+7,dtoa@n+7
  6961  001A46                     l3646:
  6962                           
  6963                           ;D:\mplab\pic\sources\c99\common\doprnt.c: 312:     while (!(i < 1) && (n || (0 < p) || 
      +                          ((0 < w) && (flags & (1 << 1))))) {
  6964  001A46  BE3F               	btfsc	(dtoa@i+1)^0,7,c
  6965  001A48  EF2E  F00D         	goto	u3261
  6966  001A4C  503F               	movf	(dtoa@i+1)^0,w,c
  6967  001A4E  E108               	bnz	u3260
  6968  001A50  043E               	decf	dtoa@i^0,w,c
  6969  001A52  A0D8               	btfss	status,0,c
  6970  001A54  EF2E  F00D         	goto	u3261
  6971  001A58  EF30  F00D         	goto	u3260
  6972  001A5C                     u3261:
  6973  001A5C  EF61  F00D         	goto	l3656
  6974  001A60                     u3260:
  6975  001A60  5036               	movf	dtoa@n^0,w,c
  6976  001A62  1037               	iorwf	(dtoa@n+1)^0,w,c
  6977  001A64  1038               	iorwf	(dtoa@n+2)^0,w,c
  6978  001A66  1039               	iorwf	(dtoa@n+3)^0,w,c
  6979  001A68  103A               	iorwf	(dtoa@n+4)^0,w,c
  6980  001A6A  103B               	iorwf	(dtoa@n+5)^0,w,c
  6981  001A6C  103C               	iorwf	(dtoa@n+6)^0,w,c
  6982  001A6E  103D               	iorwf	(dtoa@n+7)^0,w,c
  6983  001A70  A4D8               	btfss	status,2,c
  6984  001A72  EF3D  F00D         	goto	u3271
  6985  001A76  EF3F  F00D         	goto	u3270
  6986  001A7A                     u3271:
  6987  001A7A  EFA7  F00C         	goto	l3636
  6988  001A7E                     u3270:
  6989  001A7E  BE31               	btfsc	(dtoa@p+1)^0,7,c
  6990  001A80  EF4C  F00D         	goto	u3280
  6991  001A84  5031               	movf	(dtoa@p+1)^0,w,c
  6992  001A86  E106               	bnz	u3281
  6993  001A88  0430               	decf	dtoa@p^0,w,c
  6994  001A8A  B0D8               	btfsc	status,0,c
  6995  001A8C  EF4A  F00D         	goto	u3281
  6996  001A90  EF4C  F00D         	goto	u3280
  6997  001A94                     u3281:
  6998  001A94  EFA7  F00C         	goto	l3636
  6999  001A98                     u3280:
  7000  001A98  BE33               	btfsc	(dtoa@w+1)^0,7,c
  7001  001A9A  EF57  F00D         	goto	u3291
  7002  001A9E  5033               	movf	(dtoa@w+1)^0,w,c
  7003  001AA0  E108               	bnz	u3290
  7004  001AA2  0432               	decf	dtoa@w^0,w,c
  7005  001AA4  A0D8               	btfss	status,0,c
  7006  001AA6  EF57  F00D         	goto	u3291
  7007  001AAA  EF59  F00D         	goto	u3290
  7008  001AAE                     u3291:
  7009  001AAE  EF61  F00D         	goto	l3656
  7010  001AB2                     u3290:
  7011  001AB2  0100               	movlb	0	; () banked
  7012  001AB4  B3F3               	btfsc	_flags& (0+255),1,b
  7013  001AB6  EF5F  F00D         	goto	u3301
  7014  001ABA  EF61  F00D         	goto	u3300
  7015  001ABE                     u3301:
  7016  001ABE  EFA7  F00C         	goto	l3636
  7017  001AC2                     u3300:
  7018  001AC2                     l3656:
  7019                           
  7020                           ;D:\mplab\pic\sources\c99\common\doprnt.c: 321:     if (s || (flags & (1 << 2))) {
  7021  001AC2  5034               	movf	dtoa@s^0,w,c
  7022  001AC4  1035               	iorwf	(dtoa@s+1)^0,w,c
  7023  001AC6  A4D8               	btfss	status,2,c
  7024  001AC8  EF68  F00D         	goto	u3311
  7025  001ACC  EF6A  F00D         	goto	u3310
  7026  001AD0                     u3311:
  7027  001AD0  EF72  F00D         	goto	l3660
  7028  001AD4                     u3310:
  7029  001AD4  0100               	movlb	0	; () banked
  7030  001AD6  A5F3               	btfss	_flags& (0+255),2,b
  7031  001AD8  EF70  F00D         	goto	u3321
  7032  001ADC  EF72  F00D         	goto	u3320
  7033  001AE0                     u3321:
  7034  001AE0  EF90  F00D         	goto	l3670
  7035  001AE4                     u3320:
  7036  001AE4                     l3660:
  7037                           
  7038                           ;D:\mplab\pic\sources\c99\common\doprnt.c: 322:         --i;
  7039  001AE4  063E               	decf	dtoa@i^0,f,c
  7040  001AE6  A0D8               	btfss	status,0,c
  7041  001AE8  063F               	decf	(dtoa@i+1)^0,f,c
  7042  001AEA                     
  7043                           ;D:\mplab\pic\sources\c99\common\doprnt.c: 323:         dbuf[i] = s ? '-' : '+';
  7044  001AEA  5034               	movf	dtoa@s^0,w,c
  7045  001AEC  1035               	iorwf	(dtoa@s+1)^0,w,c
  7046  001AEE  A4D8               	btfss	status,2,c
  7047  001AF0  EF7C  F00D         	goto	u3331
  7048  001AF4  EF7E  F00D         	goto	u3330
  7049  001AF8                     u3331:
  7050  001AF8  EF84  F00D         	goto	l3666
  7051  001AFC                     u3330:
  7052  001AFC  0E00               	movlw	0
  7053  001AFE  6E2F               	movwf	(_dtoa$1866+1)^0,c
  7054  001B00  0E2B               	movlw	43
  7055  001B02  6E2E               	movwf	_dtoa$1866^0,c
  7056  001B04  EF88  F00D         	goto	l3668
  7057  001B08                     l3666:
  7058  001B08  0E00               	movlw	0
  7059  001B0A  6E2F               	movwf	(_dtoa$1866+1)^0,c
  7060  001B0C  0E2D               	movlw	45
  7061  001B0E  6E2E               	movwf	_dtoa$1866^0,c
  7062  001B10                     l3668:
  7063  001B10  0E3E               	movlw	low _dbuf
  7064  001B12  243E               	addwf	dtoa@i^0,w,c
  7065  001B14  6ED9               	movwf	fsr2l,c
  7066  001B16  0E02               	movlw	high _dbuf
  7067  001B18  203F               	addwfc	(dtoa@i+1)^0,w,c
  7068  001B1A  6EDA               	movwf	fsr2h,c
  7069  001B1C  C02E  FFDF         	movff	_dtoa$1866,indf2
  7070  001B20                     l3670:
  7071                           
  7072                           ;D:\mplab\pic\sources\c99\common\doprnt.c: 327:     return pad(fp, &dbuf[i], w);
  7073  001B20  C01C  F011         	movff	dtoa@fp,pad@fp
  7074  001B24  C01D  F012         	movff	dtoa@fp+1,pad@fp+1
  7075  001B28  0E3E               	movlw	low _dbuf
  7076  001B2A  243E               	addwf	dtoa@i^0,w,c
  7077  001B2C  6E13               	movwf	pad@buf^0,c
  7078  001B2E  0E02               	movlw	high _dbuf
  7079  001B30  203F               	addwfc	(dtoa@i+1)^0,w,c
  7080  001B32  6E14               	movwf	(pad@buf+1)^0,c
  7081  001B34  C032  F015         	movff	dtoa@w,pad@p
  7082  001B38  C033  F016         	movff	dtoa@w+1,pad@p+1
  7083  001B3C  ECA4  F017         	call	_pad	;wreg free
  7084  001B40  C011  F01C         	movff	?_pad,?_dtoa
  7085  001B44  C012  F01D         	movff	?_pad+1,?_dtoa+1
  7086  001B48  0012               	return		;funcret
  7087  001B4A                     __end_of_dtoa:
  7088                           	callstack 0
  7089                           
  7090 ;; *************** function _pad *****************
  7091 ;; Defined at:
  7092 ;;		line 72 in file "D:\mplab\pic\sources\c99\common\doprnt.c"
  7093 ;; Parameters:    Size  Location     Type
  7094 ;;  fp              2   16[COMRAM] PTR struct _IO_FILE
  7095 ;;		 -> sprintf@f(6), 
  7096 ;;  buf             2   18[COMRAM] PTR unsigned char 
  7097 ;;		 -> dbuf(32), 
  7098 ;;  p               2   20[COMRAM] int 
  7099 ;; Auto vars:     Size  Location     Type
  7100 ;;  w               2   25[COMRAM] int 
  7101 ;;  i               2   23[COMRAM] int 
  7102 ;; Return value:  Size  Location     Type
  7103 ;;                  2   16[COMRAM] int 
  7104 ;; Registers used:
  7105 ;;		wreg, fsr1l, fsr1h, fsr2l, fsr2h, status,2, status,0, cstack
  7106 ;; Tracked objects:
  7107 ;;		On entry : 0/0
  7108 ;;		On exit  : 0/0
  7109 ;;		Unchanged: 0/0
  7110 ;; Data sizes:     COMRAM   BANK0   BANK1   BANK2   BANK3   BANK4   BANK5   BANK6   BANK7
  7111 ;;      Params:         6       0       0       0       0       0       0       0       0
  7112 ;;      Locals:         4       0       0       0       0       0       0       0       0
  7113 ;;      Temps:          1       0       0       0       0       0       0       0       0
  7114 ;;      Totals:        11       0       0       0       0       0       0       0       0
  7115 ;;Total ram usage:       11 bytes
  7116 ;; Hardware stack levels used: 1
  7117 ;; Hardware stack levels required when called: 3
  7118 ;; This function calls:
  7119 ;;		_fputc
  7120 ;;		_fputs
  7121 ;;		_strlen
  7122 ;; This function is called by:
  7123 ;;		_dtoa
  7124 ;;		_xtoa
  7125 ;; This function uses a non-reentrant model
  7126 ;;
  7127                           
  7128                           	psect	text40
  7129  002F48                     __ptext40:
  7130                           	callstack 0
  7131  002F48                     _pad:
  7132                           	callstack 20
  7133  002F48                     
  7134                           ;D:\mplab\pic\sources\c99\common\doprnt.c: 72: static int pad(FILE *fp, char *buf, int p
      +                          );D:\mplab\pic\sources\c99\common\doprnt.c: 73: {;D:\mplab\pic\sources\c99\common\doprnt
      +                          .c: 74:     int i, w;;D:\mplab\pic\sources\c99\common\doprnt.c: 77:     if (flags & (1 <
      +                          < 0)) {
  7135  002F48  0100               	movlb	0	; () banked
  7136  002F4A  A1F3               	btfss	_flags& (0+255),0,b
  7137  002F4C  EFAA  F017         	goto	u3061
  7138  002F50  EFAC  F017         	goto	u3060
  7139  002F54                     u3061:
  7140  002F54  EFB6  F017         	goto	l3570
  7141  002F58                     u3060:
  7142  002F58                     
  7143                           ; BSR set to: 0
  7144                           ;D:\mplab\pic\sources\c99\common\doprnt.c: 78:         fputs((const char *)buf, fp);
  7145  002F58  C013  F00A         	movff	pad@buf,fputs@s
  7146  002F5C  C014  F00B         	movff	pad@buf+1,fputs@s+1
  7147  002F60  C011  F00C         	movff	pad@fp,fputs@fp
  7148  002F64  C012  F00D         	movff	pad@fp+1,fputs@fp+1
  7149  002F68  EC7F  F01D         	call	_fputs	;wreg free
  7150  002F6C                     l3570:
  7151                           
  7152                           ;D:\mplab\pic\sources\c99\common\doprnt.c: 82:     w = (p < 0) ? 0 : p;
  7153  002F6C  BE16               	btfsc	(pad@p+1)^0,7,c
  7154  002F6E  EFBB  F017         	goto	u3071
  7155  002F72  EFBD  F017         	goto	u3070
  7156  002F76                     u3071:
  7157  002F76  EFC3  F017         	goto	l3574
  7158  002F7A                     u3070:
  7159  002F7A  C015  F01A         	movff	pad@p,pad@w
  7160  002F7E  C016  F01B         	movff	pad@p+1,pad@w+1
  7161  002F82  EFC7  F017         	goto	l1418
  7162  002F86                     l3574:
  7163  002F86  0E00               	movlw	0
  7164  002F88  6E1B               	movwf	(pad@w+1)^0,c
  7165  002F8A  0E00               	movlw	0
  7166  002F8C  6E1A               	movwf	pad@w^0,c
  7167  002F8E                     l1418:
  7168                           
  7169                           ;D:\mplab\pic\sources\c99\common\doprnt.c: 83:     i = 0;
  7170  002F8E  0E00               	movlw	0
  7171  002F90  6E19               	movwf	(pad@i+1)^0,c
  7172  002F92  0E00               	movlw	0
  7173  002F94  6E18               	movwf	pad@i^0,c
  7174                           
  7175                           ;D:\mplab\pic\sources\c99\common\doprnt.c: 84:     while (i < w) {
  7176  002F96  EFD9  F017         	goto	l3580
  7177  002F9A                     l3576:
  7178                           
  7179                           ;D:\mplab\pic\sources\c99\common\doprnt.c: 85:         fputc(' ', fp);
  7180  002F9A  0E00               	movlw	0
  7181  002F9C  6E02               	movwf	(fputc@c+1)^0,c
  7182  002F9E  0E20               	movlw	32
  7183  002FA0  6E01               	movwf	fputc@c^0,c
  7184  002FA2  C011  F003         	movff	pad@fp,fputc@fp
  7185  002FA6  C012  F004         	movff	pad@fp+1,fputc@fp+1
  7186  002FAA  EC3F  F017         	call	_fputc	;wreg free
  7187  002FAE                     
  7188                           ;D:\mplab\pic\sources\c99\common\doprnt.c: 86:         ++i;
  7189  002FAE  4A18               	infsnz	pad@i^0,f,c
  7190  002FB0  2A19               	incf	(pad@i+1)^0,f,c
  7191  002FB2                     l3580:
  7192                           
  7193                           ;D:\mplab\pic\sources\c99\common\doprnt.c: 84:     while (i < w) {
  7194  002FB2  501A               	movf	pad@w^0,w,c
  7195  002FB4  5C18               	subwf	pad@i^0,w,c
  7196  002FB6  5019               	movf	(pad@i+1)^0,w,c
  7197  002FB8  0A80               	xorlw	128
  7198  002FBA  6E17               	movwf	??_pad^0,c
  7199  002FBC  501B               	movf	(pad@w+1)^0,w,c
  7200  002FBE  0A80               	xorlw	128
  7201  002FC0  5817               	subwfb	??_pad^0,w,c
  7202  002FC2  A0D8               	btfss	status,0,c
  7203  002FC4  EFE6  F017         	goto	u3081
  7204  002FC8  EFE8  F017         	goto	u3080
  7205  002FCC                     u3081:
  7206  002FCC  EFCD  F017         	goto	l3576
  7207  002FD0                     u3080:
  7208  002FD0                     
  7209                           ;D:\mplab\pic\sources\c99\common\doprnt.c: 90:     if (!(flags & (1 << 0))) {
  7210  002FD0  0100               	movlb	0	; () banked
  7211  002FD2  B1F3               	btfsc	_flags& (0+255),0,b
  7212  002FD4  EFEE  F017         	goto	u3091
  7213  002FD8  EFF0  F017         	goto	u3090
  7214  002FDC                     u3091:
  7215  002FDC  EFFA  F017         	goto	l3584
  7216  002FE0                     u3090:
  7217  002FE0                     
  7218                           ; BSR set to: 0
  7219                           ;D:\mplab\pic\sources\c99\common\doprnt.c: 91:         fputs((const char *)buf, fp);
  7220  002FE0  C013  F00A         	movff	pad@buf,fputs@s
  7221  002FE4  C014  F00B         	movff	pad@buf+1,fputs@s+1
  7222  002FE8  C011  F00C         	movff	pad@fp,fputs@fp
  7223  002FEC  C012  F00D         	movff	pad@fp+1,fputs@fp+1
  7224  002FF0  EC7F  F01D         	call	_fputs	;wreg free
  7225  002FF4                     l3584:
  7226                           
  7227                           ;D:\mplab\pic\sources\c99\common\doprnt.c: 94:     return (int)(strlen(buf) + (size_t)w)
      +                          ;
  7228  002FF4  C013  F001         	movff	pad@buf,strlen@s
  7229  002FF8  C014  F002         	movff	pad@buf+1,strlen@s+1
  7230  002FFC  ECCB  F01E         	call	_strlen	;wreg free
  7231  003000  501A               	movf	pad@w^0,w,c
  7232  003002  2401               	addwf	?_strlen^0,w,c
  7233  003004  6E11               	movwf	?_pad^0,c
  7234  003006  501B               	movf	(pad@w+1)^0,w,c
  7235  003008  2002               	addwfc	(?_strlen+1)^0,w,c
  7236  00300A  6E12               	movwf	(?_pad+1)^0,c
  7237  00300C  0012               	return		;funcret
  7238  00300E                     __end_of_pad:
  7239                           	callstack 0
  7240                           
  7241 ;; *************** function _strlen *****************
  7242 ;; Defined at:
  7243 ;;		line 5 in file "D:\mplab\pic\sources\c99\common\strlen.c"
  7244 ;; Parameters:    Size  Location     Type
  7245 ;;  s               2    0[COMRAM] PTR const unsigned char 
  7246 ;;		 -> stoa@nuls(7), dbuf(32), ?_sprintf(2), date(60), 
  7247 ;;		 -> validar@valor_usart_844(30), validar@valor_usart_842(30), validar@valor_usart(30), 
  7248 ;; Auto vars:     Size  Location     Type
  7249 ;;  a               2    2[COMRAM] PTR const unsigned char 
  7250 ;;		 -> stoa@nuls(7), dbuf(32), ?_sprintf(2), date(60), 
  7251 ;;		 -> validar@valor_usart_844(30), validar@valor_usart_842(30), validar@valor_usart(30), 
  7252 ;; Return value:  Size  Location     Type
  7253 ;;                  2    0[COMRAM] unsigned int 
  7254 ;; Registers used:
  7255 ;;		wreg, fsr2l, fsr2h, status,2, status,0
  7256 ;; Tracked objects:
  7257 ;;		On entry : 0/0
  7258 ;;		On exit  : 0/0
  7259 ;;		Unchanged: 0/0
  7260 ;; Data sizes:     COMRAM   BANK0   BANK1   BANK2   BANK3   BANK4   BANK5   BANK6   BANK7
  7261 ;;      Params:         2       0       0       0       0       0       0       0       0
  7262 ;;      Locals:         2       0       0       0       0       0       0       0       0
  7263 ;;      Temps:          0       0       0       0       0       0       0       0       0
  7264 ;;      Totals:         4       0       0       0       0       0       0       0       0
  7265 ;;Total ram usage:        4 bytes
  7266 ;; Hardware stack levels used: 1
  7267 ;; This function calls:
  7268 ;;		Nothing
  7269 ;; This function is called by:
  7270 ;;		_pad
  7271 ;;		_stoa
  7272 ;;		_strcat
  7273 ;; This function uses a non-reentrant model
  7274 ;;
  7275                           
  7276                           	psect	text41
  7277  003D96                     __ptext41:
  7278                           	callstack 0
  7279  003D96                     _strlen:
  7280                           	callstack 22
  7281  003D96  C001  F003         	movff	strlen@s,strlen@a
  7282  003D9A  C002  F004         	movff	strlen@s+1,strlen@a+1
  7283  003D9E  EFD3  F01E         	goto	l3476
  7284  003DA2                     l3474:
  7285  003DA2  4A01               	infsnz	strlen@s^0,f,c
  7286  003DA4  2A02               	incf	(strlen@s+1)^0,f,c
  7287  003DA6                     l3476:
  7288  003DA6  C001  FFD9         	movff	strlen@s,fsr2l
  7289  003DAA  C002  FFDA         	movff	strlen@s+1,fsr2h
  7290  003DAE  50DF               	movf	indf2,w,c
  7291  003DB0  A4D8               	btfss	status,2,c
  7292  003DB2  EFDD  F01E         	goto	u2901
  7293  003DB6  EFDF  F01E         	goto	u2900
  7294  003DBA                     u2901:
  7295  003DBA  EFD1  F01E         	goto	l3474
  7296  003DBE                     u2900:
  7297  003DBE  5003               	movf	strlen@a^0,w,c
  7298  003DC0  5C01               	subwf	strlen@s^0,w,c
  7299  003DC2  6E01               	movwf	?_strlen^0,c
  7300  003DC4  5004               	movf	(strlen@a+1)^0,w,c
  7301  003DC6  5802               	subwfb	(strlen@s+1)^0,w,c
  7302  003DC8  6E02               	movwf	(?_strlen+1)^0,c
  7303  003DCA  0012               	return		;funcret
  7304  003DCC                     __end_of_strlen:
  7305                           	callstack 0
  7306                           
  7307 ;; *************** function _fputs *****************
  7308 ;; Defined at:
  7309 ;;		line 8 in file "D:\mplab\pic\sources\c99\common\nf_fputs.c"
  7310 ;; Parameters:    Size  Location     Type
  7311 ;;  s               2    9[COMRAM] PTR const unsigned char 
  7312 ;;		 -> dbuf(32), 
  7313 ;;  fp              2   11[COMRAM] PTR struct _IO_FILE
  7314 ;;		 -> sprintf@f(6), 
  7315 ;; Auto vars:     Size  Location     Type
  7316 ;;  i               2   14[COMRAM] int 
  7317 ;;  c               1   13[COMRAM] unsigned char 
  7318 ;; Return value:  Size  Location     Type
  7319 ;;                  2    9[COMRAM] int 
  7320 ;; Registers used:
  7321 ;;		wreg, fsr1l, fsr1h, fsr2l, fsr2h, status,2, status,0, cstack
  7322 ;; Tracked objects:
  7323 ;;		On entry : 0/0
  7324 ;;		On exit  : 0/0
  7325 ;;		Unchanged: 0/0
  7326 ;; Data sizes:     COMRAM   BANK0   BANK1   BANK2   BANK3   BANK4   BANK5   BANK6   BANK7
  7327 ;;      Params:         4       0       0       0       0       0       0       0       0
  7328 ;;      Locals:         3       0       0       0       0       0       0       0       0
  7329 ;;      Temps:          0       0       0       0       0       0       0       0       0
  7330 ;;      Totals:         7       0       0       0       0       0       0       0       0
  7331 ;;Total ram usage:        7 bytes
  7332 ;; Hardware stack levels used: 1
  7333 ;; Hardware stack levels required when called: 2
  7334 ;; This function calls:
  7335 ;;		_fputc
  7336 ;; This function is called by:
  7337 ;;		_pad
  7338 ;; This function uses a non-reentrant model
  7339 ;;
  7340                           
  7341                           	psect	text42
  7342  003AFE                     __ptext42:
  7343                           	callstack 0
  7344  003AFE                     _fputs:
  7345                           	callstack 20
  7346  003AFE  0E00               	movlw	0
  7347  003B00  6E10               	movwf	(fputs@i+1)^0,c
  7348  003B02  0E00               	movlw	0
  7349  003B04  6E0F               	movwf	fputs@i^0,c
  7350  003B06  EF90  F01D         	goto	l3470
  7351  003B0A                     l3466:
  7352  003B0A  C00E  F001         	movff	fputs@c,fputc@c
  7353  003B0E  6A02               	clrf	(fputc@c+1)^0,c
  7354  003B10  C00C  F003         	movff	fputs@fp,fputc@fp
  7355  003B14  C00D  F004         	movff	fputs@fp+1,fputc@fp+1
  7356  003B18  EC3F  F017         	call	_fputc	;wreg free
  7357  003B1C  4A0F               	infsnz	fputs@i^0,f,c
  7358  003B1E  2A10               	incf	(fputs@i+1)^0,f,c
  7359  003B20                     l3470:
  7360  003B20  500F               	movf	fputs@i^0,w,c
  7361  003B22  240A               	addwf	fputs@s^0,w,c
  7362  003B24  6ED9               	movwf	fsr2l,c
  7363  003B26  5010               	movf	(fputs@i+1)^0,w,c
  7364  003B28  200B               	addwfc	(fputs@s+1)^0,w,c
  7365  003B2A  6EDA               	movwf	fsr2h,c
  7366  003B2C  50DF               	movf	indf2,w,c
  7367  003B2E  6E0E               	movwf	fputs@c^0,c
  7368  003B30  500E               	movf	fputs@c^0,w,c
  7369  003B32  A4D8               	btfss	status,2,c
  7370  003B34  EF9E  F01D         	goto	u2891
  7371  003B38  EFA0  F01D         	goto	u2890
  7372  003B3C                     u2891:
  7373  003B3C  EF85  F01D         	goto	l3466
  7374  003B40                     u2890:
  7375  003B40  0012               	return		;funcret
  7376  003B42                     __end_of_fputs:
  7377                           	callstack 0
  7378                           
  7379 ;; *************** function _fputc *****************
  7380 ;; Defined at:
  7381 ;;		line 8 in file "D:\mplab\pic\sources\c99\common\nf_fputc.c"
  7382 ;; Parameters:    Size  Location     Type
  7383 ;;  c               2    0[COMRAM] int 
  7384 ;;  fp              2    2[COMRAM] PTR struct _IO_FILE
  7385 ;;		 -> sprintf@f(6), 
  7386 ;; Auto vars:     Size  Location     Type
  7387 ;;		None
  7388 ;; Return value:  Size  Location     Type
  7389 ;;                  2    0[COMRAM] int 
  7390 ;; Registers used:
  7391 ;;		wreg, fsr1l, fsr1h, fsr2l, fsr2h, status,2, status,0, cstack
  7392 ;; Tracked objects:
  7393 ;;		On entry : 0/0
  7394 ;;		On exit  : 0/0
  7395 ;;		Unchanged: 0/0
  7396 ;; Data sizes:     COMRAM   BANK0   BANK1   BANK2   BANK3   BANK4   BANK5   BANK6   BANK7
  7397 ;;      Params:         4       0       0       0       0       0       0       0       0
  7398 ;;      Locals:         0       0       0       0       0       0       0       0       0
  7399 ;;      Temps:          5       0       0       0       0       0       0       0       0
  7400 ;;      Totals:         9       0       0       0       0       0       0       0       0
  7401 ;;Total ram usage:        9 bytes
  7402 ;; Hardware stack levels used: 1
  7403 ;; Hardware stack levels required when called: 1
  7404 ;; This function calls:
  7405 ;;		_putch
  7406 ;; This function is called by:
  7407 ;;		_pad
  7408 ;;		_stoa
  7409 ;;		_vfpfcnvrt
  7410 ;;		_fputs
  7411 ;; This function uses a non-reentrant model
  7412 ;;
  7413                           
  7414                           	psect	text43
  7415  002E7E                     __ptext43:
  7416                           	callstack 0
  7417  002E7E                     _fputc:
  7418                           	callstack 20
  7419  002E7E  5003               	movf	fputc@fp^0,w,c
  7420  002E80  1004               	iorwf	(fputc@fp+1)^0,w,c
  7421  002E82  B4D8               	btfsc	status,2,c
  7422  002E84  EF46  F017         	goto	u2851
  7423  002E88  EF48  F017         	goto	u2850
  7424  002E8C                     u2851:
  7425  002E8C  EF51  F017         	goto	l3454
  7426  002E90                     u2850:
  7427  002E90  5003               	movf	fputc@fp^0,w,c
  7428  002E92  1004               	iorwf	(fputc@fp+1)^0,w,c
  7429  002E94  A4D8               	btfss	status,2,c
  7430  002E96  EF4F  F017         	goto	u2861
  7431  002E9A  EF51  F017         	goto	u2860
  7432  002E9E                     u2861:
  7433  002E9E  EF56  F017         	goto	l3456
  7434  002EA2                     u2860:
  7435  002EA2                     l3454:
  7436  002EA2  5001               	movf	fputc@c^0,w,c
  7437  002EA4  EC9E  F020         	call	_putch
  7438  002EA8  EFA3  F017         	goto	l1551
  7439  002EAC                     l3456:
  7440  002EAC  EE20 F004          	lfsr	2,4
  7441  002EB0  5003               	movf	fputc@fp^0,w,c
  7442  002EB2  26D9               	addwf	fsr2l,f,c
  7443  002EB4  5004               	movf	(fputc@fp+1)^0,w,c
  7444  002EB6  22DA               	addwfc	fsr2h,f,c
  7445  002EB8  50DE               	movf	postinc2,w,c
  7446  002EBA  10DE               	iorwf	postinc2,w,c
  7447  002EBC  B4D8               	btfsc	status,2,c
  7448  002EBE  EF63  F017         	goto	u2871
  7449  002EC2  EF65  F017         	goto	u2870
  7450  002EC6                     u2871:
  7451  002EC6  EF80  F017         	goto	l3460
  7452  002ECA                     u2870:
  7453  002ECA  EE20 F004          	lfsr	2,4
  7454  002ECE  5003               	movf	fputc@fp^0,w,c
  7455  002ED0  26D9               	addwf	fsr2l,f,c
  7456  002ED2  5004               	movf	(fputc@fp+1)^0,w,c
  7457  002ED4  22DA               	addwfc	fsr2h,f,c
  7458  002ED6  EE10 F002          	lfsr	1,2
  7459  002EDA  5003               	movf	fputc@fp^0,w,c
  7460  002EDC  26E1               	addwf	fsr1l,f,c
  7461  002EDE  5004               	movf	(fputc@fp+1)^0,w,c
  7462  002EE0  22E2               	addwfc	fsr1h,f,c
  7463  002EE2  50DE               	movf	postinc2,w,c
  7464  002EE4  5CE6               	subwf	postinc1,w,c
  7465  002EE6  50E6               	movf	postinc1,w,c
  7466  002EE8  0A80               	xorlw	128
  7467  002EEA  6E09               	movwf	(??_fputc+4)^0,c
  7468  002EEC  50DE               	movf	postinc2,w,c
  7469  002EEE  0A80               	xorlw	128
  7470  002EF0  5809               	subwfb	(??_fputc+4)^0,w,c
  7471  002EF2  B0D8               	btfsc	status,0,c
  7472  002EF4  EF7E  F017         	goto	u2881
  7473  002EF8  EF80  F017         	goto	u2880
  7474  002EFC                     u2881:
  7475  002EFC  EFA3  F017         	goto	l1551
  7476  002F00                     u2880:
  7477  002F00                     l3460:
  7478  002F00  EE20 F002          	lfsr	2,2
  7479  002F04  5003               	movf	fputc@fp^0,w,c
  7480  002F06  26D9               	addwf	fsr2l,f,c
  7481  002F08  5004               	movf	(fputc@fp+1)^0,w,c
  7482  002F0A  22DA               	addwfc	fsr2h,f,c
  7483  002F0C  CFDE F005          	movff	postinc2,??_fputc
  7484  002F10  CFDD F006          	movff	postdec2,??_fputc+1
  7485  002F14  C003  FFD9         	movff	fputc@fp,fsr2l
  7486  002F18  C004  FFDA         	movff	fputc@fp+1,fsr2h
  7487  002F1C  CFDE F007          	movff	postinc2,??_fputc+2
  7488  002F20  CFDD F008          	movff	postdec2,??_fputc+3
  7489  002F24  5005               	movf	??_fputc^0,w,c
  7490  002F26  2407               	addwf	(??_fputc+2)^0,w,c
  7491  002F28  6ED9               	movwf	fsr2l,c
  7492  002F2A  5006               	movf	(??_fputc+1)^0,w,c
  7493  002F2C  2008               	addwfc	(??_fputc+3)^0,w,c
  7494  002F2E  6EDA               	movwf	fsr2h,c
  7495  002F30  C001  FFDF         	movff	fputc@c,indf2
  7496  002F34  EE20 F002          	lfsr	2,2
  7497  002F38  5003               	movf	fputc@fp^0,w,c
  7498  002F3A  26D9               	addwf	fsr2l,f,c
  7499  002F3C  5004               	movf	(fputc@fp+1)^0,w,c
  7500  002F3E  22DA               	addwfc	fsr2h,f,c
  7501  002F40  2ADE               	incf	postinc2,f,c
  7502  002F42  0E00               	movlw	0
  7503  002F44  22DD               	addwfc	postdec2,f,c
  7504  002F46                     l1551:
  7505  002F46  0012               	return		;funcret
  7506  002F48                     __end_of_fputc:
  7507                           	callstack 0
  7508                           
  7509 ;; *************** function _putch *****************
  7510 ;; Defined at:
  7511 ;;		line 7 in file "D:\mplab\pic\sources\c99\common\putch.c"
  7512 ;; Parameters:    Size  Location     Type
  7513 ;;  c               1    wreg     unsigned char 
  7514 ;; Auto vars:     Size  Location     Type
  7515 ;;  c               1    0[COMRAM] unsigned char 
  7516 ;; Return value:  Size  Location     Type
  7517 ;;                  1    wreg      void 
  7518 ;; Registers used:
  7519 ;;		wreg
  7520 ;; Tracked objects:
  7521 ;;		On entry : 0/0
  7522 ;;		On exit  : 0/0
  7523 ;;		Unchanged: 0/0
  7524 ;; Data sizes:     COMRAM   BANK0   BANK1   BANK2   BANK3   BANK4   BANK5   BANK6   BANK7
  7525 ;;      Params:         0       0       0       0       0       0       0       0       0
  7526 ;;      Locals:         0       0       0       0       0       0       0       0       0
  7527 ;;      Temps:          0       0       0       0       0       0       0       0       0
  7528 ;;      Totals:         0       0       0       0       0       0       0       0       0
  7529 ;;Total ram usage:        0 bytes
  7530 ;; Hardware stack levels used: 1
  7531 ;; This function calls:
  7532 ;;		Nothing
  7533 ;; This function is called by:
  7534 ;;		_fputc
  7535 ;; This function uses a non-reentrant model
  7536 ;;
  7537                           
  7538                           	psect	text44
  7539  00413C                     __ptext44:
  7540                           	callstack 0
  7541  00413C                     _putch:
  7542                           	callstack 20
  7543  00413C  0012               	return		;funcret
  7544  00413E                     __end_of_putch:
  7545                           	callstack 0
  7546                           
  7547 ;; *************** function _abs *****************
  7548 ;; Defined at:
  7549 ;;		line 1 in file "D:\mplab\pic\sources\c99\common\abs.c"
  7550 ;; Parameters:    Size  Location     Type
  7551 ;;  a               2   18[COMRAM] int 
  7552 ;; Auto vars:     Size  Location     Type
  7553 ;;		None
  7554 ;; Return value:  Size  Location     Type
  7555 ;;                  2   18[COMRAM] int 
  7556 ;; Registers used:
  7557 ;;		wreg, status,2, status,0
  7558 ;; Tracked objects:
  7559 ;;		On entry : 0/0
  7560 ;;		On exit  : 0/0
  7561 ;;		Unchanged: 0/0
  7562 ;; Data sizes:     COMRAM   BANK0   BANK1   BANK2   BANK3   BANK4   BANK5   BANK6   BANK7
  7563 ;;      Params:         2       0       0       0       0       0       0       0       0
  7564 ;;      Locals:         0       0       0       0       0       0       0       0       0
  7565 ;;      Temps:          2       0       0       0       0       0       0       0       0
  7566 ;;      Totals:         4       0       0       0       0       0       0       0       0
  7567 ;;Total ram usage:        4 bytes
  7568 ;; Hardware stack levels used: 1
  7569 ;; This function calls:
  7570 ;;		Nothing
  7571 ;; This function is called by:
  7572 ;;		_dtoa
  7573 ;; This function uses a non-reentrant model
  7574 ;;
  7575                           
  7576                           	psect	text45
  7577  003BC4                     __ptext45:
  7578                           	callstack 0
  7579  003BC4                     _abs:
  7580                           	callstack 23
  7581  003BC4  BE14               	btfsc	(abs@a+1)^0,7,c
  7582  003BC6  EFEF  F01D         	goto	u3100
  7583  003BCA  5014               	movf	(abs@a+1)^0,w,c
  7584  003BCC  E106               	bnz	u3101
  7585  003BCE  0413               	decf	abs@a^0,w,c
  7586  003BD0  B0D8               	btfsc	status,0,c
  7587  003BD2  EFED  F01D         	goto	u3101
  7588  003BD6  EFEF  F01D         	goto	u3100
  7589  003BDA                     u3101:
  7590  003BDA  EFFD  F01D         	goto	l1524
  7591  003BDE                     u3100:
  7592  003BDE  C013  F015         	movff	abs@a,??_abs
  7593  003BE2  C014  F016         	movff	abs@a+1,??_abs+1
  7594  003BE6  1E15               	comf	??_abs^0,f,c
  7595  003BE8  1E16               	comf	(??_abs+1)^0,f,c
  7596  003BEA  4A15               	infsnz	??_abs^0,f,c
  7597  003BEC  2A16               	incf	(??_abs+1)^0,f,c
  7598  003BEE  C015  F013         	movff	??_abs,?_abs
  7599  003BF2  C016  F014         	movff	??_abs+1,?_abs+1
  7600  003BF6  EF01  F01E         	goto	l1527
  7601  003BFA                     l1524:
  7602  003BFA  C013  F013         	movff	abs@a,?_abs
  7603  003BFE  C014  F014         	movff	abs@a+1,?_abs+1
  7604  003C02                     l1527:
  7605  003C02  0012               	return		;funcret
  7606  003C04                     __end_of_abs:
  7607                           	callstack 0
  7608                           
  7609 ;; *************** function ___aomod *****************
  7610 ;; Defined at:
  7611 ;;		line 9 in file "D:\mplab\pic\sources\c99\common\aomod.c"
  7612 ;; Parameters:    Size  Location     Type
  7613 ;;  dividend        8    0[COMRAM] long long 
  7614 ;;  divisor         8    8[COMRAM] long long 
  7615 ;; Auto vars:     Size  Location     Type
  7616 ;;  sign            1   17[COMRAM] unsigned char 
  7617 ;;  counter         1   16[COMRAM] unsigned char 
  7618 ;; Return value:  Size  Location     Type
  7619 ;;                  8    0[COMRAM] long long 
  7620 ;; Registers used:
  7621 ;;		wreg, status,2, status,0
  7622 ;; Tracked objects:
  7623 ;;		On entry : 0/0
  7624 ;;		On exit  : 0/0
  7625 ;;		Unchanged: 0/0
  7626 ;; Data sizes:     COMRAM   BANK0   BANK1   BANK2   BANK3   BANK4   BANK5   BANK6   BANK7
  7627 ;;      Params:        16       0       0       0       0       0       0       0       0
  7628 ;;      Locals:         2       0       0       0       0       0       0       0       0
  7629 ;;      Temps:          0       0       0       0       0       0       0       0       0
  7630 ;;      Totals:        18       0       0       0       0       0       0       0       0
  7631 ;;Total ram usage:       18 bytes
  7632 ;; Hardware stack levels used: 1
  7633 ;; This function calls:
  7634 ;;		Nothing
  7635 ;; This function is called by:
  7636 ;;		_dtoa
  7637 ;; This function uses a non-reentrant model
  7638 ;;
  7639                           
  7640                           	psect	text46
  7641  002840                     __ptext46:
  7642                           	callstack 0
  7643  002840                     ___aomod:
  7644                           	callstack 23
  7645  002840  0E00               	movlw	0
  7646  002842  6E12               	movwf	___aomod@sign^0,c
  7647  002844  BE08               	btfsc	(___aomod@dividend+7)^0,7,c
  7648  002846  EF29  F014         	goto	u3000
  7649  00284A  EF27  F014         	goto	u3001
  7650  00284E                     u3001:
  7651  00284E  EF3B  F014         	goto	l3538
  7652  002852                     u3000:
  7653  002852  1E08               	comf	(___aomod@dividend+7)^0,f,c
  7654  002854  1E07               	comf	(___aomod@dividend+6)^0,f,c
  7655  002856  1E06               	comf	(___aomod@dividend+5)^0,f,c
  7656  002858  1E05               	comf	(___aomod@dividend+4)^0,f,c
  7657  00285A  1E04               	comf	(___aomod@dividend+3)^0,f,c
  7658  00285C  1E03               	comf	(___aomod@dividend+2)^0,f,c
  7659  00285E  1E02               	comf	(___aomod@dividend+1)^0,f,c
  7660  002860  6C01               	negf	___aomod@dividend^0,c
  7661  002862  0E00               	movlw	0
  7662  002864  2202               	addwfc	(___aomod@dividend+1)^0,f,c
  7663  002866  2203               	addwfc	(___aomod@dividend+2)^0,f,c
  7664  002868  2204               	addwfc	(___aomod@dividend+3)^0,f,c
  7665  00286A  2205               	addwfc	(___aomod@dividend+4)^0,f,c
  7666  00286C  2206               	addwfc	(___aomod@dividend+5)^0,f,c
  7667  00286E  2207               	addwfc	(___aomod@dividend+6)^0,f,c
  7668  002870  2208               	addwfc	(___aomod@dividend+7)^0,f,c
  7669  002872  0E01               	movlw	1
  7670  002874  6E12               	movwf	___aomod@sign^0,c
  7671  002876                     l3538:
  7672  002876  BE10               	btfsc	(___aomod@divisor+7)^0,7,c
  7673  002878  EF42  F014         	goto	u3010
  7674  00287C  EF40  F014         	goto	u3011
  7675  002880                     u3011:
  7676  002880  EF52  F014         	goto	l3542
  7677  002884                     u3010:
  7678  002884  1E10               	comf	(___aomod@divisor+7)^0,f,c
  7679  002886  1E0F               	comf	(___aomod@divisor+6)^0,f,c
  7680  002888  1E0E               	comf	(___aomod@divisor+5)^0,f,c
  7681  00288A  1E0D               	comf	(___aomod@divisor+4)^0,f,c
  7682  00288C  1E0C               	comf	(___aomod@divisor+3)^0,f,c
  7683  00288E  1E0B               	comf	(___aomod@divisor+2)^0,f,c
  7684  002890  1E0A               	comf	(___aomod@divisor+1)^0,f,c
  7685  002892  6C09               	negf	___aomod@divisor^0,c
  7686  002894  0E00               	movlw	0
  7687  002896  220A               	addwfc	(___aomod@divisor+1)^0,f,c
  7688  002898  220B               	addwfc	(___aomod@divisor+2)^0,f,c
  7689  00289A  220C               	addwfc	(___aomod@divisor+3)^0,f,c
  7690  00289C  220D               	addwfc	(___aomod@divisor+4)^0,f,c
  7691  00289E  220E               	addwfc	(___aomod@divisor+5)^0,f,c
  7692  0028A0  220F               	addwfc	(___aomod@divisor+6)^0,f,c
  7693  0028A2  2210               	addwfc	(___aomod@divisor+7)^0,f,c
  7694  0028A4                     l3542:
  7695  0028A4  5009               	movf	___aomod@divisor^0,w,c
  7696  0028A6  100A               	iorwf	(___aomod@divisor+1)^0,w,c
  7697  0028A8  100B               	iorwf	(___aomod@divisor+2)^0,w,c
  7698  0028AA  100C               	iorwf	(___aomod@divisor+3)^0,w,c
  7699  0028AC  100D               	iorwf	(___aomod@divisor+4)^0,w,c
  7700  0028AE  100E               	iorwf	(___aomod@divisor+5)^0,w,c
  7701  0028B0  100F               	iorwf	(___aomod@divisor+6)^0,w,c
  7702  0028B2  1010               	iorwf	(___aomod@divisor+7)^0,w,c
  7703  0028B4  B4D8               	btfsc	status,2,c
  7704  0028B6  EF5F  F014         	goto	u3021
  7705  0028BA  EF61  F014         	goto	u3020
  7706  0028BE                     u3021:
  7707  0028BE  EFA9  F014         	goto	l3558
  7708  0028C2                     u3020:
  7709  0028C2  0E01               	movlw	1
  7710  0028C4  6E11               	movwf	___aomod@counter^0,c
  7711  0028C6  EF6F  F014         	goto	l3548
  7712  0028CA                     l3546:
  7713  0028CA  90D8               	bcf	status,0,c
  7714  0028CC  3609               	rlcf	___aomod@divisor^0,f,c
  7715  0028CE  360A               	rlcf	(___aomod@divisor+1)^0,f,c
  7716  0028D0  360B               	rlcf	(___aomod@divisor+2)^0,f,c
  7717  0028D2  360C               	rlcf	(___aomod@divisor+3)^0,f,c
  7718  0028D4  360D               	rlcf	(___aomod@divisor+4)^0,f,c
  7719  0028D6  360E               	rlcf	(___aomod@divisor+5)^0,f,c
  7720  0028D8  360F               	rlcf	(___aomod@divisor+6)^0,f,c
  7721  0028DA  3610               	rlcf	(___aomod@divisor+7)^0,f,c
  7722  0028DC  2A11               	incf	___aomod@counter^0,f,c
  7723  0028DE                     l3548:
  7724  0028DE  AE10               	btfss	(___aomod@divisor+7)^0,7,c
  7725  0028E0  EF74  F014         	goto	u3031
  7726  0028E4  EF76  F014         	goto	u3030
  7727  0028E8                     u3031:
  7728  0028E8  EF65  F014         	goto	l3546
  7729  0028EC                     u3030:
  7730  0028EC                     l3550:
  7731  0028EC  5009               	movf	___aomod@divisor^0,w,c
  7732  0028EE  5C01               	subwf	___aomod@dividend^0,w,c
  7733  0028F0  500A               	movf	(___aomod@divisor+1)^0,w,c
  7734  0028F2  5802               	subwfb	(___aomod@dividend+1)^0,w,c
  7735  0028F4  500B               	movf	(___aomod@divisor+2)^0,w,c
  7736  0028F6  5803               	subwfb	(___aomod@dividend+2)^0,w,c
  7737  0028F8  500C               	movf	(___aomod@divisor+3)^0,w,c
  7738  0028FA  5804               	subwfb	(___aomod@dividend+3)^0,w,c
  7739  0028FC  500D               	movf	(___aomod@divisor+4)^0,w,c
  7740  0028FE  5805               	subwfb	(___aomod@dividend+4)^0,w,c
  7741  002900  500E               	movf	(___aomod@divisor+5)^0,w,c
  7742  002902  5806               	subwfb	(___aomod@dividend+5)^0,w,c
  7743  002904  500F               	movf	(___aomod@divisor+6)^0,w,c
  7744  002906  5807               	subwfb	(___aomod@dividend+6)^0,w,c
  7745  002908  5010               	movf	(___aomod@divisor+7)^0,w,c
  7746  00290A  5808               	subwfb	(___aomod@dividend+7)^0,w,c
  7747  00290C  A0D8               	btfss	status,0,c
  7748  00290E  EF8B  F014         	goto	u3041
  7749  002912  EF8D  F014         	goto	u3040
  7750  002916                     u3041:
  7751  002916  EF9D  F014         	goto	l3554
  7752  00291A                     u3040:
  7753  00291A  5009               	movf	___aomod@divisor^0,w,c
  7754  00291C  5E01               	subwf	___aomod@dividend^0,f,c
  7755  00291E  500A               	movf	(___aomod@divisor+1)^0,w,c
  7756  002920  5A02               	subwfb	(___aomod@dividend+1)^0,f,c
  7757  002922  500B               	movf	(___aomod@divisor+2)^0,w,c
  7758  002924  5A03               	subwfb	(___aomod@dividend+2)^0,f,c
  7759  002926  500C               	movf	(___aomod@divisor+3)^0,w,c
  7760  002928  5A04               	subwfb	(___aomod@dividend+3)^0,f,c
  7761  00292A  500D               	movf	(___aomod@divisor+4)^0,w,c
  7762  00292C  5A05               	subwfb	(___aomod@dividend+4)^0,f,c
  7763  00292E  500E               	movf	(___aomod@divisor+5)^0,w,c
  7764  002930  5A06               	subwfb	(___aomod@dividend+5)^0,f,c
  7765  002932  500F               	movf	(___aomod@divisor+6)^0,w,c
  7766  002934  5A07               	subwfb	(___aomod@dividend+6)^0,f,c
  7767  002936  5010               	movf	(___aomod@divisor+7)^0,w,c
  7768  002938  5A08               	subwfb	(___aomod@dividend+7)^0,f,c
  7769  00293A                     l3554:
  7770  00293A  90D8               	bcf	status,0,c
  7771  00293C  3210               	rrcf	(___aomod@divisor+7)^0,f,c
  7772  00293E  320F               	rrcf	(___aomod@divisor+6)^0,f,c
  7773  002940  320E               	rrcf	(___aomod@divisor+5)^0,f,c
  7774  002942  320D               	rrcf	(___aomod@divisor+4)^0,f,c
  7775  002944  320C               	rrcf	(___aomod@divisor+3)^0,f,c
  7776  002946  320B               	rrcf	(___aomod@divisor+2)^0,f,c
  7777  002948  320A               	rrcf	(___aomod@divisor+1)^0,f,c
  7778  00294A  3209               	rrcf	___aomod@divisor^0,f,c
  7779  00294C  2E11               	decfsz	___aomod@counter^0,f,c
  7780  00294E  EF76  F014         	goto	l3550
  7781  002952                     l3558:
  7782  002952  5012               	movf	___aomod@sign^0,w,c
  7783  002954  B4D8               	btfsc	status,2,c
  7784  002956  EFAF  F014         	goto	u3051
  7785  00295A  EFB1  F014         	goto	u3050
  7786  00295E                     u3051:
  7787  00295E  EFC1  F014         	goto	l3562
  7788  002962                     u3050:
  7789  002962  1E08               	comf	(___aomod@dividend+7)^0,f,c
  7790  002964  1E07               	comf	(___aomod@dividend+6)^0,f,c
  7791  002966  1E06               	comf	(___aomod@dividend+5)^0,f,c
  7792  002968  1E05               	comf	(___aomod@dividend+4)^0,f,c
  7793  00296A  1E04               	comf	(___aomod@dividend+3)^0,f,c
  7794  00296C  1E03               	comf	(___aomod@dividend+2)^0,f,c
  7795  00296E  1E02               	comf	(___aomod@dividend+1)^0,f,c
  7796  002970  6C01               	negf	___aomod@dividend^0,c
  7797  002972  0E00               	movlw	0
  7798  002974  2202               	addwfc	(___aomod@dividend+1)^0,f,c
  7799  002976  2203               	addwfc	(___aomod@dividend+2)^0,f,c
  7800  002978  2204               	addwfc	(___aomod@dividend+3)^0,f,c
  7801  00297A  2205               	addwfc	(___aomod@dividend+4)^0,f,c
  7802  00297C  2206               	addwfc	(___aomod@dividend+5)^0,f,c
  7803  00297E  2207               	addwfc	(___aomod@dividend+6)^0,f,c
  7804  002980  2208               	addwfc	(___aomod@dividend+7)^0,f,c
  7805  002982                     l3562:
  7806  002982  C001  F001         	movff	___aomod@dividend,?___aomod
  7807  002986  C002  F002         	movff	___aomod@dividend+1,?___aomod+1
  7808  00298A  C003  F003         	movff	___aomod@dividend+2,?___aomod+2
  7809  00298E  C004  F004         	movff	___aomod@dividend+3,?___aomod+3
  7810  002992  C005  F005         	movff	___aomod@dividend+4,?___aomod+4
  7811  002996  C006  F006         	movff	___aomod@dividend+5,?___aomod+5
  7812  00299A  C007  F007         	movff	___aomod@dividend+6,?___aomod+6
  7813  00299E  C008  F008         	movff	___aomod@dividend+7,?___aomod+7
  7814  0029A2  0012               	return		;funcret
  7815  0029A4                     __end_of___aomod:
  7816                           	callstack 0
  7817                           
  7818 ;; *************** function ___aodiv *****************
  7819 ;; Defined at:
  7820 ;;		line 9 in file "D:\mplab\pic\sources\c99\common\aodiv.c"
  7821 ;; Parameters:    Size  Location     Type
  7822 ;;  dividend        8    0[COMRAM] long long 
  7823 ;;  divisor         8    8[COMRAM] long long 
  7824 ;; Auto vars:     Size  Location     Type
  7825 ;;  quotient        8   18[COMRAM] long long 
  7826 ;;  sign            1   17[COMRAM] unsigned char 
  7827 ;;  counter         1   16[COMRAM] unsigned char 
  7828 ;; Return value:  Size  Location     Type
  7829 ;;                  8    0[COMRAM] long long 
  7830 ;; Registers used:
  7831 ;;		wreg, fsr2l, fsr2h, status,2, status,0
  7832 ;; Tracked objects:
  7833 ;;		On entry : 0/0
  7834 ;;		On exit  : 0/0
  7835 ;;		Unchanged: 0/0
  7836 ;; Data sizes:     COMRAM   BANK0   BANK1   BANK2   BANK3   BANK4   BANK5   BANK6   BANK7
  7837 ;;      Params:        16       0       0       0       0       0       0       0       0
  7838 ;;      Locals:        10       0       0       0       0       0       0       0       0
  7839 ;;      Temps:          0       0       0       0       0       0       0       0       0
  7840 ;;      Totals:        26       0       0       0       0       0       0       0       0
  7841 ;;Total ram usage:       26 bytes
  7842 ;; Hardware stack levels used: 1
  7843 ;; This function calls:
  7844 ;;		Nothing
  7845 ;; This function is called by:
  7846 ;;		_dtoa
  7847 ;; This function uses a non-reentrant model
  7848 ;;
  7849                           
  7850                           	psect	text47
  7851  002532                     __ptext47:
  7852                           	callstack 0
  7853  002532                     ___aodiv:
  7854                           	callstack 23
  7855  002532  0E00               	movlw	0
  7856  002534  6E12               	movwf	___aodiv@sign^0,c
  7857  002536  BE10               	btfsc	(___aodiv@divisor+7)^0,7,c
  7858  002538  EFA2  F012         	goto	u2930
  7859  00253C  EFA0  F012         	goto	u2931
  7860  002540                     u2931:
  7861  002540  EFB4  F012         	goto	l3494
  7862  002544                     u2930:
  7863  002544  1E10               	comf	(___aodiv@divisor+7)^0,f,c
  7864  002546  1E0F               	comf	(___aodiv@divisor+6)^0,f,c
  7865  002548  1E0E               	comf	(___aodiv@divisor+5)^0,f,c
  7866  00254A  1E0D               	comf	(___aodiv@divisor+4)^0,f,c
  7867  00254C  1E0C               	comf	(___aodiv@divisor+3)^0,f,c
  7868  00254E  1E0B               	comf	(___aodiv@divisor+2)^0,f,c
  7869  002550  1E0A               	comf	(___aodiv@divisor+1)^0,f,c
  7870  002552  6C09               	negf	___aodiv@divisor^0,c
  7871  002554  0E00               	movlw	0
  7872  002556  220A               	addwfc	(___aodiv@divisor+1)^0,f,c
  7873  002558  220B               	addwfc	(___aodiv@divisor+2)^0,f,c
  7874  00255A  220C               	addwfc	(___aodiv@divisor+3)^0,f,c
  7875  00255C  220D               	addwfc	(___aodiv@divisor+4)^0,f,c
  7876  00255E  220E               	addwfc	(___aodiv@divisor+5)^0,f,c
  7877  002560  220F               	addwfc	(___aodiv@divisor+6)^0,f,c
  7878  002562  2210               	addwfc	(___aodiv@divisor+7)^0,f,c
  7879  002564  0E01               	movlw	1
  7880  002566  6E12               	movwf	___aodiv@sign^0,c
  7881  002568                     l3494:
  7882  002568  BE08               	btfsc	(___aodiv@dividend+7)^0,7,c
  7883  00256A  EFBB  F012         	goto	u2940
  7884  00256E  EFB9  F012         	goto	u2941
  7885  002572                     u2941:
  7886  002572  EFCD  F012         	goto	l3500
  7887  002576                     u2940:
  7888  002576  1E08               	comf	(___aodiv@dividend+7)^0,f,c
  7889  002578  1E07               	comf	(___aodiv@dividend+6)^0,f,c
  7890  00257A  1E06               	comf	(___aodiv@dividend+5)^0,f,c
  7891  00257C  1E05               	comf	(___aodiv@dividend+4)^0,f,c
  7892  00257E  1E04               	comf	(___aodiv@dividend+3)^0,f,c
  7893  002580  1E03               	comf	(___aodiv@dividend+2)^0,f,c
  7894  002582  1E02               	comf	(___aodiv@dividend+1)^0,f,c
  7895  002584  6C01               	negf	___aodiv@dividend^0,c
  7896  002586  0E00               	movlw	0
  7897  002588  2202               	addwfc	(___aodiv@dividend+1)^0,f,c
  7898  00258A  2203               	addwfc	(___aodiv@dividend+2)^0,f,c
  7899  00258C  2204               	addwfc	(___aodiv@dividend+3)^0,f,c
  7900  00258E  2205               	addwfc	(___aodiv@dividend+4)^0,f,c
  7901  002590  2206               	addwfc	(___aodiv@dividend+5)^0,f,c
  7902  002592  2207               	addwfc	(___aodiv@dividend+6)^0,f,c
  7903  002594  2208               	addwfc	(___aodiv@dividend+7)^0,f,c
  7904  002596  0E01               	movlw	1
  7905  002598  1A12               	xorwf	___aodiv@sign^0,f,c
  7906  00259A                     l3500:
  7907  00259A  EE20  F013         	lfsr	2,___aodiv@quotient
  7908  00259E  0E07               	movlw	7
  7909  0025A0                     u2951:
  7910  0025A0  6ADE               	clrf	postinc2,c
  7911  0025A2  06E8               	decf	wreg,f,c
  7912  0025A4  E2FD               	bc	u2951
  7913  0025A6  5009               	movf	___aodiv@divisor^0,w,c
  7914  0025A8  100A               	iorwf	(___aodiv@divisor+1)^0,w,c
  7915  0025AA  100B               	iorwf	(___aodiv@divisor+2)^0,w,c
  7916  0025AC  100C               	iorwf	(___aodiv@divisor+3)^0,w,c
  7917  0025AE  100D               	iorwf	(___aodiv@divisor+4)^0,w,c
  7918  0025B0  100E               	iorwf	(___aodiv@divisor+5)^0,w,c
  7919  0025B2  100F               	iorwf	(___aodiv@divisor+6)^0,w,c
  7920  0025B4  1010               	iorwf	(___aodiv@divisor+7)^0,w,c
  7921  0025B6  B4D8               	btfsc	status,2,c
  7922  0025B8  EFE0  F012         	goto	u2961
  7923  0025BC  EFE2  F012         	goto	u2960
  7924  0025C0                     u2961:
  7925  0025C0  EF34  F013         	goto	l3522
  7926  0025C4                     u2960:
  7927  0025C4  0E01               	movlw	1
  7928  0025C6  6E11               	movwf	___aodiv@counter^0,c
  7929  0025C8  EFF0  F012         	goto	l3508
  7930  0025CC                     l3506:
  7931  0025CC  90D8               	bcf	status,0,c
  7932  0025CE  3609               	rlcf	___aodiv@divisor^0,f,c
  7933  0025D0  360A               	rlcf	(___aodiv@divisor+1)^0,f,c
  7934  0025D2  360B               	rlcf	(___aodiv@divisor+2)^0,f,c
  7935  0025D4  360C               	rlcf	(___aodiv@divisor+3)^0,f,c
  7936  0025D6  360D               	rlcf	(___aodiv@divisor+4)^0,f,c
  7937  0025D8  360E               	rlcf	(___aodiv@divisor+5)^0,f,c
  7938  0025DA  360F               	rlcf	(___aodiv@divisor+6)^0,f,c
  7939  0025DC  3610               	rlcf	(___aodiv@divisor+7)^0,f,c
  7940  0025DE  2A11               	incf	___aodiv@counter^0,f,c
  7941  0025E0                     l3508:
  7942  0025E0  AE10               	btfss	(___aodiv@divisor+7)^0,7,c
  7943  0025E2  EFF5  F012         	goto	u2971
  7944  0025E6  EFF7  F012         	goto	u2970
  7945  0025EA                     u2971:
  7946  0025EA  EFE6  F012         	goto	l3506
  7947  0025EE                     u2970:
  7948  0025EE                     l3510:
  7949  0025EE  90D8               	bcf	status,0,c
  7950  0025F0  3613               	rlcf	___aodiv@quotient^0,f,c
  7951  0025F2  3614               	rlcf	(___aodiv@quotient+1)^0,f,c
  7952  0025F4  3615               	rlcf	(___aodiv@quotient+2)^0,f,c
  7953  0025F6  3616               	rlcf	(___aodiv@quotient+3)^0,f,c
  7954  0025F8  3617               	rlcf	(___aodiv@quotient+4)^0,f,c
  7955  0025FA  3618               	rlcf	(___aodiv@quotient+5)^0,f,c
  7956  0025FC  3619               	rlcf	(___aodiv@quotient+6)^0,f,c
  7957  0025FE  361A               	rlcf	(___aodiv@quotient+7)^0,f,c
  7958  002600  5009               	movf	___aodiv@divisor^0,w,c
  7959  002602  5C01               	subwf	___aodiv@dividend^0,w,c
  7960  002604  500A               	movf	(___aodiv@divisor+1)^0,w,c
  7961  002606  5802               	subwfb	(___aodiv@dividend+1)^0,w,c
  7962  002608  500B               	movf	(___aodiv@divisor+2)^0,w,c
  7963  00260A  5803               	subwfb	(___aodiv@dividend+2)^0,w,c
  7964  00260C  500C               	movf	(___aodiv@divisor+3)^0,w,c
  7965  00260E  5804               	subwfb	(___aodiv@dividend+3)^0,w,c
  7966  002610  500D               	movf	(___aodiv@divisor+4)^0,w,c
  7967  002612  5805               	subwfb	(___aodiv@dividend+4)^0,w,c
  7968  002614  500E               	movf	(___aodiv@divisor+5)^0,w,c
  7969  002616  5806               	subwfb	(___aodiv@dividend+5)^0,w,c
  7970  002618  500F               	movf	(___aodiv@divisor+6)^0,w,c
  7971  00261A  5807               	subwfb	(___aodiv@dividend+6)^0,w,c
  7972  00261C  5010               	movf	(___aodiv@divisor+7)^0,w,c
  7973  00261E  5808               	subwfb	(___aodiv@dividend+7)^0,w,c
  7974  002620  A0D8               	btfss	status,0,c
  7975  002622  EF15  F013         	goto	u2981
  7976  002626  EF17  F013         	goto	u2980
  7977  00262A                     u2981:
  7978  00262A  EF28  F013         	goto	l3518
  7979  00262E                     u2980:
  7980  00262E  5009               	movf	___aodiv@divisor^0,w,c
  7981  002630  5E01               	subwf	___aodiv@dividend^0,f,c
  7982  002632  500A               	movf	(___aodiv@divisor+1)^0,w,c
  7983  002634  5A02               	subwfb	(___aodiv@dividend+1)^0,f,c
  7984  002636  500B               	movf	(___aodiv@divisor+2)^0,w,c
  7985  002638  5A03               	subwfb	(___aodiv@dividend+2)^0,f,c
  7986  00263A  500C               	movf	(___aodiv@divisor+3)^0,w,c
  7987  00263C  5A04               	subwfb	(___aodiv@dividend+3)^0,f,c
  7988  00263E  500D               	movf	(___aodiv@divisor+4)^0,w,c
  7989  002640  5A05               	subwfb	(___aodiv@dividend+4)^0,f,c
  7990  002642  500E               	movf	(___aodiv@divisor+5)^0,w,c
  7991  002644  5A06               	subwfb	(___aodiv@dividend+5)^0,f,c
  7992  002646  500F               	movf	(___aodiv@divisor+6)^0,w,c
  7993  002648  5A07               	subwfb	(___aodiv@dividend+6)^0,f,c
  7994  00264A  5010               	movf	(___aodiv@divisor+7)^0,w,c
  7995  00264C  5A08               	subwfb	(___aodiv@dividend+7)^0,f,c
  7996  00264E  8013               	bsf	___aodiv@quotient^0,0,c
  7997  002650                     l3518:
  7998  002650  90D8               	bcf	status,0,c
  7999  002652  3210               	rrcf	(___aodiv@divisor+7)^0,f,c
  8000  002654  320F               	rrcf	(___aodiv@divisor+6)^0,f,c
  8001  002656  320E               	rrcf	(___aodiv@divisor+5)^0,f,c
  8002  002658  320D               	rrcf	(___aodiv@divisor+4)^0,f,c
  8003  00265A  320C               	rrcf	(___aodiv@divisor+3)^0,f,c
  8004  00265C  320B               	rrcf	(___aodiv@divisor+2)^0,f,c
  8005  00265E  320A               	rrcf	(___aodiv@divisor+1)^0,f,c
  8006  002660  3209               	rrcf	___aodiv@divisor^0,f,c
  8007  002662  2E11               	decfsz	___aodiv@counter^0,f,c
  8008  002664  EFF7  F012         	goto	l3510
  8009  002668                     l3522:
  8010  002668  5012               	movf	___aodiv@sign^0,w,c
  8011  00266A  B4D8               	btfsc	status,2,c
  8012  00266C  EF3A  F013         	goto	u2991
  8013  002670  EF3C  F013         	goto	u2990
  8014  002674                     u2991:
  8015  002674  EF4C  F013         	goto	l3526
  8016  002678                     u2990:
  8017  002678  1E1A               	comf	(___aodiv@quotient+7)^0,f,c
  8018  00267A  1E19               	comf	(___aodiv@quotient+6)^0,f,c
  8019  00267C  1E18               	comf	(___aodiv@quotient+5)^0,f,c
  8020  00267E  1E17               	comf	(___aodiv@quotient+4)^0,f,c
  8021  002680  1E16               	comf	(___aodiv@quotient+3)^0,f,c
  8022  002682  1E15               	comf	(___aodiv@quotient+2)^0,f,c
  8023  002684  1E14               	comf	(___aodiv@quotient+1)^0,f,c
  8024  002686  6C13               	negf	___aodiv@quotient^0,c
  8025  002688  0E00               	movlw	0
  8026  00268A  2214               	addwfc	(___aodiv@quotient+1)^0,f,c
  8027  00268C  2215               	addwfc	(___aodiv@quotient+2)^0,f,c
  8028  00268E  2216               	addwfc	(___aodiv@quotient+3)^0,f,c
  8029  002690  2217               	addwfc	(___aodiv@quotient+4)^0,f,c
  8030  002692  2218               	addwfc	(___aodiv@quotient+5)^0,f,c
  8031  002694  2219               	addwfc	(___aodiv@quotient+6)^0,f,c
  8032  002696  221A               	addwfc	(___aodiv@quotient+7)^0,f,c
  8033  002698                     l3526:
  8034  002698  C013  F001         	movff	___aodiv@quotient,?___aodiv
  8035  00269C  C014  F002         	movff	___aodiv@quotient+1,?___aodiv+1
  8036  0026A0  C015  F003         	movff	___aodiv@quotient+2,?___aodiv+2
  8037  0026A4  C016  F004         	movff	___aodiv@quotient+3,?___aodiv+3
  8038  0026A8  C017  F005         	movff	___aodiv@quotient+4,?___aodiv+4
  8039  0026AC  C018  F006         	movff	___aodiv@quotient+5,?___aodiv+5
  8040  0026B0  C019  F007         	movff	___aodiv@quotient+6,?___aodiv+6
  8041  0026B4  C01A  F008         	movff	___aodiv@quotient+7,?___aodiv+7
  8042  0026B8  0012               	return		;funcret
  8043  0026BA                     __end_of___aodiv:
  8044                           	callstack 0
  8045                           
  8046 ;; *************** function _RTC_Read_Calendar *****************
  8047 ;; Defined at:
  8048 ;;		line 40 in file "RTC.c"
  8049 ;; Parameters:    Size  Location     Type
  8050 ;;  read_calenda    1    wreg     unsigned char 
  8051 ;; Auto vars:     Size  Location     Type
  8052 ;;  read_calenda    1    3[COMRAM] unsigned char 
  8053 ;; Return value:  Size  Location     Type
  8054 ;;                  1    wreg      void 
  8055 ;; Registers used:
  8056 ;;		wreg, status,2, status,0, cstack
  8057 ;; Tracked objects:
  8058 ;;		On entry : 0/0
  8059 ;;		On exit  : 0/0
  8060 ;;		Unchanged: 0/0
  8061 ;; Data sizes:     COMRAM   BANK0   BANK1   BANK2   BANK3   BANK4   BANK5   BANK6   BANK7
  8062 ;;      Params:         0       0       0       0       0       0       0       0       0
  8063 ;;      Locals:         1       0       0       0       0       0       0       0       0
  8064 ;;      Temps:          1       0       0       0       0       0       0       0       0
  8065 ;;      Totals:         2       0       0       0       0       0       0       0       0
  8066 ;;Total ram usage:        2 bytes
  8067 ;; Hardware stack levels used: 1
  8068 ;; Hardware stack levels required when called: 3
  8069 ;; This function calls:
  8070 ;;		_I2C_Read
  8071 ;;		_I2C_Repeated_Start
  8072 ;;		_I2C_Start
  8073 ;;		_I2C_Stop
  8074 ;;		_I2C_Write
  8075 ;; This function is called by:
  8076 ;;		_RTC_obtener_fecha
  8077 ;;		_configurarHora
  8078 ;; This function uses a non-reentrant model
  8079 ;;
  8080                           
  8081                           	psect	text48
  8082  00379E                     __ptext48:
  8083                           	callstack 0
  8084  00379E                     _RTC_Read_Calendar:
  8085                           	callstack 21
  8086                           
  8087                           ;incstack = 0
  8088                           ;RTC_Read_Calendar@read_calendar_address stored from wreg
  8089  00379E  6E04               	movwf	RTC_Read_Calendar@read_calendar_address^0,c
  8090  0037A0                     
  8091                           ;RTC.c: 41:     I2C_Start(0xD0);
  8092  0037A0  0ED0               	movlw	208
  8093  0037A2  EC49  F01F         	call	_I2C_Start
  8094                           
  8095                           ;RTC.c: 42:     I2C_Write(read_calendar_address);
  8096  0037A6  5004               	movf	RTC_Read_Calendar@read_calendar_address^0,w,c
  8097  0037A8  ECF6  F01F         	call	_I2C_Write
  8098                           
  8099                           ;RTC.c: 43:     I2C_Repeated_Start(0xD1);
  8100  0037AC  0ED1               	movlw	209
  8101  0037AE  EC60  F01F         	call	_I2C_Repeated_Start
  8102  0037B2                     
  8103                           ;RTC.c: 44:     Day = I2C_Read(0);
  8104  0037B2  0E00               	movlw	0
  8105  0037B4  EC3F  F01E         	call	_I2C_Read
  8106  0037B8  6E03               	movwf	??_RTC_Read_Calendar^0,c
  8107  0037BA  5003               	movf	??_RTC_Read_Calendar^0,w,c
  8108  0037BC  0101               	movlb	1	; () banked
  8109  0037BE  6FF0               	movwf	_Day& (0+255),b
  8110  0037C0  6BF1               	clrf	(_Day+1)& (0+255),b
  8111  0037C2                     
  8112                           ; BSR set to: 1
  8113                           ;RTC.c: 45:     Date = I2C_Read(0);
  8114  0037C2  0E00               	movlw	0
  8115  0037C4  EC3F  F01E         	call	_I2C_Read
  8116  0037C8  6E03               	movwf	??_RTC_Read_Calendar^0,c
  8117  0037CA  5003               	movf	??_RTC_Read_Calendar^0,w,c
  8118  0037CC  0101               	movlb	1	; () banked
  8119  0037CE  6FEE               	movwf	_Date& (0+255),b
  8120  0037D0  6BEF               	clrf	(_Date+1)& (0+255),b
  8121  0037D2                     
  8122                           ; BSR set to: 1
  8123                           ;RTC.c: 46:     Month = I2C_Read(0);
  8124  0037D2  0E00               	movlw	0
  8125  0037D4  EC3F  F01E         	call	_I2C_Read
  8126  0037D8  6E03               	movwf	??_RTC_Read_Calendar^0,c
  8127  0037DA  5003               	movf	??_RTC_Read_Calendar^0,w,c
  8128  0037DC  0101               	movlb	1	; () banked
  8129  0037DE  6FEC               	movwf	_Month& (0+255),b
  8130  0037E0  6BED               	clrf	(_Month+1)& (0+255),b
  8131  0037E2                     
  8132                           ; BSR set to: 1
  8133                           ;RTC.c: 47:     Year = I2C_Read(1);
  8134  0037E2  0E01               	movlw	1
  8135  0037E4  EC3F  F01E         	call	_I2C_Read
  8136  0037E8  6E03               	movwf	??_RTC_Read_Calendar^0,c
  8137  0037EA  5003               	movf	??_RTC_Read_Calendar^0,w,c
  8138  0037EC  0101               	movlb	1	; () banked
  8139  0037EE  6FEA               	movwf	_Year& (0+255),b
  8140  0037F0  6BEB               	clrf	(_Year+1)& (0+255),b
  8141  0037F2                     
  8142                           ; BSR set to: 1
  8143                           ;RTC.c: 48:     I2C_Stop();
  8144  0037F2  EC53  F020         	call	_I2C_Stop	;wreg free
  8145  0037F6  0012               	return		;funcret
  8146  0037F8                     __end_of_RTC_Read_Calendar:
  8147                           	callstack 0
  8148                           
  8149 ;; *************** function _I2C_Stop *****************
  8150 ;; Defined at:
  8151 ;;		line 84 in file "I2C_Source_File.c"
  8152 ;; Parameters:    Size  Location     Type
  8153 ;;		None
  8154 ;; Auto vars:     Size  Location     Type
  8155 ;;		None
  8156 ;; Return value:  Size  Location     Type
  8157 ;;                  1    wreg      unsigned char 
  8158 ;; Registers used:
  8159 ;;		wreg
  8160 ;; Tracked objects:
  8161 ;;		On entry : 0/0
  8162 ;;		On exit  : 0/0
  8163 ;;		Unchanged: 0/0
  8164 ;; Data sizes:     COMRAM   BANK0   BANK1   BANK2   BANK3   BANK4   BANK5   BANK6   BANK7
  8165 ;;      Params:         0       0       0       0       0       0       0       0       0
  8166 ;;      Locals:         0       0       0       0       0       0       0       0       0
  8167 ;;      Temps:          0       0       0       0       0       0       0       0       0
  8168 ;;      Totals:         0       0       0       0       0       0       0       0       0
  8169 ;;Total ram usage:        0 bytes
  8170 ;; Hardware stack levels used: 1
  8171 ;; This function calls:
  8172 ;;		Nothing
  8173 ;; This function is called by:
  8174 ;;		_RTC_Clock_Write
  8175 ;;		_RTC_Calendar_Write
  8176 ;;		_RTC_Read_Clock
  8177 ;;		_RTC_Read_Calendar
  8178 ;;		_RTC_obtener_hora
  8179 ;;		_I2C_Start_Wait
  8180 ;; This function uses a non-reentrant model
  8181 ;;
  8182                           
  8183                           	psect	text49
  8184  0040A6                     __ptext49:
  8185                           	callstack 0
  8186  0040A6                     _I2C_Stop:
  8187                           	callstack 23
  8188  0040A6                     
  8189                           ;I2C_Source_File.c: 85:     PEN = 1;
  8190  0040A6  84C5               	bsf	4037,2,c	;volatile
  8191  0040A8                     l528:
  8192                           
  8193                           ;I2C_Source_File.c: 86:     while (PEN) {
  8194  0040A8  B4C5               	btfsc	4037,2,c	;volatile
  8195  0040AA  EF59  F020         	goto	u3721
  8196  0040AE  EF5B  F020         	goto	u3720
  8197  0040B2                     u3721:
  8198  0040B2  EF54  F020         	goto	l528
  8199  0040B6                     u3720:
  8200  0040B6                     
  8201                           ;I2C_Source_File.c: 88:     if (!SSPSTATbits.P) {
  8202  0040B6  50C7               	movf	199,w,c	;volatile
  8203  0040B8  0012               	return		;funcret
  8204  0040BA                     __end_of_I2C_Stop:
  8205                           	callstack 0
  8206                           
  8207 ;; *************** function _I2C_Start *****************
  8208 ;; Defined at:
  8209 ;;		line 61 in file "I2C_Source_File.c"
  8210 ;; Parameters:    Size  Location     Type
  8211 ;;  slave_write_    1    wreg     unsigned char 
  8212 ;; Auto vars:     Size  Location     Type
  8213 ;;  slave_write_    1    1[COMRAM] unsigned char 
  8214 ;; Return value:  Size  Location     Type
  8215 ;;                  1    wreg      unsigned char 
  8216 ;; Registers used:
  8217 ;;		wreg, status,2, cstack
  8218 ;; Tracked objects:
  8219 ;;		On entry : 0/0
  8220 ;;		On exit  : 0/0
  8221 ;;		Unchanged: 0/0
  8222 ;; Data sizes:     COMRAM   BANK0   BANK1   BANK2   BANK3   BANK4   BANK5   BANK6   BANK7
  8223 ;;      Params:         0       0       0       0       0       0       0       0       0
  8224 ;;      Locals:         1       0       0       0       0       0       0       0       0
  8225 ;;      Temps:          0       0       0       0       0       0       0       0       0
  8226 ;;      Totals:         1       0       0       0       0       0       0       0       0
  8227 ;;Total ram usage:        1 bytes
  8228 ;; Hardware stack levels used: 1
  8229 ;; Hardware stack levels required when called: 2
  8230 ;; This function calls:
  8231 ;;		_I2C_Write
  8232 ;; This function is called by:
  8233 ;;		_RTC_Clock_Write
  8234 ;;		_RTC_Calendar_Write
  8235 ;;		_RTC_Read_Clock
  8236 ;;		_RTC_Read_Calendar
  8237 ;; This function uses a non-reentrant model
  8238 ;;
  8239                           
  8240                           	psect	text50
  8241  003E92                     __ptext50:
  8242                           	callstack 0
  8243  003E92                     _I2C_Start:
  8244                           	callstack 21
  8245                           
  8246                           ;incstack = 0
  8247                           ;I2C_Start@slave_write_address stored from wreg
  8248  003E92  6E02               	movwf	I2C_Start@slave_write_address^0,c
  8249  003E94                     
  8250                           ;I2C_Source_File.c: 62:     SSPCON2bits.SEN = 1;
  8251  003E94  80C5               	bsf	197,0,c	;volatile
  8252  003E96                     l512:
  8253  003E96  B0C5               	btfsc	197,0,c	;volatile
  8254  003E98  EF50  F01F         	goto	u3731
  8255  003E9C  EF52  F01F         	goto	u3730
  8256  003EA0                     u3731:
  8257  003EA0  EF4B  F01F         	goto	l512
  8258  003EA4                     u3730:
  8259  003EA4                     
  8260                           ;I2C_Source_File.c: 64:     SSPIF = 0;
  8261  003EA4  969E               	bcf	3998,3,c	;volatile
  8262                           
  8263                           ;I2C_Source_File.c: 65:     if (!SSPSTATbits.S)
  8264  003EA6  B6C7               	btfsc	199,3,c	;volatile
  8265  003EA8  EF58  F01F         	goto	u3741
  8266  003EAC  EF5A  F01F         	goto	u3740
  8267  003EB0                     u3741:
  8268  003EB0  EF5C  F01F         	goto	l3884
  8269  003EB4                     u3740:
  8270  003EB4  EF5F  F01F         	goto	l516
  8271  003EB8                     l3884:
  8272                           
  8273                           ;I2C_Source_File.c: 67:     return (I2C_Write(slave_write_address));;	Return value of _I
      +                          2C_Start is never used
  8274  003EB8  5002               	movf	I2C_Start@slave_write_address^0,w,c
  8275  003EBA  ECF6  F01F         	call	_I2C_Write
  8276  003EBE                     l516:
  8277  003EBE  0012               	return		;funcret
  8278  003EC0                     __end_of_I2C_Start:
  8279                           	callstack 0
  8280                           
  8281 ;; *************** function _I2C_Repeated_Start *****************
  8282 ;; Defined at:
  8283 ;;		line 71 in file "I2C_Source_File.c"
  8284 ;; Parameters:    Size  Location     Type
  8285 ;;  slave_read_a    1    wreg     unsigned char 
  8286 ;; Auto vars:     Size  Location     Type
  8287 ;;  slave_read_a    1    1[COMRAM] unsigned char 
  8288 ;; Return value:  Size  Location     Type
  8289 ;;                  1    wreg      unsigned char 
  8290 ;; Registers used:
  8291 ;;		wreg, status,2, cstack
  8292 ;; Tracked objects:
  8293 ;;		On entry : 0/0
  8294 ;;		On exit  : 0/0
  8295 ;;		Unchanged: 0/0
  8296 ;; Data sizes:     COMRAM   BANK0   BANK1   BANK2   BANK3   BANK4   BANK5   BANK6   BANK7
  8297 ;;      Params:         0       0       0       0       0       0       0       0       0
  8298 ;;      Locals:         1       0       0       0       0       0       0       0       0
  8299 ;;      Temps:          0       0       0       0       0       0       0       0       0
  8300 ;;      Totals:         1       0       0       0       0       0       0       0       0
  8301 ;;Total ram usage:        1 bytes
  8302 ;; Hardware stack levels used: 1
  8303 ;; Hardware stack levels required when called: 2
  8304 ;; This function calls:
  8305 ;;		_I2C_Write
  8306 ;; This function is called by:
  8307 ;;		_RTC_Read_Clock
  8308 ;;		_RTC_Read_Calendar
  8309 ;; This function uses a non-reentrant model
  8310 ;;
  8311                           
  8312                           	psect	text51
  8313  003EC0                     __ptext51:
  8314                           	callstack 0
  8315  003EC0                     _I2C_Repeated_Start:
  8316                           	callstack 21
  8317                           
  8318                           ;incstack = 0
  8319                           ;I2C_Repeated_Start@slave_read_address stored from wreg
  8320  003EC0  6E02               	movwf	I2C_Repeated_Start@slave_read_address^0,c
  8321  003EC2                     
  8322                           ;I2C_Source_File.c: 72:     RSEN = 1;
  8323  003EC2  82C5               	bsf	4037,1,c	;volatile
  8324  003EC4                     l519:
  8325  003EC4  B2C5               	btfsc	4037,1,c	;volatile
  8326  003EC6  EF67  F01F         	goto	u3751
  8327  003ECA  EF69  F01F         	goto	u3750
  8328  003ECE                     u3751:
  8329  003ECE  EF62  F01F         	goto	l519
  8330  003ED2                     u3750:
  8331  003ED2                     
  8332                           ;I2C_Source_File.c: 74:     SSPIF = 0;
  8333  003ED2  969E               	bcf	3998,3,c	;volatile
  8334                           
  8335                           ;I2C_Source_File.c: 75:     if (!SSPSTATbits.S)
  8336  003ED4  B6C7               	btfsc	199,3,c	;volatile
  8337  003ED6  EF6F  F01F         	goto	u3761
  8338  003EDA  EF71  F01F         	goto	u3760
  8339  003EDE                     u3761:
  8340  003EDE  EF73  F01F         	goto	l3892
  8341  003EE2                     u3760:
  8342  003EE2  EF76  F01F         	goto	l523
  8343  003EE6                     l3892:
  8344                           
  8345                           ;I2C_Source_File.c: 77:     I2C_Write(slave_read_address);
  8346  003EE6  5002               	movf	I2C_Repeated_Start@slave_read_address^0,w,c
  8347  003EE8  ECF6  F01F         	call	_I2C_Write
  8348  003EEC                     l523:
  8349  003EEC  0012               	return		;funcret
  8350  003EEE                     __end_of_I2C_Repeated_Start:
  8351                           	callstack 0
  8352                           
  8353 ;; *************** function _I2C_Write *****************
  8354 ;; Defined at:
  8355 ;;		line 93 in file "I2C_Source_File.c"
  8356 ;; Parameters:    Size  Location     Type
  8357 ;;  data            1    wreg     unsigned char 
  8358 ;; Auto vars:     Size  Location     Type
  8359 ;;  data            1    0[COMRAM] unsigned char 
  8360 ;; Return value:  Size  Location     Type
  8361 ;;                  1    wreg      unsigned char 
  8362 ;; Registers used:
  8363 ;;		wreg, cstack
  8364 ;; Tracked objects:
  8365 ;;		On entry : 0/0
  8366 ;;		On exit  : 0/0
  8367 ;;		Unchanged: 0/0
  8368 ;; Data sizes:     COMRAM   BANK0   BANK1   BANK2   BANK3   BANK4   BANK5   BANK6   BANK7
  8369 ;;      Params:         0       0       0       0       0       0       0       0       0
  8370 ;;      Locals:         1       0       0       0       0       0       0       0       0
  8371 ;;      Temps:          0       0       0       0       0       0       0       0       0
  8372 ;;      Totals:         1       0       0       0       0       0       0       0       0
  8373 ;;Total ram usage:        1 bytes
  8374 ;; Hardware stack levels used: 1
  8375 ;; Hardware stack levels required when called: 1
  8376 ;; This function calls:
  8377 ;;		_I2C_Ready
  8378 ;; This function is called by:
  8379 ;;		_I2C_Start
  8380 ;;		_I2C_Repeated_Start
  8381 ;;		_RTC_Clock_Write
  8382 ;;		_RTC_Calendar_Write
  8383 ;;		_RTC_Read_Clock
  8384 ;;		_RTC_Read_Calendar
  8385 ;;		_I2C_Start_Wait
  8386 ;; This function uses a non-reentrant model
  8387 ;;
  8388                           
  8389                           	psect	text52
  8390  003FEC                     __ptext52:
  8391                           	callstack 0
  8392  003FEC                     _I2C_Write:
  8393                           	callstack 22
  8394                           
  8395                           ;incstack = 0
  8396                           ;I2C_Write@data stored from wreg
  8397  003FEC  6E01               	movwf	I2C_Write@data^0,c
  8398  003FEE                     
  8399                           ;I2C_Source_File.c: 94:     SSPBUF = data;
  8400  003FEE  C001  FFC9         	movff	I2C_Write@data,4041	;volatile
  8401  003FF2                     
  8402                           ;I2C_Source_File.c: 95:     I2C_Ready();
  8403  003FF2  EC71  F020         	call	_I2C_Ready	;wreg free
  8404  003FF6                     
  8405                           ;I2C_Source_File.c: 96:     if (ACKSTAT)
  8406  003FF6  ACC5               	btfss	4037,6,c	;volatile
  8407  003FF8  EF00  F020         	goto	u3621
  8408  003FFC  EF02  F020         	goto	u3620
  8409  004000                     u3621:
  8410  004000  EF05  F020         	goto	l3798
  8411  004004                     u3620:
  8412  004004                     
  8413                           ;I2C_Source_File.c: 97:         return 1;
  8414  004004  0E01               	movlw	1
  8415  004006  EF06  F020         	goto	l536
  8416  00400A                     l3798:
  8417                           
  8418                           ;I2C_Source_File.c: 99:         return 2;
  8419  00400A  0E02               	movlw	2
  8420  00400C                     l536:
  8421  00400C  0012               	return		;funcret
  8422  00400E                     __end_of_I2C_Write:
  8423                           	callstack 0
  8424                           
  8425 ;; *************** function _I2C_Read *****************
  8426 ;; Defined at:
  8427 ;;		line 12 in file "I2C_Source_File.c"
  8428 ;; Parameters:    Size  Location     Type
  8429 ;;  flag            1    wreg     unsigned char 
  8430 ;; Auto vars:     Size  Location     Type
  8431 ;;  flag            1    0[COMRAM] unsigned char 
  8432 ;;  buffer          1    1[COMRAM] unsigned char 
  8433 ;; Return value:  Size  Location     Type
  8434 ;;                  1    wreg      unsigned char 
  8435 ;; Registers used:
  8436 ;;		wreg, status,2, cstack
  8437 ;; Tracked objects:
  8438 ;;		On entry : 0/0
  8439 ;;		On exit  : 0/0
  8440 ;;		Unchanged: 0/0
  8441 ;; Data sizes:     COMRAM   BANK0   BANK1   BANK2   BANK3   BANK4   BANK5   BANK6   BANK7
  8442 ;;      Params:         0       0       0       0       0       0       0       0       0
  8443 ;;      Locals:         2       0       0       0       0       0       0       0       0
  8444 ;;      Temps:          0       0       0       0       0       0       0       0       0
  8445 ;;      Totals:         2       0       0       0       0       0       0       0       0
  8446 ;;Total ram usage:        2 bytes
  8447 ;; Hardware stack levels used: 1
  8448 ;; Hardware stack levels required when called: 1
  8449 ;; This function calls:
  8450 ;;		_I2C_Ack
  8451 ;;		_I2C_Nack
  8452 ;;		_I2C_Ready
  8453 ;; This function is called by:
  8454 ;;		_RTC_Read_Clock
  8455 ;;		_RTC_Read_Calendar
  8456 ;; This function uses a non-reentrant model
  8457 ;;
  8458                           
  8459                           	psect	text53
  8460  003C7E                     __ptext53:
  8461                           	callstack 0
  8462  003C7E                     _I2C_Read:
  8463                           	callstack 22
  8464                           
  8465                           ;incstack = 0
  8466                           ;I2C_Read@flag stored from wreg
  8467  003C7E  6E01               	movwf	I2C_Read@flag^0,c
  8468  003C80                     
  8469                           ;I2C_Source_File.c: 12: char I2C_Read(char flag) {;I2C_Source_File.c: 13: ;I2C_Source_Fi
      +                          le.c: 14:     char buffer;;I2C_Source_File.c: 15:     RCEN = 1;
  8470  003C80  86C5               	bsf	4037,3,c	;volatile
  8471  003C82                     l484:
  8472  003C82  A0C7               	btfss	199,0,c	;volatile
  8473  003C84  EF46  F01E         	goto	u3701
  8474  003C88  EF48  F01E         	goto	u3700
  8475  003C8C                     u3701:
  8476  003C8C  EF41  F01E         	goto	l484
  8477  003C90                     u3700:
  8478  003C90                     
  8479                           ;I2C_Source_File.c: 18:     buffer = SSPBUF;
  8480  003C90  CFC9 F002          	movff	4041,I2C_Read@buffer	;volatile
  8481  003C94                     
  8482                           ;I2C_Source_File.c: 20:     if (flag == 0)
  8483  003C94  5001               	movf	I2C_Read@flag^0,w,c
  8484  003C96  A4D8               	btfss	status,2,c
  8485  003C98  EF50  F01E         	goto	u3711
  8486  003C9C  EF52  F01E         	goto	u3710
  8487  003CA0                     u3711:
  8488  003CA0  EF56  F01E         	goto	l3872
  8489  003CA4                     u3710:
  8490  003CA4                     
  8491                           ;I2C_Source_File.c: 21:         I2C_Ack();
  8492  003CA4  EC67  F020         	call	_I2C_Ack	;wreg free
  8493  003CA8  EF58  F01E         	goto	l488
  8494  003CAC                     l3872:
  8495                           
  8496                           ;I2C_Source_File.c: 23:         I2C_Nack();
  8497  003CAC  EC5D  F020         	call	_I2C_Nack	;wreg free
  8498  003CB0                     l488:
  8499                           
  8500                           ;I2C_Source_File.c: 24:     I2C_Ready();
  8501  003CB0  EC71  F020         	call	_I2C_Ready	;wreg free
  8502  003CB4                     
  8503                           ;I2C_Source_File.c: 25:     return (buffer);
  8504  003CB4  5002               	movf	I2C_Read@buffer^0,w,c
  8505  003CB6  0012               	return		;funcret
  8506  003CB8                     __end_of_I2C_Read:
  8507                           	callstack 0
  8508                           
  8509 ;; *************** function _I2C_Ready *****************
  8510 ;; Defined at:
  8511 ;;		line 40 in file "I2C_Source_File.c"
  8512 ;; Parameters:    Size  Location     Type
  8513 ;;		None
  8514 ;; Auto vars:     Size  Location     Type
  8515 ;;		None
  8516 ;; Return value:  Size  Location     Type
  8517 ;;                  1    wreg      void 
  8518 ;; Registers used:
  8519 ;;		None
  8520 ;; Tracked objects:
  8521 ;;		On entry : 0/0
  8522 ;;		On exit  : 0/0
  8523 ;;		Unchanged: 0/0
  8524 ;; Data sizes:     COMRAM   BANK0   BANK1   BANK2   BANK3   BANK4   BANK5   BANK6   BANK7
  8525 ;;      Params:         0       0       0       0       0       0       0       0       0
  8526 ;;      Locals:         0       0       0       0       0       0       0       0       0
  8527 ;;      Temps:          0       0       0       0       0       0       0       0       0
  8528 ;;      Totals:         0       0       0       0       0       0       0       0       0
  8529 ;;Total ram usage:        0 bytes
  8530 ;; Hardware stack levels used: 1
  8531 ;; This function calls:
  8532 ;;		Nothing
  8533 ;; This function is called by:
  8534 ;;		_I2C_Read
  8535 ;;		_I2C_Write
  8536 ;; This function uses a non-reentrant model
  8537 ;;
  8538                           
  8539                           	psect	text54
  8540  0040E2                     __ptext54:
  8541                           	callstack 0
  8542  0040E2                     _I2C_Ready:
  8543                           	callstack 22
  8544  0040E2                     l495:
  8545  0040E2  A69E               	btfss	3998,3,c	;volatile
  8546  0040E4  EF76  F020         	goto	u3181
  8547  0040E8  EF78  F020         	goto	u3180
  8548  0040EC                     u3181:
  8549  0040EC  EF71  F020         	goto	l495
  8550  0040F0                     u3180:
  8551  0040F0                     
  8552                           ;I2C_Source_File.c: 42:     SSPIF = 0;
  8553  0040F0  969E               	bcf	3998,3,c	;volatile
  8554  0040F2  0012               	return		;funcret
  8555  0040F4                     __end_of_I2C_Ready:
  8556                           	callstack 0
  8557                           
  8558 ;; *************** function _I2C_Nack *****************
  8559 ;; Defined at:
  8560 ;;		line 108 in file "I2C_Source_File.c"
  8561 ;; Parameters:    Size  Location     Type
  8562 ;;		None
  8563 ;; Auto vars:     Size  Location     Type
  8564 ;;		None
  8565 ;; Return value:  Size  Location     Type
  8566 ;;                  1    wreg      void 
  8567 ;; Registers used:
  8568 ;;		None
  8569 ;; Tracked objects:
  8570 ;;		On entry : 0/0
  8571 ;;		On exit  : 0/0
  8572 ;;		Unchanged: 0/0
  8573 ;; Data sizes:     COMRAM   BANK0   BANK1   BANK2   BANK3   BANK4   BANK5   BANK6   BANK7
  8574 ;;      Params:         0       0       0       0       0       0       0       0       0
  8575 ;;      Locals:         0       0       0       0       0       0       0       0       0
  8576 ;;      Temps:          0       0       0       0       0       0       0       0       0
  8577 ;;      Totals:         0       0       0       0       0       0       0       0       0
  8578 ;;Total ram usage:        0 bytes
  8579 ;; Hardware stack levels used: 1
  8580 ;; This function calls:
  8581 ;;		Nothing
  8582 ;; This function is called by:
  8583 ;;		_I2C_Read
  8584 ;; This function uses a non-reentrant model
  8585 ;;
  8586                           
  8587                           	psect	text55
  8588  0040BA                     __ptext55:
  8589                           	callstack 0
  8590  0040BA                     _I2C_Nack:
  8591                           	callstack 22
  8592  0040BA                     
  8593                           ;I2C_Source_File.c: 109:     ACKDT = 1;
  8594  0040BA  8AC5               	bsf	4037,5,c	;volatile
  8595                           
  8596                           ;I2C_Source_File.c: 110:     ACKEN = 1;
  8597  0040BC  88C5               	bsf	4037,4,c	;volatile
  8598  0040BE                     l546:
  8599  0040BE  B8C5               	btfsc	4037,4,c	;volatile
  8600  0040C0  EF64  F020         	goto	u3611
  8601  0040C4  EF66  F020         	goto	u3610
  8602  0040C8                     u3611:
  8603  0040C8  EF5F  F020         	goto	l546
  8604  0040CC                     u3610:
  8605  0040CC  0012               	return		;funcret
  8606  0040CE                     __end_of_I2C_Nack:
  8607                           	callstack 0
  8608                           
  8609 ;; *************** function _I2C_Ack *****************
  8610 ;; Defined at:
  8611 ;;		line 102 in file "I2C_Source_File.c"
  8612 ;; Parameters:    Size  Location     Type
  8613 ;;		None
  8614 ;; Auto vars:     Size  Location     Type
  8615 ;;		None
  8616 ;; Return value:  Size  Location     Type
  8617 ;;                  1    wreg      void 
  8618 ;; Registers used:
  8619 ;;		None
  8620 ;; Tracked objects:
  8621 ;;		On entry : 0/0
  8622 ;;		On exit  : 0/0
  8623 ;;		Unchanged: 0/0
  8624 ;; Data sizes:     COMRAM   BANK0   BANK1   BANK2   BANK3   BANK4   BANK5   BANK6   BANK7
  8625 ;;      Params:         0       0       0       0       0       0       0       0       0
  8626 ;;      Locals:         0       0       0       0       0       0       0       0       0
  8627 ;;      Temps:          0       0       0       0       0       0       0       0       0
  8628 ;;      Totals:         0       0       0       0       0       0       0       0       0
  8629 ;;Total ram usage:        0 bytes
  8630 ;; Hardware stack levels used: 1
  8631 ;; This function calls:
  8632 ;;		Nothing
  8633 ;; This function is called by:
  8634 ;;		_I2C_Read
  8635 ;; This function uses a non-reentrant model
  8636 ;;
  8637                           
  8638                           	psect	text56
  8639  0040CE                     __ptext56:
  8640                           	callstack 0
  8641  0040CE                     _I2C_Ack:
  8642                           	callstack 22
  8643  0040CE                     
  8644                           ;I2C_Source_File.c: 103:     ACKDT = 0;
  8645  0040CE  9AC5               	bcf	4037,5,c	;volatile
  8646                           
  8647                           ;I2C_Source_File.c: 104:     ACKEN = 1;
  8648  0040D0  88C5               	bsf	4037,4,c	;volatile
  8649  0040D2                     l540:
  8650  0040D2  B8C5               	btfsc	4037,4,c	;volatile
  8651  0040D4  EF6E  F020         	goto	u3601
  8652  0040D8  EF70  F020         	goto	u3600
  8653  0040DC                     u3601:
  8654  0040DC  EF69  F020         	goto	l540
  8655  0040E0                     u3600:
  8656  0040E0  0012               	return		;funcret
  8657  0040E2                     __end_of_I2C_Ack:
  8658                           	callstack 0
  8659                           
  8660 ;; *************** function _USART_SendString *****************
  8661 ;; Defined at:
  8662 ;;		line 38 in file "USART_Source_File.c"
  8663 ;; Parameters:    Size  Location     Type
  8664 ;;  out             2    1[COMRAM] PTR const unsigned char 
  8665 ;;		 -> mostrar_estadistica@mensaje_usart_853(100), mostrar_estadistica@mensaje_usart_851(100), mostrar_estadistica@mens
      +aje_usart(100), 
  8666 ;; Auto vars:     Size  Location     Type
  8667 ;;		None
  8668 ;; Return value:  Size  Location     Type
  8669 ;;                  1    wreg      void 
  8670 ;; Registers used:
  8671 ;;		wreg, fsr2l, fsr2h, status,2, status,0, cstack
  8672 ;; Tracked objects:
  8673 ;;		On entry : 0/0
  8674 ;;		On exit  : 0/0
  8675 ;;		Unchanged: 0/0
  8676 ;; Data sizes:     COMRAM   BANK0   BANK1   BANK2   BANK3   BANK4   BANK5   BANK6   BANK7
  8677 ;;      Params:         2       0       0       0       0       0       0       0       0
  8678 ;;      Locals:         0       0       0       0       0       0       0       0       0
  8679 ;;      Temps:          0       0       0       0       0       0       0       0       0
  8680 ;;      Totals:         2       0       0       0       0       0       0       0       0
  8681 ;;Total ram usage:        2 bytes
  8682 ;; Hardware stack levels used: 1
  8683 ;; Hardware stack levels required when called: 1
  8684 ;; This function calls:
  8685 ;;		_USART_TxChar
  8686 ;; This function is called by:
  8687 ;;		_mostrar_estadistica
  8688 ;; This function uses a non-reentrant model
  8689 ;;
  8690                           
  8691                           	psect	text57
  8692  003E34                     __ptext57:
  8693                           	callstack 0
  8694  003E34                     _USART_SendString:
  8695                           	callstack 25
  8696  003E34                     
  8697                           ;USART_Source_File.c: 39:     while (*out != '\0') {
  8698  003E34  EF25  F01F         	goto	l4062
  8699  003E38                     l4058:
  8700                           
  8701                           ;USART_Source_File.c: 40:         USART_TxChar(*out);
  8702  003E38  C002  FFD9         	movff	USART_SendString@out,fsr2l
  8703  003E3C  C003  FFDA         	movff	USART_SendString@out+1,fsr2h
  8704  003E40  50DF               	movf	indf2,w,c
  8705  003E42  EC3D  F020         	call	_USART_TxChar
  8706  003E46                     
  8707                           ;USART_Source_File.c: 41:         out++;
  8708  003E46  4A02               	infsnz	USART_SendString@out^0,f,c
  8709  003E48  2A03               	incf	(USART_SendString@out+1)^0,f,c
  8710  003E4A                     l4062:
  8711                           
  8712                           ;USART_Source_File.c: 39:     while (*out != '\0') {
  8713  003E4A  C002  FFD9         	movff	USART_SendString@out,fsr2l
  8714  003E4E  C003  FFDA         	movff	USART_SendString@out+1,fsr2h
  8715  003E52  50DF               	movf	indf2,w,c
  8716  003E54  A4D8               	btfss	status,2,c
  8717  003E56  EF2F  F01F         	goto	u3861
  8718  003E5A  EF31  F01F         	goto	u3860
  8719  003E5E                     u3861:
  8720  003E5E  EF1C  F01F         	goto	l4058
  8721  003E62                     u3860:
  8722  003E62  0012               	return		;funcret
  8723  003E64                     __end_of_USART_SendString:
  8724                           	callstack 0
  8725                           
  8726 ;; *************** function _USART_TxChar *****************
  8727 ;; Defined at:
  8728 ;;		line 19 in file "USART_Source_File.c"
  8729 ;; Parameters:    Size  Location     Type
  8730 ;;  out             1    wreg     unsigned char 
  8731 ;; Auto vars:     Size  Location     Type
  8732 ;;  out             1    0[COMRAM] unsigned char 
  8733 ;; Return value:  Size  Location     Type
  8734 ;;                  1    wreg      void 
  8735 ;; Registers used:
  8736 ;;		wreg
  8737 ;; Tracked objects:
  8738 ;;		On entry : 0/0
  8739 ;;		On exit  : 0/0
  8740 ;;		Unchanged: 0/0
  8741 ;; Data sizes:     COMRAM   BANK0   BANK1   BANK2   BANK3   BANK4   BANK5   BANK6   BANK7
  8742 ;;      Params:         0       0       0       0       0       0       0       0       0
  8743 ;;      Locals:         1       0       0       0       0       0       0       0       0
  8744 ;;      Temps:          0       0       0       0       0       0       0       0       0
  8745 ;;      Totals:         1       0       0       0       0       0       0       0       0
  8746 ;;Total ram usage:        1 bytes
  8747 ;; Hardware stack levels used: 1
  8748 ;; This function calls:
  8749 ;;		Nothing
  8750 ;; This function is called by:
  8751 ;;		_USART_SendString
  8752 ;; This function uses a non-reentrant model
  8753 ;;
  8754                           
  8755                           	psect	text58
  8756  00407A                     __ptext58:
  8757                           	callstack 0
  8758  00407A                     _USART_TxChar:
  8759                           	callstack 25
  8760                           
  8761                           ;incstack = 0
  8762                           ;USART_TxChar@out stored from wreg
  8763  00407A  6E01               	movwf	USART_TxChar@out^0,c
  8764  00407C                     l421:
  8765  00407C  A89E               	btfss	3998,4,c	;volatile
  8766  00407E  EF43  F020         	goto	u3791
  8767  004082  EF45  F020         	goto	u3790
  8768  004086                     u3791:
  8769  004086  EF3E  F020         	goto	l421
  8770  00408A                     u3790:
  8771  00408A                     
  8772                           ;USART_Source_File.c: 21:     TXREG = out;
  8773  00408A  C001  FFAD         	movff	USART_TxChar@out,4013	;volatile
  8774  00408E  0012               	return		;funcret
  8775  004090                     __end_of_USART_TxChar:
  8776                           	callstack 0
  8777                           
  8778 ;; *************** function _mostrar_emoticon *****************
  8779 ;; Defined at:
  8780 ;;		line 142 in file "LCD.c"
  8781 ;; Parameters:    Size  Location     Type
  8782 ;;  i               1    wreg     unsigned char 
  8783 ;; Auto vars:     Size  Location     Type
  8784 ;;  i               1    2[COMRAM] unsigned char 
  8785 ;; Return value:  Size  Location     Type
  8786 ;;                  1    wreg      void 
  8787 ;; Registers used:
  8788 ;;		wreg, status,2, status,0, prodl, prodh, cstack
  8789 ;; Tracked objects:
  8790 ;;		On entry : 0/0
  8791 ;;		On exit  : 0/0
  8792 ;;		Unchanged: 0/0
  8793 ;; Data sizes:     COMRAM   BANK0   BANK1   BANK2   BANK3   BANK4   BANK5   BANK6   BANK7
  8794 ;;      Params:         0       0       0       0       0       0       0       0       0
  8795 ;;      Locals:         1       0       0       0       0       0       0       0       0
  8796 ;;      Temps:          0       0       0       0       0       0       0       0       0
  8797 ;;      Totals:         1       0       0       0       0       0       0       0       0
  8798 ;;Total ram usage:        1 bytes
  8799 ;; Hardware stack levels used: 1
  8800 ;; Hardware stack levels required when called: 1
  8801 ;; This function calls:
  8802 ;;		_LCD_Char
  8803 ;;		_LCD_Command
  8804 ;; This function is called by:
  8805 ;;		_validar
  8806 ;; This function uses a non-reentrant model
  8807 ;;
  8808                           
  8809                           	psect	text59
  8810  004090                     __ptext59:
  8811                           	callstack 0
  8812  004090                     _mostrar_emoticon:
  8813                           	callstack 26
  8814                           
  8815                           ;incstack = 0
  8816                           ;mostrar_emoticon@i stored from wreg
  8817  004090  6E03               	movwf	mostrar_emoticon@i^0,c
  8818  004092                     
  8819                           ;LCD.c: 144:     LCD_Command(0x80 | (i * 2));
  8820  004092  5003               	movf	mostrar_emoticon@i^0,w,c
  8821  004094  0D02               	mullw	2
  8822  004096  50F3               	movf	243,w,c
  8823  004098  0980               	iorlw	128
  8824  00409A  EC9F  F01C         	call	_LCD_Command
  8825  00409E                     
  8826                           ;LCD.c: 145:     LCD_Char(i);
  8827  00409E  5003               	movf	mostrar_emoticon@i^0,w,c
  8828  0040A0  EC77  F01C         	call	_LCD_Char
  8829  0040A4  0012               	return		;funcret
  8830  0040A6                     __end_of_mostrar_emoticon:
  8831                           	callstack 0
  8832                           
  8833 ;; *************** function _LCD_Char *****************
  8834 ;; Defined at:
  8835 ;;		line 61 in file "LCD.c"
  8836 ;; Parameters:    Size  Location     Type
  8837 ;;  dat             1    wreg     unsigned char 
  8838 ;; Auto vars:     Size  Location     Type
  8839 ;;  dat             1    1[COMRAM] unsigned char 
  8840 ;; Return value:  Size  Location     Type
  8841 ;;                  1    wreg      void 
  8842 ;; Registers used:
  8843 ;;		wreg, status,2, status,0
  8844 ;; Tracked objects:
  8845 ;;		On entry : 0/0
  8846 ;;		On exit  : 0/0
  8847 ;;		Unchanged: 0/0
  8848 ;; Data sizes:     COMRAM   BANK0   BANK1   BANK2   BANK3   BANK4   BANK5   BANK6   BANK7
  8849 ;;      Params:         0       0       0       0       0       0       0       0       0
  8850 ;;      Locals:         1       0       0       0       0       0       0       0       0
  8851 ;;      Temps:          1       0       0       0       0       0       0       0       0
  8852 ;;      Totals:         2       0       0       0       0       0       0       0       0
  8853 ;;Total ram usage:        2 bytes
  8854 ;; Hardware stack levels used: 1
  8855 ;; This function calls:
  8856 ;;		Nothing
  8857 ;; This function is called by:
  8858 ;;		_LCD_String
  8859 ;;		_mostrar_emoticon
  8860 ;;		_LCD_Custom_Char
  8861 ;;		_Establecer_Hora_Fecha
  8862 ;; This function uses a non-reentrant model
  8863 ;;
  8864                           
  8865                           	psect	text60
  8866  0038EE                     __ptext60:
  8867                           	callstack 0
  8868  0038EE                     _LCD_Char:
  8869                           	callstack 26
  8870                           
  8871                           ;incstack = 0
  8872                           ;LCD_Char@dat stored from wreg
  8873  0038EE  6E02               	movwf	LCD_Char@dat^0,c
  8874  0038F0                     
  8875                           ;LCD.c: 63:     LATD = (LATD & 0x0f) | (0xF0 & dat);
  8876  0038F0  C002  F001         	movff	LCD_Char@dat,??_LCD_Char
  8877  0038F4  0EF0               	movlw	240
  8878  0038F6  1601               	andwf	??_LCD_Char^0,f,c
  8879  0038F8  508C               	movf	140,w,c	;volatile
  8880  0038FA  0B0F               	andlw	15
  8881  0038FC  1001               	iorwf	??_LCD_Char^0,w,c
  8882  0038FE  6E8C               	movwf	140,c	;volatile
  8883  003900                     
  8884                           ;LCD.c: 64:     LATD0 = 1;
  8885  003900  808C               	bsf	3980,0,c	;volatile
  8886  003902                     
  8887                           ;LCD.c: 65:     LATD1 = 1;
  8888  003902  828C               	bsf	3980,1,c	;volatile
  8889  003904                     
  8890                           ;LCD.c: 66:     __nop();
  8891  003904  F000               	nop	
  8892  003906                     
  8893                           ;LCD.c: 67:     LATD1 = 0;
  8894  003906  928C               	bcf	3980,1,c	;volatile
  8895  003908                     
  8896                           ;LCD.c: 68:     _delay((unsigned long)((1)*(8000000/4000.0)));
  8897  003908  0E03               	movlw	3
  8898  00390A  6E01               	movwf	??_LCD_Char^0,c
  8899  00390C  0E98               	movlw	152
  8900  00390E                     u5777:
  8901  00390E  2EE8               	decfsz	wreg,f,c
  8902  003910  D7FE               	bra	u5777
  8903  003912  2E01               	decfsz	??_LCD_Char^0,f,c
  8904  003914  D7FC               	bra	u5777
  8905  003916                     
  8906                           ;LCD.c: 69:     LATD = (LATD & 0x0f) | (dat << 4);
  8907  003916  C002  F001         	movff	LCD_Char@dat,??_LCD_Char
  8908  00391A  3A01               	swapf	??_LCD_Char^0,f,c
  8909  00391C  0EF0               	movlw	240
  8910  00391E  1601               	andwf	??_LCD_Char^0,f,c
  8911  003920  508C               	movf	140,w,c	;volatile
  8912  003922  0B0F               	andlw	15
  8913  003924  1001               	iorwf	??_LCD_Char^0,w,c
  8914  003926  6E8C               	movwf	140,c	;volatile
  8915  003928                     
  8916                           ;LCD.c: 70:     LATD1 = 1;
  8917  003928  828C               	bsf	3980,1,c	;volatile
  8918  00392A                     
  8919                           ;LCD.c: 71:     __nop();
  8920  00392A  F000               	nop	
  8921  00392C                     
  8922                           ;LCD.c: 72:     LATD1 = 0;
  8923  00392C  928C               	bcf	3980,1,c	;volatile
  8924                           
  8925                           ;LCD.c: 73:     _delay((unsigned long)((3)*(8000000/4000.0)));
  8926  00392E  0E08               	movlw	8
  8927  003930  6E01               	movwf	??_LCD_Char^0,c
  8928  003932  0ECA               	movlw	202
  8929  003934                     u5787:
  8930  003934  2EE8               	decfsz	wreg,f,c
  8931  003936  D7FE               	bra	u5787
  8932  003938  2E01               	decfsz	??_LCD_Char^0,f,c
  8933  00393A  D7FC               	bra	u5787
  8934  00393C  0012               	return		;funcret
  8935  00393E                     __end_of_LCD_Char:
  8936                           	callstack 0
  8937                           
  8938 ;; *************** function _sensor_temperatura *****************
  8939 ;; Defined at:
  8940 ;;		line 76 in file "sensores.c"
  8941 ;; Parameters:    Size  Location     Type
  8942 ;;		None
  8943 ;; Auto vars:     Size  Location     Type
  8944 ;;		None
  8945 ;; Return value:  Size  Location     Type
  8946 ;;                  2   49[COMRAM] int 
  8947 ;; Registers used:
  8948 ;;		wreg, status,2, status,0, prodl, prodh, cstack
  8949 ;; Tracked objects:
  8950 ;;		On entry : 0/0
  8951 ;;		On exit  : 0/0
  8952 ;;		Unchanged: 0/0
  8953 ;; Data sizes:     COMRAM   BANK0   BANK1   BANK2   BANK3   BANK4   BANK5   BANK6   BANK7
  8954 ;;      Params:         2       0       0       0       0       0       0       0       0
  8955 ;;      Locals:         0       0       0       0       0       0       0       0       0
  8956 ;;      Temps:          0       0       0       0       0       0       0       0       0
  8957 ;;      Totals:         2       0       0       0       0       0       0       0       0
  8958 ;;Total ram usage:        2 bytes
  8959 ;; Hardware stack levels used: 1
  8960 ;; Hardware stack levels required when called: 2
  8961 ;; This function calls:
  8962 ;;		___flmul
  8963 ;;		___fltol
  8964 ;;		___xxtofl
  8965 ;;		_adc_init10Bits
  8966 ;;		_adc_read10Bits
  8967 ;; This function is called by:
  8968 ;;		_establecer_valores
  8969 ;; This function uses a non-reentrant model
  8970 ;;
  8971                           
  8972                           	psect	text61
  8973  0034AA                     __ptext61:
  8974                           	callstack 0
  8975  0034AA                     _sensor_temperatura:
  8976                           	callstack 26
  8977  0034AA                     
  8978                           ;sensores.c: 77:     TRISAbits.RA0 = 1;
  8979  0034AA  8092               	bsf	146,0,c	;volatile
  8980  0034AC                     
  8981                           ;sensores.c: 78:     adc_init10Bits(0);
  8982  0034AC  0E00               	movlw	0
  8983  0034AE  6E04               	movwf	(adc_init10Bits@canal+1)^0,c
  8984  0034B0  0E00               	movlw	0
  8985  0034B2  6E03               	movwf	adc_init10Bits@canal^0,c
  8986  0034B4  EC83  F020         	call	_adc_init10Bits	;wreg free
  8987  0034B8                     
  8988                           ;sensores.c: 79:     value_adc = adc_read10Bits();
  8989  0034B8  ECA3  F01F         	call	_adc_read10Bits	;wreg free
  8990  0034BC  C001  F1FA         	movff	?_adc_read10Bits,_value_adc
  8991  0034C0  C002  F1FB         	movff	?_adc_read10Bits+1,_value_adc+1
  8992  0034C4                     
  8993                           ;sensores.c: 80:     val_temp = (int) value_adc * 0.4887;
  8994  0034C4  0EE3               	movlw	227
  8995  0034C6  6E13               	movwf	___flmul@a^0,c
  8996  0034C8  0E36               	movlw	54
  8997  0034CA  6E14               	movwf	(___flmul@a+1)^0,c
  8998  0034CC  0EFA               	movlw	250
  8999  0034CE  6E15               	movwf	(___flmul@a+2)^0,c
  9000  0034D0  0E3E               	movlw	62
  9001  0034D2  6E16               	movwf	(___flmul@a+3)^0,c
  9002  0034D4  C1FA  F001         	movff	_value_adc,___xxtofl@val
  9003  0034D8  C1FB  F002         	movff	_value_adc+1,___xxtofl@val+1
  9004  0034DC  0E00               	movlw	0
  9005  0034DE  BE02               	btfsc	(___xxtofl@val+1)^0,7,c
  9006  0034E0  0EFF               	movlw	-1
  9007  0034E2  6E03               	movwf	(___xxtofl@val+2)^0,c
  9008  0034E4  6E04               	movwf	(___xxtofl@val+3)^0,c
  9009  0034E6  0E01               	movlw	1
  9010  0034E8  ECED  F010         	call	___xxtofl
  9011  0034EC  C001  F00F         	movff	?___xxtofl,___flmul@b
  9012  0034F0  C002  F010         	movff	?___xxtofl+1,___flmul@b+1
  9013  0034F4  C003  F011         	movff	?___xxtofl+2,___flmul@b+2
  9014  0034F8  C004  F012         	movff	?___xxtofl+3,___flmul@b+3
  9015  0034FC  ECC7  F006         	call	___flmul	;wreg free
  9016  003500  C00F  F028         	movff	?___flmul,___fltol@f1
  9017  003504  C010  F029         	movff	?___flmul+1,___fltol@f1+1
  9018  003508  C011  F02A         	movff	?___flmul+2,___fltol@f1+2
  9019  00350C  C012  F02B         	movff	?___flmul+3,___fltol@f1+3
  9020  003510  EC63  F015         	call	___fltol	;wreg free
  9021  003514  C028  F1FC         	movff	?___fltol,_val_temp
  9022  003518  C029  F1FD         	movff	?___fltol+1,_val_temp+1
  9023  00351C                     
  9024                           ;sensores.c: 81:     return val_temp;
  9025  00351C  C1FC  F032         	movff	_val_temp,?_sensor_temperatura
  9026  003520  C1FD  F033         	movff	_val_temp+1,?_sensor_temperatura+1
  9027  003524  0012               	return		;funcret
  9028  003526                     __end_of_sensor_temperatura:
  9029                           	callstack 0
  9030                           
  9031 ;; *************** function ___flmul *****************
  9032 ;; Defined at:
  9033 ;;		line 8 in file "D:\mplab\pic\sources\c99\common\sprcmul.c"
  9034 ;; Parameters:    Size  Location     Type
  9035 ;;  b               4   14[COMRAM] int 
  9036 ;;  a               4   18[COMRAM] int 
  9037 ;; Auto vars:     Size  Location     Type
  9038 ;;  prod            4   33[COMRAM] struct .
  9039 ;;  grs             4   27[COMRAM] unsigned long 
  9040 ;;  temp            2   37[COMRAM] struct .
  9041 ;;  bexp            1   32[COMRAM] unsigned char 
  9042 ;;  aexp            1   31[COMRAM] unsigned char 
  9043 ;;  sign            1   26[COMRAM] unsigned char 
  9044 ;; Return value:  Size  Location     Type
  9045 ;;                  4   14[COMRAM] unsigned char 
  9046 ;; Registers used:
  9047 ;;		wreg, status,2, status,0, prodl, prodh
  9048 ;; Tracked objects:
  9049 ;;		On entry : 0/0
  9050 ;;		On exit  : 0/0
  9051 ;;		Unchanged: 0/0
  9052 ;; Data sizes:     COMRAM   BANK0   BANK1   BANK2   BANK3   BANK4   BANK5   BANK6   BANK7
  9053 ;;      Params:         8       0       0       0       0       0       0       0       0
  9054 ;;      Locals:        13       0       0       0       0       0       0       0       0
  9055 ;;      Temps:          4       0       0       0       0       0       0       0       0
  9056 ;;      Totals:        25       0       0       0       0       0       0       0       0
  9057 ;;Total ram usage:       25 bytes
  9058 ;; Hardware stack levels used: 1
  9059 ;; This function calls:
  9060 ;;		Nothing
  9061 ;; This function is called by:
  9062 ;;		_sensor_temperatura
  9063 ;; This function uses a non-reentrant model
  9064 ;;
  9065                           
  9066                           	psect	text62
  9067  000D8E                     __ptext62:
  9068                           	callstack 0
  9069  000D8E                     ___flmul:
  9070                           	callstack 27
  9071  000D8E  5012               	movf	(___flmul@b+3)^0,w,c
  9072  000D90  0B80               	andlw	128
  9073  000D92  6E1B               	movwf	___flmul@sign^0,c
  9074  000D94  5012               	movf	(___flmul@b+3)^0,w,c
  9075  000D96  2412               	addwf	(___flmul@b+3)^0,w,c
  9076  000D98  6E21               	movwf	___flmul@bexp^0,c
  9077  000D9A  AE11               	btfss	(___flmul@b+2)^0,7,c
  9078  000D9C  EFD2  F006         	goto	u4011
  9079  000DA0  EFD4  F006         	goto	u4010
  9080  000DA4                     u4011:
  9081  000DA4  EFD5  F006         	goto	l4202
  9082  000DA8                     u4010:
  9083  000DA8  8021               	bsf	___flmul@bexp^0,0,c
  9084  000DAA                     l4202:
  9085  000DAA  5021               	movf	___flmul@bexp^0,w,c
  9086  000DAC  B4D8               	btfsc	status,2,c
  9087  000DAE  EFDB  F006         	goto	u4021
  9088  000DB2  EFDD  F006         	goto	u4020
  9089  000DB6                     u4021:
  9090  000DB6  EFF0  F006         	goto	l4210
  9091  000DBA                     u4020:
  9092  000DBA  2821               	incf	___flmul@bexp^0,w,c
  9093  000DBC  A4D8               	btfss	status,2,c
  9094  000DBE  EFE3  F006         	goto	u4031
  9095  000DC2  EFE5  F006         	goto	u4030
  9096  000DC6                     u4031:
  9097  000DC6  EFED  F006         	goto	l4208
  9098  000DCA                     u4030:
  9099  000DCA  0E00               	movlw	0
  9100  000DCC  6E0F               	movwf	___flmul@b^0,c
  9101  000DCE  0E00               	movlw	0
  9102  000DD0  6E10               	movwf	(___flmul@b+1)^0,c
  9103  000DD2  0E00               	movlw	0
  9104  000DD4  6E11               	movwf	(___flmul@b+2)^0,c
  9105  000DD6  0E00               	movlw	0
  9106  000DD8  6E12               	movwf	(___flmul@b+3)^0,c
  9107  000DDA                     l4208:
  9108  000DDA  8E11               	bsf	(___flmul@b+2)^0,7,c
  9109  000DDC  EFF8  F006         	goto	l4212
  9110  000DE0                     l4210:
  9111  000DE0  0E00               	movlw	0
  9112  000DE2  6E0F               	movwf	___flmul@b^0,c
  9113  000DE4  0E00               	movlw	0
  9114  000DE6  6E10               	movwf	(___flmul@b+1)^0,c
  9115  000DE8  0E00               	movlw	0
  9116  000DEA  6E11               	movwf	(___flmul@b+2)^0,c
  9117  000DEC  0E00               	movlw	0
  9118  000DEE  6E12               	movwf	(___flmul@b+3)^0,c
  9119  000DF0                     l4212:
  9120  000DF0  5016               	movf	(___flmul@a+3)^0,w,c
  9121  000DF2  0B80               	andlw	128
  9122  000DF4  1A1B               	xorwf	___flmul@sign^0,f,c
  9123  000DF6  5016               	movf	(___flmul@a+3)^0,w,c
  9124  000DF8  2416               	addwf	(___flmul@a+3)^0,w,c
  9125  000DFA  6E20               	movwf	___flmul@aexp^0,c
  9126  000DFC  AE15               	btfss	(___flmul@a+2)^0,7,c
  9127  000DFE  EF03  F007         	goto	u4041
  9128  000E02  EF05  F007         	goto	u4040
  9129  000E06                     u4041:
  9130  000E06  EF06  F007         	goto	l4220
  9131  000E0A                     u4040:
  9132  000E0A  8020               	bsf	___flmul@aexp^0,0,c
  9133  000E0C                     l4220:
  9134  000E0C  5020               	movf	___flmul@aexp^0,w,c
  9135  000E0E  B4D8               	btfsc	status,2,c
  9136  000E10  EF0C  F007         	goto	u4051
  9137  000E14  EF0E  F007         	goto	u4050
  9138  000E18                     u4051:
  9139  000E18  EF21  F007         	goto	l4228
  9140  000E1C                     u4050:
  9141  000E1C  2820               	incf	___flmul@aexp^0,w,c
  9142  000E1E  A4D8               	btfss	status,2,c
  9143  000E20  EF14  F007         	goto	u4061
  9144  000E24  EF16  F007         	goto	u4060
  9145  000E28                     u4061:
  9146  000E28  EF1E  F007         	goto	l4226
  9147  000E2C                     u4060:
  9148  000E2C  0E00               	movlw	0
  9149  000E2E  6E13               	movwf	___flmul@a^0,c
  9150  000E30  0E00               	movlw	0
  9151  000E32  6E14               	movwf	(___flmul@a+1)^0,c
  9152  000E34  0E00               	movlw	0
  9153  000E36  6E15               	movwf	(___flmul@a+2)^0,c
  9154  000E38  0E00               	movlw	0
  9155  000E3A  6E16               	movwf	(___flmul@a+3)^0,c
  9156  000E3C                     l4226:
  9157  000E3C  8E15               	bsf	(___flmul@a+2)^0,7,c
  9158  000E3E  EF29  F007         	goto	l1321
  9159  000E42                     l4228:
  9160  000E42  0E00               	movlw	0
  9161  000E44  6E13               	movwf	___flmul@a^0,c
  9162  000E46  0E00               	movlw	0
  9163  000E48  6E14               	movwf	(___flmul@a+1)^0,c
  9164  000E4A  0E00               	movlw	0
  9165  000E4C  6E15               	movwf	(___flmul@a+2)^0,c
  9166  000E4E  0E00               	movlw	0
  9167  000E50  6E16               	movwf	(___flmul@a+3)^0,c
  9168  000E52                     l1321:
  9169  000E52  5020               	movf	___flmul@aexp^0,w,c
  9170  000E54  B4D8               	btfsc	status,2,c
  9171  000E56  EF2F  F007         	goto	u4071
  9172  000E5A  EF31  F007         	goto	u4070
  9173  000E5E                     u4071:
  9174  000E5E  EF39  F007         	goto	l4232
  9175  000E62                     u4070:
  9176  000E62  5021               	movf	___flmul@bexp^0,w,c
  9177  000E64  A4D8               	btfss	status,2,c
  9178  000E66  EF37  F007         	goto	u4081
  9179  000E6A  EF39  F007         	goto	u4080
  9180  000E6E                     u4081:
  9181  000E6E  EF43  F007         	goto	l4236
  9182  000E72                     u4080:
  9183  000E72                     l4232:
  9184  000E72  0E00               	movlw	0
  9185  000E74  6E0F               	movwf	?___flmul^0,c
  9186  000E76  0E00               	movlw	0
  9187  000E78  6E10               	movwf	(?___flmul+1)^0,c
  9188  000E7A  0E00               	movlw	0
  9189  000E7C  6E11               	movwf	(?___flmul+2)^0,c
  9190  000E7E  0E00               	movlw	0
  9191  000E80  6E12               	movwf	(?___flmul+3)^0,c
  9192  000E82  EFDB  F008         	goto	l1325
  9193  000E86                     l4236:
  9194  000E86  5015               	movf	(___flmul@a+2)^0,w,c
  9195  000E88  020F               	mulwf	___flmul@b^0,c
  9196  000E8A  CFF3 F026          	movff	prodl,___flmul@temp
  9197  000E8E  CFF4 F027          	movff	prodh,___flmul@temp+1
  9198  000E92  5026               	movf	___flmul@temp^0,w,c
  9199  000E94  6E1C               	movwf	___flmul@grs^0,c
  9200  000E96  6A1D               	clrf	(___flmul@grs+1)^0,c
  9201  000E98  6A1E               	clrf	(___flmul@grs+2)^0,c
  9202  000E9A  6A1F               	clrf	(___flmul@grs+3)^0,c
  9203  000E9C  5027               	movf	(___flmul@temp+1)^0,w,c
  9204  000E9E  6E22               	movwf	___flmul@prod^0,c
  9205  000EA0  6A23               	clrf	(___flmul@prod+1)^0,c
  9206  000EA2  6A24               	clrf	(___flmul@prod+2)^0,c
  9207  000EA4  6A25               	clrf	(___flmul@prod+3)^0,c
  9208  000EA6  5014               	movf	(___flmul@a+1)^0,w,c
  9209  000EA8  0210               	mulwf	(___flmul@b+1)^0,c
  9210  000EAA  CFF3 F026          	movff	prodl,___flmul@temp
  9211  000EAE  CFF4 F027          	movff	prodh,___flmul@temp+1
  9212  000EB2  5026               	movf	___flmul@temp^0,w,c
  9213  000EB4  261C               	addwf	___flmul@grs^0,f,c
  9214  000EB6  0E00               	movlw	0
  9215  000EB8  221D               	addwfc	(___flmul@grs+1)^0,f,c
  9216  000EBA  221E               	addwfc	(___flmul@grs+2)^0,f,c
  9217  000EBC  221F               	addwfc	(___flmul@grs+3)^0,f,c
  9218  000EBE  5027               	movf	(___flmul@temp+1)^0,w,c
  9219  000EC0  2622               	addwf	___flmul@prod^0,f,c
  9220  000EC2  0E00               	movlw	0
  9221  000EC4  2223               	addwfc	(___flmul@prod+1)^0,f,c
  9222  000EC6  2224               	addwfc	(___flmul@prod+2)^0,f,c
  9223  000EC8  2225               	addwfc	(___flmul@prod+3)^0,f,c
  9224  000ECA  5013               	movf	___flmul@a^0,w,c
  9225  000ECC  0211               	mulwf	(___flmul@b+2)^0,c
  9226  000ECE  CFF3 F026          	movff	prodl,___flmul@temp
  9227  000ED2  CFF4 F027          	movff	prodh,___flmul@temp+1
  9228  000ED6  5026               	movf	___flmul@temp^0,w,c
  9229  000ED8  261C               	addwf	___flmul@grs^0,f,c
  9230  000EDA  0E00               	movlw	0
  9231  000EDC  221D               	addwfc	(___flmul@grs+1)^0,f,c
  9232  000EDE  221E               	addwfc	(___flmul@grs+2)^0,f,c
  9233  000EE0  221F               	addwfc	(___flmul@grs+3)^0,f,c
  9234  000EE2  5027               	movf	(___flmul@temp+1)^0,w,c
  9235  000EE4  2622               	addwf	___flmul@prod^0,f,c
  9236  000EE6  0E00               	movlw	0
  9237  000EE8  2223               	addwfc	(___flmul@prod+1)^0,f,c
  9238  000EEA  2224               	addwfc	(___flmul@prod+2)^0,f,c
  9239  000EEC  2225               	addwfc	(___flmul@prod+3)^0,f,c
  9240  000EEE  C01E  F01F         	movff	___flmul@grs+2,___flmul@grs+3
  9241  000EF2  C01D  F01E         	movff	___flmul@grs+1,___flmul@grs+2
  9242  000EF6  C01C  F01D         	movff	___flmul@grs,___flmul@grs+1
  9243  000EFA  6A1C               	clrf	___flmul@grs^0,c
  9244  000EFC  5013               	movf	___flmul@a^0,w,c
  9245  000EFE  0210               	mulwf	(___flmul@b+1)^0,c
  9246  000F00  CFF3 F026          	movff	prodl,___flmul@temp
  9247  000F04  CFF4 F027          	movff	prodh,___flmul@temp+1
  9248  000F08  5026               	movf	___flmul@temp^0,w,c
  9249  000F0A  261C               	addwf	___flmul@grs^0,f,c
  9250  000F0C  5027               	movf	(___flmul@temp+1)^0,w,c
  9251  000F0E  221D               	addwfc	(___flmul@grs+1)^0,f,c
  9252  000F10  0E00               	movlw	0
  9253  000F12  221E               	addwfc	(___flmul@grs+2)^0,f,c
  9254  000F14  0E00               	movlw	0
  9255  000F16  221F               	addwfc	(___flmul@grs+3)^0,f,c
  9256  000F18  5014               	movf	(___flmul@a+1)^0,w,c
  9257  000F1A  020F               	mulwf	___flmul@b^0,c
  9258  000F1C  CFF3 F026          	movff	prodl,___flmul@temp
  9259  000F20  CFF4 F027          	movff	prodh,___flmul@temp+1
  9260  000F24  5026               	movf	___flmul@temp^0,w,c
  9261  000F26  261C               	addwf	___flmul@grs^0,f,c
  9262  000F28  5027               	movf	(___flmul@temp+1)^0,w,c
  9263  000F2A  221D               	addwfc	(___flmul@grs+1)^0,f,c
  9264  000F2C  0E00               	movlw	0
  9265  000F2E  221E               	addwfc	(___flmul@grs+2)^0,f,c
  9266  000F30  0E00               	movlw	0
  9267  000F32  221F               	addwfc	(___flmul@grs+3)^0,f,c
  9268  000F34  C01E  F01F         	movff	___flmul@grs+2,___flmul@grs+3
  9269  000F38  C01D  F01E         	movff	___flmul@grs+1,___flmul@grs+2
  9270  000F3C  C01C  F01D         	movff	___flmul@grs,___flmul@grs+1
  9271  000F40  6A1C               	clrf	___flmul@grs^0,c
  9272  000F42  5013               	movf	___flmul@a^0,w,c
  9273  000F44  020F               	mulwf	___flmul@b^0,c
  9274  000F46  CFF3 F026          	movff	prodl,___flmul@temp
  9275  000F4A  CFF4 F027          	movff	prodh,___flmul@temp+1
  9276  000F4E  5026               	movf	___flmul@temp^0,w,c
  9277  000F50  261C               	addwf	___flmul@grs^0,f,c
  9278  000F52  5027               	movf	(___flmul@temp+1)^0,w,c
  9279  000F54  221D               	addwfc	(___flmul@grs+1)^0,f,c
  9280  000F56  0E00               	movlw	0
  9281  000F58  221E               	addwfc	(___flmul@grs+2)^0,f,c
  9282  000F5A  0E00               	movlw	0
  9283  000F5C  221F               	addwfc	(___flmul@grs+3)^0,f,c
  9284  000F5E  5015               	movf	(___flmul@a+2)^0,w,c
  9285  000F60  0210               	mulwf	(___flmul@b+1)^0,c
  9286  000F62  CFF3 F026          	movff	prodl,___flmul@temp
  9287  000F66  CFF4 F027          	movff	prodh,___flmul@temp+1
  9288  000F6A  5026               	movf	___flmul@temp^0,w,c
  9289  000F6C  2622               	addwf	___flmul@prod^0,f,c
  9290  000F6E  5027               	movf	(___flmul@temp+1)^0,w,c
  9291  000F70  2223               	addwfc	(___flmul@prod+1)^0,f,c
  9292  000F72  0E00               	movlw	0
  9293  000F74  2224               	addwfc	(___flmul@prod+2)^0,f,c
  9294  000F76  0E00               	movlw	0
  9295  000F78  2225               	addwfc	(___flmul@prod+3)^0,f,c
  9296  000F7A  5014               	movf	(___flmul@a+1)^0,w,c
  9297  000F7C  0211               	mulwf	(___flmul@b+2)^0,c
  9298  000F7E  CFF3 F026          	movff	prodl,___flmul@temp
  9299  000F82  CFF4 F027          	movff	prodh,___flmul@temp+1
  9300  000F86  5026               	movf	___flmul@temp^0,w,c
  9301  000F88  2622               	addwf	___flmul@prod^0,f,c
  9302  000F8A  5027               	movf	(___flmul@temp+1)^0,w,c
  9303  000F8C  2223               	addwfc	(___flmul@prod+1)^0,f,c
  9304  000F8E  0E00               	movlw	0
  9305  000F90  2224               	addwfc	(___flmul@prod+2)^0,f,c
  9306  000F92  0E00               	movlw	0
  9307  000F94  2225               	addwfc	(___flmul@prod+3)^0,f,c
  9308  000F96  5015               	movf	(___flmul@a+2)^0,w,c
  9309  000F98  0211               	mulwf	(___flmul@b+2)^0,c
  9310  000F9A  CFF3 F026          	movff	prodl,___flmul@temp
  9311  000F9E  CFF4 F027          	movff	prodh,___flmul@temp+1
  9312  000FA2  5026               	movf	___flmul@temp^0,w,c
  9313  000FA4  6E17               	movwf	??___flmul^0,c
  9314  000FA6  5027               	movf	(___flmul@temp+1)^0,w,c
  9315  000FA8  6E18               	movwf	(??___flmul+1)^0,c
  9316  000FAA  6A19               	clrf	(??___flmul+2)^0,c
  9317  000FAC  6A1A               	clrf	(??___flmul+3)^0,c
  9318  000FAE  C019  F01A         	movff	??___flmul+2,??___flmul+3
  9319  000FB2  C018  F019         	movff	??___flmul+1,??___flmul+2
  9320  000FB6  C017  F018         	movff	??___flmul,??___flmul+1
  9321  000FBA  6A17               	clrf	??___flmul^0,c
  9322  000FBC  5017               	movf	??___flmul^0,w,c
  9323  000FBE  2622               	addwf	___flmul@prod^0,f,c
  9324  000FC0  5018               	movf	(??___flmul+1)^0,w,c
  9325  000FC2  2223               	addwfc	(___flmul@prod+1)^0,f,c
  9326  000FC4  5019               	movf	(??___flmul+2)^0,w,c
  9327  000FC6  2224               	addwfc	(___flmul@prod+2)^0,f,c
  9328  000FC8  501A               	movf	(??___flmul+3)^0,w,c
  9329  000FCA  2225               	addwfc	(___flmul@prod+3)^0,f,c
  9330  000FCC  C01C  F017         	movff	___flmul@grs,??___flmul
  9331  000FD0  C01D  F018         	movff	___flmul@grs+1,??___flmul+1
  9332  000FD4  C01E  F019         	movff	___flmul@grs+2,??___flmul+2
  9333  000FD8  C01F  F01A         	movff	___flmul@grs+3,??___flmul+3
  9334  000FDC  0E19               	movlw	25
  9335  000FDE  EFF6  F007         	goto	u4090
  9336  000FE2                     u4095:
  9337  000FE2  90D8               	bcf	status,0,c
  9338  000FE4  321A               	rrcf	(??___flmul+3)^0,f,c
  9339  000FE6  3219               	rrcf	(??___flmul+2)^0,f,c
  9340  000FE8  3218               	rrcf	(??___flmul+1)^0,f,c
  9341  000FEA  3217               	rrcf	??___flmul^0,f,c
  9342  000FEC                     u4090:
  9343  000FEC  2EE8               	decfsz	wreg,f,c
  9344  000FEE  EFF1  F007         	goto	u4095
  9345  000FF2  5017               	movf	??___flmul^0,w,c
  9346  000FF4  2622               	addwf	___flmul@prod^0,f,c
  9347  000FF6  5018               	movf	(??___flmul+1)^0,w,c
  9348  000FF8  2223               	addwfc	(___flmul@prod+1)^0,f,c
  9349  000FFA  5019               	movf	(??___flmul+2)^0,w,c
  9350  000FFC  2224               	addwfc	(___flmul@prod+2)^0,f,c
  9351  000FFE  501A               	movf	(??___flmul+3)^0,w,c
  9352  001000  2225               	addwfc	(___flmul@prod+3)^0,f,c
  9353  001002  C01E  F01F         	movff	___flmul@grs+2,___flmul@grs+3
  9354  001006  C01D  F01E         	movff	___flmul@grs+1,___flmul@grs+2
  9355  00100A  C01C  F01D         	movff	___flmul@grs,___flmul@grs+1
  9356  00100E  6A1C               	clrf	___flmul@grs^0,c
  9357  001010  5020               	movf	___flmul@aexp^0,w,c
  9358  001012  C021  F017         	movff	___flmul@bexp,??___flmul
  9359  001016  6A18               	clrf	(??___flmul+1)^0,c
  9360  001018  2617               	addwf	??___flmul^0,f,c
  9361  00101A  0E00               	movlw	0
  9362  00101C  2218               	addwfc	(??___flmul+1)^0,f,c
  9363  00101E  0E82               	movlw	130
  9364  001020  2417               	addwf	??___flmul^0,w,c
  9365  001022  6E26               	movwf	___flmul@temp^0,c
  9366  001024  0EFF               	movlw	255
  9367  001026  2018               	addwfc	(??___flmul+1)^0,w,c
  9368  001028  6E27               	movwf	(___flmul@temp+1)^0,c
  9369  00102A  EF2C  F008         	goto	l4284
  9370  00102E                     l4278:
  9371  00102E  90D8               	bcf	status,0,c
  9372  001030  3622               	rlcf	___flmul@prod^0,f,c
  9373  001032  3623               	rlcf	(___flmul@prod+1)^0,f,c
  9374  001034  3624               	rlcf	(___flmul@prod+2)^0,f,c
  9375  001036  3625               	rlcf	(___flmul@prod+3)^0,f,c
  9376  001038  AE1F               	btfss	(___flmul@grs+3)^0,7,c
  9377  00103A  EF21  F008         	goto	u4101
  9378  00103E  EF23  F008         	goto	u4100
  9379  001042                     u4101:
  9380  001042  EF24  F008         	goto	l1328
  9381  001046                     u4100:
  9382  001046  8022               	bsf	___flmul@prod^0,0,c
  9383  001048                     l1328:
  9384  001048  90D8               	bcf	status,0,c
  9385  00104A  361C               	rlcf	___flmul@grs^0,f,c
  9386  00104C  361D               	rlcf	(___flmul@grs+1)^0,f,c
  9387  00104E  361E               	rlcf	(___flmul@grs+2)^0,f,c
  9388  001050  361F               	rlcf	(___flmul@grs+3)^0,f,c
  9389  001052  0626               	decf	___flmul@temp^0,f,c
  9390  001054  A0D8               	btfss	status,0,c
  9391  001056  0627               	decf	(___flmul@temp+1)^0,f,c
  9392  001058                     l4284:
  9393  001058  AE24               	btfss	(___flmul@prod+2)^0,7,c
  9394  00105A  EF31  F008         	goto	u4111
  9395  00105E  EF33  F008         	goto	u4110
  9396  001062                     u4111:
  9397  001062  EF17  F008         	goto	l4278
  9398  001066                     u4110:
  9399  001066  0E00               	movlw	0
  9400  001068  6E20               	movwf	___flmul@aexp^0,c
  9401  00106A  AE1F               	btfss	(___flmul@grs+3)^0,7,c
  9402  00106C  EF3A  F008         	goto	u4121
  9403  001070  EF3C  F008         	goto	u4120
  9404  001074                     u4121:
  9405  001074  EF60  F008         	goto	l1330
  9406  001078                     u4120:
  9407  001078  0EFF               	movlw	255
  9408  00107A  141C               	andwf	___flmul@grs^0,w,c
  9409  00107C  6E17               	movwf	??___flmul^0,c
  9410  00107E  0EFF               	movlw	255
  9411  001080  141D               	andwf	(___flmul@grs+1)^0,w,c
  9412  001082  6E18               	movwf	(??___flmul+1)^0,c
  9413  001084  0EFF               	movlw	255
  9414  001086  141E               	andwf	(___flmul@grs+2)^0,w,c
  9415  001088  6E19               	movwf	(??___flmul+2)^0,c
  9416  00108A  0E7F               	movlw	127
  9417  00108C  141F               	andwf	(___flmul@grs+3)^0,w,c
  9418  00108E  6E1A               	movwf	(??___flmul+3)^0,c
  9419  001090  5017               	movf	??___flmul^0,w,c
  9420  001092  1018               	iorwf	(??___flmul+1)^0,w,c
  9421  001094  1019               	iorwf	(??___flmul+2)^0,w,c
  9422  001096  101A               	iorwf	(??___flmul+3)^0,w,c
  9423  001098  B4D8               	btfsc	status,2,c
  9424  00109A  EF51  F008         	goto	u4131
  9425  00109E  EF53  F008         	goto	u4130
  9426  0010A2                     u4131:
  9427  0010A2  EF57  F008         	goto	l1331
  9428  0010A6                     u4130:
  9429  0010A6                     l4292:
  9430  0010A6  0E01               	movlw	1
  9431  0010A8  6E20               	movwf	___flmul@aexp^0,c
  9432  0010AA  EF60  F008         	goto	l1330
  9433  0010AE                     l1331:
  9434  0010AE  A022               	btfss	___flmul@prod^0,0,c
  9435  0010B0  EF5C  F008         	goto	u4141
  9436  0010B4  EF5E  F008         	goto	u4140
  9437  0010B8                     u4141:
  9438  0010B8  EF60  F008         	goto	l1330
  9439  0010BC                     u4140:
  9440  0010BC  EF53  F008         	goto	l4292
  9441  0010C0                     l1330:
  9442  0010C0  5020               	movf	___flmul@aexp^0,w,c
  9443  0010C2  B4D8               	btfsc	status,2,c
  9444  0010C4  EF66  F008         	goto	u4151
  9445  0010C8  EF68  F008         	goto	u4150
  9446  0010CC                     u4151:
  9447  0010CC  EF8C  F008         	goto	l4304
  9448  0010D0                     u4150:
  9449  0010D0  0E01               	movlw	1
  9450  0010D2  2622               	addwf	___flmul@prod^0,f,c
  9451  0010D4  0E00               	movlw	0
  9452  0010D6  2223               	addwfc	(___flmul@prod+1)^0,f,c
  9453  0010D8  2224               	addwfc	(___flmul@prod+2)^0,f,c
  9454  0010DA  2225               	addwfc	(___flmul@prod+3)^0,f,c
  9455  0010DC  A025               	btfss	(___flmul@prod+3)^0,0,c
  9456  0010DE  EF73  F008         	goto	u4161
  9457  0010E2  EF75  F008         	goto	u4160
  9458  0010E6                     u4161:
  9459  0010E6  EF8C  F008         	goto	l4304
  9460  0010EA                     u4160:
  9461  0010EA  C022  F017         	movff	___flmul@prod,??___flmul
  9462  0010EE  C023  F018         	movff	___flmul@prod+1,??___flmul+1
  9463  0010F2  C024  F019         	movff	___flmul@prod+2,??___flmul+2
  9464  0010F6  C025  F01A         	movff	___flmul@prod+3,??___flmul+3
  9465  0010FA  341A               	rlcf	(??___flmul+3)^0,w,c
  9466  0010FC  321A               	rrcf	(??___flmul+3)^0,f,c
  9467  0010FE  3219               	rrcf	(??___flmul+2)^0,f,c
  9468  001100  3218               	rrcf	(??___flmul+1)^0,f,c
  9469  001102  3217               	rrcf	??___flmul^0,f,c
  9470  001104  C017  F022         	movff	??___flmul,___flmul@prod
  9471  001108  C018  F023         	movff	??___flmul+1,___flmul@prod+1
  9472  00110C  C019  F024         	movff	??___flmul+2,___flmul@prod+2
  9473  001110  C01A  F025         	movff	??___flmul+3,___flmul@prod+3
  9474  001114  4A26               	infsnz	___flmul@temp^0,f,c
  9475  001116  2A27               	incf	(___flmul@temp+1)^0,f,c
  9476  001118                     l4304:
  9477  001118  BE27               	btfsc	(___flmul@temp+1)^0,7,c
  9478  00111A  EF97  F008         	goto	u4171
  9479  00111E  5027               	movf	(___flmul@temp+1)^0,w,c
  9480  001120  E108               	bnz	u4170
  9481  001122  2826               	incf	___flmul@temp^0,w,c
  9482  001124  A0D8               	btfss	status,0,c
  9483  001126  EF97  F008         	goto	u4171
  9484  00112A  EF99  F008         	goto	u4170
  9485  00112E                     u4171:
  9486  00112E  EFA3  F008         	goto	l4308
  9487  001132                     u4170:
  9488  001132  0E00               	movlw	0
  9489  001134  6E22               	movwf	___flmul@prod^0,c
  9490  001136  0E00               	movlw	0
  9491  001138  6E23               	movwf	(___flmul@prod+1)^0,c
  9492  00113A  0E80               	movlw	128
  9493  00113C  6E24               	movwf	(___flmul@prod+2)^0,c
  9494  00113E  0E7F               	movlw	127
  9495  001140  6E25               	movwf	(___flmul@prod+3)^0,c
  9496  001142  EFD1  F008         	goto	l4320
  9497  001146                     l4308:
  9498  001146  BE27               	btfsc	(___flmul@temp+1)^0,7,c
  9499  001148  EFB0  F008         	goto	u4180
  9500  00114C  5027               	movf	(___flmul@temp+1)^0,w,c
  9501  00114E  E106               	bnz	u4181
  9502  001150  0426               	decf	___flmul@temp^0,w,c
  9503  001152  B0D8               	btfsc	status,0,c
  9504  001154  EFAE  F008         	goto	u4181
  9505  001158  EFB0  F008         	goto	u4180
  9506  00115C                     u4181:
  9507  00115C  EFBC  F008         	goto	l1338
  9508  001160                     u4180:
  9509  001160  0E00               	movlw	0
  9510  001162  6E22               	movwf	___flmul@prod^0,c
  9511  001164  0E00               	movlw	0
  9512  001166  6E23               	movwf	(___flmul@prod+1)^0,c
  9513  001168  0E00               	movlw	0
  9514  00116A  6E24               	movwf	(___flmul@prod+2)^0,c
  9515  00116C  0E00               	movlw	0
  9516  00116E  6E25               	movwf	(___flmul@prod+3)^0,c
  9517  001170  0E00               	movlw	0
  9518  001172  6E1B               	movwf	___flmul@sign^0,c
  9519  001174  EFD1  F008         	goto	l4320
  9520  001178                     l1338:
  9521  001178  C026  F021         	movff	___flmul@temp,___flmul@bexp
  9522  00117C  0EFF               	movlw	255
  9523  00117E  1622               	andwf	___flmul@prod^0,f,c
  9524  001180  0EFF               	movlw	255
  9525  001182  1623               	andwf	(___flmul@prod+1)^0,f,c
  9526  001184  0E7F               	movlw	127
  9527  001186  1624               	andwf	(___flmul@prod+2)^0,f,c
  9528  001188  0E00               	movlw	0
  9529  00118A  1625               	andwf	(___flmul@prod+3)^0,f,c
  9530  00118C  A021               	btfss	___flmul@bexp^0,0,c
  9531  00118E  EFCB  F008         	goto	u4191
  9532  001192  EFCD  F008         	goto	u4190
  9533  001196                     u4191:
  9534  001196  EFCE  F008         	goto	l4318
  9535  00119A                     u4190:
  9536  00119A  8E24               	bsf	(___flmul@prod+2)^0,7,c
  9537  00119C                     l4318:
  9538  00119C  90D8               	bcf	status,0,c
  9539  00119E  3021               	rrcf	___flmul@bexp^0,w,c
  9540  0011A0  6E25               	movwf	(___flmul@prod+3)^0,c
  9541  0011A2                     l4320:
  9542  0011A2  501B               	movf	___flmul@sign^0,w,c
  9543  0011A4  1225               	iorwf	(___flmul@prod+3)^0,f,c
  9544  0011A6  C022  F00F         	movff	___flmul@prod,?___flmul
  9545  0011AA  C023  F010         	movff	___flmul@prod+1,?___flmul+1
  9546  0011AE  C024  F011         	movff	___flmul@prod+2,?___flmul+2
  9547  0011B2  C025  F012         	movff	___flmul@prod+3,?___flmul+3
  9548  0011B6                     l1325:
  9549  0011B6  0012               	return		;funcret
  9550  0011B8                     __end_of___flmul:
  9551                           	callstack 0
  9552                           
  9553 ;; *************** function _sensor_luz *****************
  9554 ;; Defined at:
  9555 ;;		line 91 in file "sensores.c"
  9556 ;; Parameters:    Size  Location     Type
  9557 ;;		None
  9558 ;; Auto vars:     Size  Location     Type
  9559 ;;		None
  9560 ;; Return value:  Size  Location     Type
  9561 ;;                  2   13[COMRAM] int 
  9562 ;; Registers used:
  9563 ;;		wreg, status,2, status,0, prodl, prodh, cstack
  9564 ;; Tracked objects:
  9565 ;;		On entry : 0/0
  9566 ;;		On exit  : 0/0
  9567 ;;		Unchanged: 0/0
  9568 ;; Data sizes:     COMRAM   BANK0   BANK1   BANK2   BANK3   BANK4   BANK5   BANK6   BANK7
  9569 ;;      Params:         2       0       0       0       0       0       0       0       0
  9570 ;;      Locals:         0       0       0       0       0       0       0       0       0
  9571 ;;      Temps:          1       0       0       0       0       0       0       0       0
  9572 ;;      Totals:         3       0       0       0       0       0       0       0       0
  9573 ;;Total ram usage:        3 bytes
  9574 ;; Hardware stack levels used: 1
  9575 ;; Hardware stack levels required when called: 2
  9576 ;; This function calls:
  9577 ;;		___lwdiv
  9578 ;;		___wmul
  9579 ;;		_adc_init10Bits
  9580 ;;		_adc_read10Bits
  9581 ;; This function is called by:
  9582 ;;		_establecer_valores
  9583 ;; This function uses a non-reentrant model
  9584 ;;
  9585                           
  9586                           	psect	text63
  9587  0033AC                     __ptext63:
  9588                           	callstack 0
  9589  0033AC                     _sensor_luz:
  9590                           	callstack 26
  9591  0033AC                     
  9592                           ;sensores.c: 93:     TRISAbits.TRISA1 = 1;
  9593  0033AC  8292               	bsf	146,1,c	;volatile
  9594  0033AE                     
  9595                           ;sensores.c: 95:     adc_init10Bits(1);
  9596  0033AE  0E00               	movlw	0
  9597  0033B0  6E04               	movwf	(adc_init10Bits@canal+1)^0,c
  9598  0033B2  0E01               	movlw	1
  9599  0033B4  6E03               	movwf	adc_init10Bits@canal^0,c
  9600  0033B6  EC83  F020         	call	_adc_init10Bits	;wreg free
  9601  0033BA                     
  9602                           ;sensores.c: 97:     val_intensidad = adc_read10Bits();
  9603  0033BA  ECA3  F01F         	call	_adc_read10Bits	;wreg free
  9604  0033BE  C001  F1F8         	movff	?_adc_read10Bits,_val_intensidad
  9605  0033C2  C002  F1F9         	movff	?_adc_read10Bits+1,_val_intensidad+1
  9606  0033C6                     
  9607                           ;sensores.c: 98:     val_intensidad = (val_intensidad * 5) / 1024;
  9608  0033C6  C1F8  F001         	movff	_val_intensidad,___wmul@multiplier
  9609  0033CA  C1F9  F002         	movff	_val_intensidad+1,___wmul@multiplier+1
  9610  0033CE  0E00               	movlw	0
  9611  0033D0  6E04               	movwf	(___wmul@multiplicand+1)^0,c
  9612  0033D2  0E05               	movlw	5
  9613  0033D4  6E03               	movwf	___wmul@multiplicand^0,c
  9614  0033D6  ECE3  F01F         	call	___wmul	;wreg free
  9615  0033DA  0E0A               	movlw	10
  9616  0033DC  6E10               	movwf	??_sensor_luz^0,c
  9617  0033DE                     u4565:
  9618  0033DE  90D8               	bcf	status,0,c
  9619  0033E0  3202               	rrcf	(?___wmul+1)^0,f,c
  9620  0033E2  3201               	rrcf	?___wmul^0,f,c
  9621  0033E4  2E10               	decfsz	??_sensor_luz^0,f,c
  9622  0033E6  EFEF  F019         	goto	u4565
  9623  0033EA  C001  F1F8         	movff	?___wmul,_val_intensidad
  9624  0033EE  C002  F1F9         	movff	?___wmul+1,_val_intensidad+1
  9625  0033F2                     
  9626                           ;sensores.c: 99:     val_luminosidad = (val_intensidad * 100) / 5;
  9627  0033F2  C1F8  F001         	movff	_val_intensidad,___wmul@multiplier
  9628  0033F6  C1F9  F002         	movff	_val_intensidad+1,___wmul@multiplier+1
  9629  0033FA  0E00               	movlw	0
  9630  0033FC  6E04               	movwf	(___wmul@multiplicand+1)^0,c
  9631  0033FE  0E64               	movlw	100
  9632  003400  6E03               	movwf	___wmul@multiplicand^0,c
  9633  003402  ECE3  F01F         	call	___wmul	;wreg free
  9634  003406  C001  F007         	movff	?___wmul,___lwdiv@dividend
  9635  00340A  C002  F008         	movff	?___wmul+1,___lwdiv@dividend+1
  9636  00340E  0E00               	movlw	0
  9637  003410  6E0A               	movwf	(___lwdiv@divisor+1)^0,c
  9638  003412  0E05               	movlw	5
  9639  003414  6E09               	movwf	___lwdiv@divisor^0,c
  9640  003416  ECD0  F01A         	call	___lwdiv	;wreg free
  9641  00341A  C007  F1F6         	movff	?___lwdiv,_val_luminosidad
  9642  00341E  C008  F1F7         	movff	?___lwdiv+1,_val_luminosidad+1
  9643  003422                     
  9644                           ;sensores.c: 101:     return val_luminosidad;
  9645  003422  C1F6  F00E         	movff	_val_luminosidad,?_sensor_luz
  9646  003426  C1F7  F00F         	movff	_val_luminosidad+1,?_sensor_luz+1
  9647  00342A  0012               	return		;funcret
  9648  00342C                     __end_of_sensor_luz:
  9649                           	callstack 0
  9650                           
  9651 ;; *************** function _adc_read10Bits *****************
  9652 ;; Defined at:
  9653 ;;		line 54 in file "adc_lib.c"
  9654 ;; Parameters:    Size  Location     Type
  9655 ;;		None
  9656 ;; Auto vars:     Size  Location     Type
  9657 ;;  value_adc       2    4[COMRAM] unsigned int 
  9658 ;; Return value:  Size  Location     Type
  9659 ;;                  2    0[COMRAM] unsigned int 
  9660 ;; Registers used:
  9661 ;;		wreg, status,2
  9662 ;; Tracked objects:
  9663 ;;		On entry : 0/0
  9664 ;;		On exit  : 0/0
  9665 ;;		Unchanged: 0/0
  9666 ;; Data sizes:     COMRAM   BANK0   BANK1   BANK2   BANK3   BANK4   BANK5   BANK6   BANK7
  9667 ;;      Params:         2       0       0       0       0       0       0       0       0
  9668 ;;      Locals:         2       0       0       0       0       0       0       0       0
  9669 ;;      Temps:          2       0       0       0       0       0       0       0       0
  9670 ;;      Totals:         6       0       0       0       0       0       0       0       0
  9671 ;;Total ram usage:        6 bytes
  9672 ;; Hardware stack levels used: 1
  9673 ;; This function calls:
  9674 ;;		Nothing
  9675 ;; This function is called by:
  9676 ;;		_sensor_temperatura
  9677 ;;		_sensor_luz
  9678 ;; This function uses a non-reentrant model
  9679 ;;
  9680                           
  9681                           	psect	text64
  9682  003F46                     __ptext64:
  9683                           	callstack 0
  9684  003F46                     _adc_read10Bits:
  9685                           	callstack 27
  9686  003F46                     
  9687                           ;adc_lib.c: 56:     ADCON0bits.GO_DONE = 1;
  9688  003F46  82C2               	bsf	194,1,c	;volatile
  9689  003F48                     l185:
  9690  003F48  B2C2               	btfsc	194,1,c	;volatile
  9691  003F4A  EFA9  F01F         	goto	u3881
  9692  003F4E  EFAB  F01F         	goto	u3880
  9693  003F52                     u3881:
  9694  003F52  EFA4  F01F         	goto	l185
  9695  003F56                     u3880:
  9696  003F56                     
  9697                           ;adc_lib.c: 58:     value_adc = ADRESH;
  9698  003F56  CFC4 F005          	movff	4036,adc_read10Bits@value_adc	;volatile
  9699  003F5A  6A06               	clrf	(adc_read10Bits@value_adc+1)^0,c
  9700  003F5C                     
  9701                           ;adc_lib.c: 59:     value_adc = (value_adc << 8) + ADRESL;
  9702  003F5C  5005               	movf	adc_read10Bits@value_adc^0,w,c
  9703  003F5E  6E03               	movwf	??_adc_read10Bits^0,c
  9704  003F60  50C3               	movf	195,w,c	;volatile
  9705  003F62  6E05               	movwf	adc_read10Bits@value_adc^0,c
  9706  003F64  C003  F006         	movff	??_adc_read10Bits,adc_read10Bits@value_adc+1
  9707  003F68                     
  9708                           ;adc_lib.c: 60:     return value_adc;
  9709  003F68  C005  F001         	movff	adc_read10Bits@value_adc,?_adc_read10Bits
  9710  003F6C  C006  F002         	movff	adc_read10Bits@value_adc+1,?_adc_read10Bits+1
  9711  003F70  0012               	return		;funcret
  9712  003F72                     __end_of_adc_read10Bits:
  9713                           	callstack 0
  9714                           
  9715 ;; *************** function _adc_init10Bits *****************
  9716 ;; Defined at:
  9717 ;;		line 43 in file "adc_lib.c"
  9718 ;; Parameters:    Size  Location     Type
  9719 ;;  canal           2    2[COMRAM] int 
  9720 ;; Auto vars:     Size  Location     Type
  9721 ;;		None
  9722 ;; Return value:  Size  Location     Type
  9723 ;;                  1    wreg      void 
  9724 ;; Registers used:
  9725 ;;		wreg, status,2, status,0, cstack
  9726 ;; Tracked objects:
  9727 ;;		On entry : 0/0
  9728 ;;		On exit  : 0/0
  9729 ;;		Unchanged: 0/0
  9730 ;; Data sizes:     COMRAM   BANK0   BANK1   BANK2   BANK3   BANK4   BANK5   BANK6   BANK7
  9731 ;;      Params:         2       0       0       0       0       0       0       0       0
  9732 ;;      Locals:         0       0       0       0       0       0       0       0       0
  9733 ;;      Temps:          0       0       0       0       0       0       0       0       0
  9734 ;;      Totals:         2       0       0       0       0       0       0       0       0
  9735 ;;Total ram usage:        2 bytes
  9736 ;; Hardware stack levels used: 1
  9737 ;; Hardware stack levels required when called: 1
  9738 ;; This function calls:
  9739 ;;		_adc_config
  9740 ;; This function is called by:
  9741 ;;		_sensor_temperatura
  9742 ;;		_sensor_luz
  9743 ;; This function uses a non-reentrant model
  9744 ;;
  9745                           
  9746                           	psect	text65
  9747  004106                     __ptext65:
  9748                           	callstack 0
  9749  004106                     _adc_init10Bits:
  9750                           	callstack 26
  9751  004106                     
  9752                           ;adc_lib.c: 45:     adc_config(canal);
  9753  004106  C003  F001         	movff	adc_init10Bits@canal,adc_config@canal
  9754  00410A  C004  F002         	movff	adc_init10Bits@canal+1,adc_config@canal+1
  9755  00410E  ECA1  F01D         	call	_adc_config	;wreg free
  9756  004112                     
  9757                           ;adc_lib.c: 46:     ADCON2bits.ADFM = 1;
  9758  004112  8EC0               	bsf	192,7,c	;volatile
  9759  004114  0012               	return		;funcret
  9760  004116                     __end_of_adc_init10Bits:
  9761                           	callstack 0
  9762                           
  9763 ;; *************** function _adc_config *****************
  9764 ;; Defined at:
  9765 ;;		line 28 in file "adc_lib.c"
  9766 ;; Parameters:    Size  Location     Type
  9767 ;;  canal           2    0[COMRAM] int 
  9768 ;; Auto vars:     Size  Location     Type
  9769 ;;		None
  9770 ;; Return value:  Size  Location     Type
  9771 ;;                  1    wreg      void 
  9772 ;; Registers used:
  9773 ;;		wreg, status,2, status,0
  9774 ;; Tracked objects:
  9775 ;;		On entry : 0/0
  9776 ;;		On exit  : 0/0
  9777 ;;		Unchanged: 0/0
  9778 ;; Data sizes:     COMRAM   BANK0   BANK1   BANK2   BANK3   BANK4   BANK5   BANK6   BANK7
  9779 ;;      Params:         2       0       0       0       0       0       0       0       0
  9780 ;;      Locals:         0       0       0       0       0       0       0       0       0
  9781 ;;      Temps:          0       0       0       0       0       0       0       0       0
  9782 ;;      Totals:         2       0       0       0       0       0       0       0       0
  9783 ;;Total ram usage:        2 bytes
  9784 ;; Hardware stack levels used: 1
  9785 ;; This function calls:
  9786 ;;		Nothing
  9787 ;; This function is called by:
  9788 ;;		_adc_init10Bits
  9789 ;; This function uses a non-reentrant model
  9790 ;;
  9791                           
  9792                           	psect	text66
  9793  003B42                     __ptext66:
  9794                           	callstack 0
  9795  003B42                     _adc_config:
  9796                           	callstack 26
  9797  003B42                     
  9798                           ;adc_lib.c: 29:     ADCON1bits.PCFG = 0b1101;
  9799  003B42  50C1               	movf	193,w,c	;volatile
  9800  003B44  0BF0               	andlw	-16
  9801  003B46  090D               	iorlw	13
  9802  003B48  6EC1               	movwf	193,c	;volatile
  9803                           
  9804                           ;adc_lib.c: 30:     ADCON1bits.VCFG = 0b00;
  9805  003B4A  0ECF               	movlw	-49
  9806  003B4C  16C1               	andwf	193,f,c	;volatile
  9807  003B4E                     
  9808                           ;adc_lib.c: 31:     if(canal == 0) { ADCON0bits.CHS = 0b0000; } else{ ADCON0bits.CHS = 0
      +                          b0001;};
  9809  003B4E  5001               	movf	adc_config@canal^0,w,c
  9810  003B50  1002               	iorwf	(adc_config@canal+1)^0,w,c
  9811  003B52  A4D8               	btfss	status,2,c
  9812  003B54  EFAE  F01D         	goto	u3821
  9813  003B58  EFB0  F01D         	goto	u3820
  9814  003B5C                     u3821:
  9815  003B5C  EFB4  F01D         	goto	l4034
  9816  003B60                     u3820:
  9817  003B60  0EC3               	movlw	-61
  9818  003B62  16C2               	andwf	194,f,c	;volatile
  9819  003B64  EFB8  F01D         	goto	l178
  9820  003B68                     l4034:
  9821  003B68  50C2               	movf	194,w,c	;volatile
  9822  003B6A  0BC3               	andlw	-61
  9823  003B6C  0904               	iorlw	4
  9824  003B6E  6EC2               	movwf	194,c	;volatile
  9825  003B70                     l178:
  9826                           
  9827                           ;adc_lib.c: 32:     ADCON2bits.ACQT = 0b010;
  9828  003B70  50C0               	movf	192,w,c	;volatile
  9829  003B72  0BC7               	andlw	-57
  9830  003B74  0910               	iorlw	16
  9831  003B76  6EC0               	movwf	192,c	;volatile
  9832                           
  9833                           ;adc_lib.c: 33:     ADCON2bits.ADCS = 0b001;
  9834  003B78  50C0               	movf	192,w,c	;volatile
  9835  003B7A  0BF8               	andlw	-8
  9836  003B7C  0901               	iorlw	1
  9837  003B7E  6EC0               	movwf	192,c	;volatile
  9838  003B80                     
  9839                           ;adc_lib.c: 34:     ADCON0bits.ADON = 1;
  9840  003B80  80C2               	bsf	194,0,c	;volatile
  9841  003B82  0012               	return		;funcret
  9842  003B84                     __end_of_adc_config:
  9843                           	callstack 0
  9844                           
  9845 ;; *************** function ___wmul *****************
  9846 ;; Defined at:
  9847 ;;		line 15 in file "D:\mplab\pic\sources\c99\common\Umul16.c"
  9848 ;; Parameters:    Size  Location     Type
  9849 ;;  multiplier      2    0[COMRAM] unsigned int 
  9850 ;;  multiplicand    2    2[COMRAM] unsigned int 
  9851 ;; Auto vars:     Size  Location     Type
  9852 ;;  product         2    4[COMRAM] unsigned int 
  9853 ;; Return value:  Size  Location     Type
  9854 ;;                  2    0[COMRAM] unsigned int 
  9855 ;; Registers used:
  9856 ;;		wreg, status,2, status,0, prodl, prodh
  9857 ;; Tracked objects:
  9858 ;;		On entry : 0/0
  9859 ;;		On exit  : 0/0
  9860 ;;		Unchanged: 0/0
  9861 ;; Data sizes:     COMRAM   BANK0   BANK1   BANK2   BANK3   BANK4   BANK5   BANK6   BANK7
  9862 ;;      Params:         4       0       0       0       0       0       0       0       0
  9863 ;;      Locals:         2       0       0       0       0       0       0       0       0
  9864 ;;      Temps:          0       0       0       0       0       0       0       0       0
  9865 ;;      Totals:         6       0       0       0       0       0       0       0       0
  9866 ;;Total ram usage:        6 bytes
  9867 ;; Hardware stack levels used: 1
  9868 ;; This function calls:
  9869 ;;		Nothing
  9870 ;; This function is called by:
  9871 ;;		_sensor_luz
  9872 ;; This function uses a non-reentrant model
  9873 ;;
  9874                           
  9875                           	psect	text67
  9876  003FC6                     __ptext67:
  9877                           	callstack 0
  9878  003FC6                     ___wmul:
  9879                           	callstack 27
  9880  003FC6  5001               	movf	___wmul@multiplier^0,w,c
  9881  003FC8  0203               	mulwf	___wmul@multiplicand^0,c
  9882  003FCA  CFF3 F005          	movff	prodl,___wmul@product
  9883  003FCE  CFF4 F006          	movff	prodh,___wmul@product+1
  9884  003FD2  5001               	movf	___wmul@multiplier^0,w,c
  9885  003FD4  0204               	mulwf	(___wmul@multiplicand+1)^0,c
  9886  003FD6  50F3               	movf	243,w,c
  9887  003FD8  2606               	addwf	(___wmul@product+1)^0,f,c
  9888  003FDA  5002               	movf	(___wmul@multiplier+1)^0,w,c
  9889  003FDC  0203               	mulwf	___wmul@multiplicand^0,c
  9890  003FDE  50F3               	movf	243,w,c
  9891  003FE0  2606               	addwf	(___wmul@product+1)^0,f,c
  9892  003FE2  C005  F001         	movff	___wmul@product,?___wmul
  9893  003FE6  C006  F002         	movff	___wmul@product+1,?___wmul+1
  9894  003FEA  0012               	return		;funcret
  9895  003FEC                     __end_of___wmul:
  9896                           	callstack 0
  9897                           
  9898 ;; *************** function ___lwdiv *****************
  9899 ;; Defined at:
  9900 ;;		line 7 in file "D:\mplab\pic\sources\c99\common\lwdiv.c"
  9901 ;; Parameters:    Size  Location     Type
  9902 ;;  dividend        2    6[COMRAM] unsigned int 
  9903 ;;  divisor         2    8[COMRAM] unsigned int 
  9904 ;; Auto vars:     Size  Location     Type
  9905 ;;  quotient        2   10[COMRAM] unsigned int 
  9906 ;;  counter         1   12[COMRAM] unsigned char 
  9907 ;; Return value:  Size  Location     Type
  9908 ;;                  2    6[COMRAM] unsigned int 
  9909 ;; Registers used:
  9910 ;;		wreg, status,2, status,0
  9911 ;; Tracked objects:
  9912 ;;		On entry : 0/0
  9913 ;;		On exit  : 0/0
  9914 ;;		Unchanged: 0/0
  9915 ;; Data sizes:     COMRAM   BANK0   BANK1   BANK2   BANK3   BANK4   BANK5   BANK6   BANK7
  9916 ;;      Params:         4       0       0       0       0       0       0       0       0
  9917 ;;      Locals:         3       0       0       0       0       0       0       0       0
  9918 ;;      Temps:          0       0       0       0       0       0       0       0       0
  9919 ;;      Totals:         7       0       0       0       0       0       0       0       0
  9920 ;;Total ram usage:        7 bytes
  9921 ;; Hardware stack levels used: 1
  9922 ;; This function calls:
  9923 ;;		Nothing
  9924 ;; This function is called by:
  9925 ;;		_sensor_luz
  9926 ;; This function uses a non-reentrant model
  9927 ;;
  9928                           
  9929                           	psect	text68
  9930  0035A0                     __ptext68:
  9931                           	callstack 0
  9932  0035A0                     ___lwdiv:
  9933                           	callstack 27
  9934  0035A0  0E00               	movlw	0
  9935  0035A2  6E0C               	movwf	(___lwdiv@quotient+1)^0,c
  9936  0035A4  0E00               	movlw	0
  9937  0035A6  6E0B               	movwf	___lwdiv@quotient^0,c
  9938  0035A8  5009               	movf	___lwdiv@divisor^0,w,c
  9939  0035AA  100A               	iorwf	(___lwdiv@divisor+1)^0,w,c
  9940  0035AC  B4D8               	btfsc	status,2,c
  9941  0035AE  EFDB  F01A         	goto	u4391
  9942  0035B2  EFDD  F01A         	goto	u4390
  9943  0035B6                     u4391:
  9944  0035B6  EF05  F01B         	goto	l1198
  9945  0035BA                     u4390:
  9946  0035BA  0E01               	movlw	1
  9947  0035BC  6E0D               	movwf	___lwdiv@counter^0,c
  9948  0035BE  EFE5  F01A         	goto	l4458
  9949  0035C2                     l4456:
  9950  0035C2  90D8               	bcf	status,0,c
  9951  0035C4  3609               	rlcf	___lwdiv@divisor^0,f,c
  9952  0035C6  360A               	rlcf	(___lwdiv@divisor+1)^0,f,c
  9953  0035C8  2A0D               	incf	___lwdiv@counter^0,f,c
  9954  0035CA                     l4458:
  9955  0035CA  AE0A               	btfss	(___lwdiv@divisor+1)^0,7,c
  9956  0035CC  EFEA  F01A         	goto	u4401
  9957  0035D0  EFEC  F01A         	goto	u4400
  9958  0035D4                     u4401:
  9959  0035D4  EFE1  F01A         	goto	l4456
  9960  0035D8                     u4400:
  9961  0035D8                     l4460:
  9962  0035D8  90D8               	bcf	status,0,c
  9963  0035DA  360B               	rlcf	___lwdiv@quotient^0,f,c
  9964  0035DC  360C               	rlcf	(___lwdiv@quotient+1)^0,f,c
  9965  0035DE  5009               	movf	___lwdiv@divisor^0,w,c
  9966  0035E0  5C07               	subwf	___lwdiv@dividend^0,w,c
  9967  0035E2  500A               	movf	(___lwdiv@divisor+1)^0,w,c
  9968  0035E4  5808               	subwfb	(___lwdiv@dividend+1)^0,w,c
  9969  0035E6  A0D8               	btfss	status,0,c
  9970  0035E8  EFF8  F01A         	goto	u4411
  9971  0035EC  EFFA  F01A         	goto	u4410
  9972  0035F0                     u4411:
  9973  0035F0  EFFF  F01A         	goto	l4468
  9974  0035F4                     u4410:
  9975  0035F4  5009               	movf	___lwdiv@divisor^0,w,c
  9976  0035F6  5E07               	subwf	___lwdiv@dividend^0,f,c
  9977  0035F8  500A               	movf	(___lwdiv@divisor+1)^0,w,c
  9978  0035FA  5A08               	subwfb	(___lwdiv@dividend+1)^0,f,c
  9979  0035FC  800B               	bsf	___lwdiv@quotient^0,0,c
  9980  0035FE                     l4468:
  9981  0035FE  90D8               	bcf	status,0,c
  9982  003600  320A               	rrcf	(___lwdiv@divisor+1)^0,f,c
  9983  003602  3209               	rrcf	___lwdiv@divisor^0,f,c
  9984  003604  2E0D               	decfsz	___lwdiv@counter^0,f,c
  9985  003606  EFEC  F01A         	goto	l4460
  9986  00360A                     l1198:
  9987  00360A  C00B  F007         	movff	___lwdiv@quotient,?___lwdiv
  9988  00360E  C00C  F008         	movff	___lwdiv@quotient+1,?___lwdiv+1
  9989  003612  0012               	return		;funcret
  9990  003614                     __end_of___lwdiv:
  9991                           	callstack 0
  9992                           
  9993 ;; *************** function _sensor_distancia *****************
  9994 ;; Defined at:
  9995 ;;		line 27 in file "sensores.c"
  9996 ;; Parameters:    Size  Location     Type
  9997 ;;		None
  9998 ;; Auto vars:     Size  Location     Type
  9999 ;;		None
 10000 ;; Return value:  Size  Location     Type
 10001 ;;                  2    4[COMRAM] int 
 10002 ;; Registers used:
 10003 ;;		wreg, status,2, status,0, cstack
 10004 ;; Tracked objects:
 10005 ;;		On entry : 0/0
 10006 ;;		On exit  : 0/0
 10007 ;;		Unchanged: 0/0
 10008 ;; Data sizes:     COMRAM   BANK0   BANK1   BANK2   BANK3   BANK4   BANK5   BANK6   BANK7
 10009 ;;      Params:         2       0       0       0       0       0       0       0       0
 10010 ;;      Locals:         0       0       0       0       0       0       0       0       0
 10011 ;;      Temps:          0       0       0       0       0       0       0       0       0
 10012 ;;      Totals:         2       0       0       0       0       0       0       0       0
 10013 ;;Total ram usage:        2 bytes
 10014 ;; Hardware stack levels used: 1
 10015 ;; Hardware stack levels required when called: 1
 10016 ;; This function calls:
 10017 ;;		_init_ports
 10018 ;;		_obtener_distancia
 10019 ;; This function is called by:
 10020 ;;		_establecer_valores
 10021 ;; This function uses a non-reentrant model
 10022 ;;
 10023                           
 10024                           	psect	text69
 10025  003216                     __ptext69:
 10026                           	callstack 0
 10027  003216                     _sensor_distancia:
 10028                           	callstack 27
 10029  003216                     
 10030                           ;sensores.c: 28:     init_ports();
 10031  003216  EC8B  F020         	call	_init_ports	;wreg free
 10032  00321A                     
 10033                           ;sensores.c: 29:     val_distancia = obtener_distancia();
 10034  00321A  EC13  F01D         	call	_obtener_distancia	;wreg free
 10035  00321E  C001  F0F7         	movff	?_obtener_distancia,_val_distancia
 10036  003222  C002  F0F8         	movff	?_obtener_distancia+1,_val_distancia+1
 10037  003226                     
 10038                           ;sensores.c: 30:     if (val_distancia <= 38 && val_distancia > 12)
 10039  003226  0100               	movlb	0	; () banked
 10040  003228  51F8               	movf	(_val_distancia+1)& (0+255),w,b
 10041  00322A  E107               	bnz	u4521
 10042  00322C  0E27               	movlw	39
 10043  00322E  5DF7               	subwf	_val_distancia& (0+255),w,b
 10044  003230  B0D8               	btfsc	status,0,c
 10045  003232  EF1D  F019         	goto	u4521
 10046  003236  EF1F  F019         	goto	u4520
 10047  00323A                     u4521:
 10048  00323A  EF30  F019         	goto	l4544
 10049  00323E                     u4520:
 10050  00323E                     
 10051                           ; BSR set to: 0
 10052  00323E  51F8               	movf	(_val_distancia+1)& (0+255),w,b
 10053  003240  E109               	bnz	u4530
 10054  003242  0E0D               	movlw	13
 10055  003244  5DF7               	subwf	_val_distancia& (0+255),w,b
 10056  003246  A0D8               	btfss	status,0,c
 10057  003248  EF28  F019         	goto	u4531
 10058  00324C  EF2A  F019         	goto	u4530
 10059  003250                     u4531:
 10060  003250  EF30  F019         	goto	l4544
 10061  003254                     u4530:
 10062  003254                     
 10063                           ; BSR set to: 0
 10064                           ;sensores.c: 31:         val_distancia += 2;
 10065  003254  0E02               	movlw	2
 10066  003256  27F7               	addwf	_val_distancia& (0+255),f,b
 10067  003258  0E00               	movlw	0
 10068  00325A  23F8               	addwfc	(_val_distancia+1)& (0+255),f,b
 10069  00325C  EF4F  F019         	goto	l4552
 10070  003260                     l4544:
 10071                           
 10072                           ; BSR set to: 0
 10073  003260  51F8               	movf	(_val_distancia+1)& (0+255),w,b
 10074  003262  E109               	bnz	u4540
 10075  003264  0E27               	movlw	39
 10076  003266  5DF7               	subwf	_val_distancia& (0+255),w,b
 10077  003268  A0D8               	btfss	status,0,c
 10078  00326A  EF39  F019         	goto	u4541
 10079  00326E  EF3B  F019         	goto	u4540
 10080  003272                     u4541:
 10081  003272  EF41  F019         	goto	l4548
 10082  003276                     u4540:
 10083  003276                     
 10084                           ; BSR set to: 0
 10085                           ;sensores.c: 33:         val_distancia += 3;
 10086  003276  0E03               	movlw	3
 10087  003278  27F7               	addwf	_val_distancia& (0+255),f,b
 10088  00327A  0E00               	movlw	0
 10089  00327C  23F8               	addwfc	(_val_distancia+1)& (0+255),f,b
 10090  00327E  EF4F  F019         	goto	l4552
 10091  003282                     l4548:
 10092                           
 10093                           ; BSR set to: 0
 10094  003282  51F8               	movf	(_val_distancia+1)& (0+255),w,b
 10095  003284  E107               	bnz	u4551
 10096  003286  0E0D               	movlw	13
 10097  003288  5DF7               	subwf	_val_distancia& (0+255),w,b
 10098  00328A  B0D8               	btfsc	status,0,c
 10099  00328C  EF4A  F019         	goto	u4551
 10100  003290  EF4C  F019         	goto	u4550
 10101  003294                     u4551:
 10102  003294  EF4F  F019         	goto	l4552
 10103  003298                     u4550:
 10104  003298                     
 10105                           ; BSR set to: 0
 10106                           ;sensores.c: 35:         val_distancia--;
 10107  003298  07F7               	decf	_val_distancia& (0+255),f,b
 10108  00329A  A0D8               	btfss	status,0,c
 10109  00329C  07F8               	decf	(_val_distancia+1)& (0+255),f,b
 10110  00329E                     l4552:
 10111                           
 10112                           ; BSR set to: 0
 10113                           ;sensores.c: 36:     return (int) val_distancia;
 10114  00329E  C0F7  F005         	movff	_val_distancia,?_sensor_distancia
 10115  0032A2  C0F8  F006         	movff	_val_distancia+1,?_sensor_distancia+1
 10116  0032A6                     
 10117                           ; BSR set to: 0
 10118  0032A6  0012               	return		;funcret
 10119  0032A8                     __end_of_sensor_distancia:
 10120                           	callstack 0
 10121                           
 10122 ;; *************** function _obtener_distancia *****************
 10123 ;; Defined at:
 10124 ;;		line 57 in file "sensores.c"
 10125 ;; Parameters:    Size  Location     Type
 10126 ;;		None
 10127 ;; Auto vars:     Size  Location     Type
 10128 ;;  cm              2    2[COMRAM] unsigned int 
 10129 ;; Return value:  Size  Location     Type
 10130 ;;                  2    0[COMRAM] unsigned int 
 10131 ;; Registers used:
 10132 ;;		wreg, status,2, status,0
 10133 ;; Tracked objects:
 10134 ;;		On entry : 0/0
 10135 ;;		On exit  : 0/0
 10136 ;;		Unchanged: 0/0
 10137 ;; Data sizes:     COMRAM   BANK0   BANK1   BANK2   BANK3   BANK4   BANK5   BANK6   BANK7
 10138 ;;      Params:         2       0       0       0       0       0       0       0       0
 10139 ;;      Locals:         2       0       0       0       0       0       0       0       0
 10140 ;;      Temps:          0       0       0       0       0       0       0       0       0
 10141 ;;      Totals:         4       0       0       0       0       0       0       0       0
 10142 ;;Total ram usage:        4 bytes
 10143 ;; Hardware stack levels used: 1
 10144 ;; This function calls:
 10145 ;;		Nothing
 10146 ;; This function is called by:
 10147 ;;		_sensor_distancia
 10148 ;; This function uses a non-reentrant model
 10149 ;;
 10150                           
 10151                           	psect	text70
 10152  003A26                     __ptext70:
 10153                           	callstack 0
 10154  003A26                     _obtener_distancia:
 10155                           	callstack 27
 10156  003A26                     
 10157                           ;sensores.c: 58:     unsigned int cm = 0;
 10158  003A26  0E00               	movlw	0
 10159  003A28  6E04               	movwf	(obtener_distancia@cm+1)^0,c
 10160  003A2A  0E00               	movlw	0
 10161  003A2C  6E03               	movwf	obtener_distancia@cm^0,c
 10162  003A2E                     
 10163                           ;sensores.c: 59:     LATCbits.LATC0 = 1;
 10164  003A2E  808B               	bsf	139,0,c	;volatile
 10165  003A30                     
 10166                           ;sensores.c: 60:     _delay((unsigned long)((10)*(8000000/4000000.0)));
 10167  003A30  0E06               	movlw	6
 10168  003A32                     u5797:
 10169  003A32  2EE8               	decfsz	wreg,f,c
 10170  003A34  D7FE               	bra	u5797
 10171  003A36  D000               	nop2	
 10172  003A38                     
 10173                           ;sensores.c: 61:     LATCbits.LATC0 = 0;
 10174  003A38  908B               	bcf	139,0,c	;volatile
 10175  003A3A                     l283:
 10176                           
 10177                           ;sensores.c: 62:     while (PORTCbits.RC1 == 0) {
 10178  003A3A  A282               	btfss	130,1,c	;volatile
 10179  003A3C  EF22  F01D         	goto	u3901
 10180  003A40  EF24  F01D         	goto	u3900
 10181  003A44                     u3901:
 10182  003A44  EF1D  F01D         	goto	l283
 10183  003A48                     u3900:
 10184  003A48  EF2C  F01D         	goto	l4130
 10185  003A4C                     l4126:
 10186                           
 10187                           ;sensores.c: 65:         cm++;
 10188  003A4C  4A03               	infsnz	obtener_distancia@cm^0,f,c
 10189  003A4E  2A04               	incf	(obtener_distancia@cm+1)^0,f,c
 10190  003A50                     
 10191                           ;sensores.c: 66:         _delay((unsigned long)((58)*(8000000/4000000.0)));
 10192  003A50  0E26               	movlw	38
 10193  003A52                     u5807:
 10194  003A52  2EE8               	decfsz	wreg,f,c
 10195  003A54  D7FE               	bra	u5807
 10196  003A56  D000               	nop2	
 10197  003A58                     l4130:
 10198                           
 10199                           ;sensores.c: 64:     while (PORTCbits.RC1 == 1) {
 10200  003A58  B282               	btfsc	130,1,c	;volatile
 10201  003A5A  EF31  F01D         	goto	u3911
 10202  003A5E  EF33  F01D         	goto	u3910
 10203  003A62                     u3911:
 10204  003A62  EF26  F01D         	goto	l4126
 10205  003A66                     u3910:
 10206  003A66                     
 10207                           ;sensores.c: 68:     return cm;
 10208  003A66  C003  F001         	movff	obtener_distancia@cm,?_obtener_distancia
 10209  003A6A  C004  F002         	movff	obtener_distancia@cm+1,?_obtener_distancia+1
 10210  003A6E  0012               	return		;funcret
 10211  003A70                     __end_of_obtener_distancia:
 10212                           	callstack 0
 10213                           
 10214 ;; *************** function _init_ports *****************
 10215 ;; Defined at:
 10216 ;;		line 44 in file "sensores.c"
 10217 ;; Parameters:    Size  Location     Type
 10218 ;;		None
 10219 ;; Auto vars:     Size  Location     Type
 10220 ;;		None
 10221 ;; Return value:  Size  Location     Type
 10222 ;;                  1    wreg      void 
 10223 ;; Registers used:
 10224 ;;		wreg, status,2
 10225 ;; Tracked objects:
 10226 ;;		On entry : 0/0
 10227 ;;		On exit  : 0/0
 10228 ;;		Unchanged: 0/0
 10229 ;; Data sizes:     COMRAM   BANK0   BANK1   BANK2   BANK3   BANK4   BANK5   BANK6   BANK7
 10230 ;;      Params:         0       0       0       0       0       0       0       0       0
 10231 ;;      Locals:         0       0       0       0       0       0       0       0       0
 10232 ;;      Temps:          0       0       0       0       0       0       0       0       0
 10233 ;;      Totals:         0       0       0       0       0       0       0       0       0
 10234 ;;Total ram usage:        0 bytes
 10235 ;; Hardware stack levels used: 1
 10236 ;; This function calls:
 10237 ;;		Nothing
 10238 ;; This function is called by:
 10239 ;;		_sensor_distancia
 10240 ;; This function uses a non-reentrant model
 10241 ;;
 10242                           
 10243                           	psect	text71
 10244  004116                     __ptext71:
 10245                           	callstack 0
 10246  004116                     _init_ports:
 10247                           	callstack 27
 10248  004116                     
 10249                           ;sensores.c: 45:     ADCON1bits.PCFG = 0xF;
 10250  004116  0E0F               	movlw	15
 10251  004118  12C1               	iorwf	193,f,c	;volatile
 10252  00411A                     
 10253                           ;sensores.c: 46:     LATCbits.LATC1 = 0;
 10254  00411A  928B               	bcf	139,1,c	;volatile
 10255  00411C                     
 10256                           ;sensores.c: 47:     LATCbits.LATC0 = 0;
 10257  00411C  908B               	bcf	139,0,c	;volatile
 10258  00411E                     
 10259                           ;sensores.c: 48:     TRISCbits.RC1 = 1;
 10260  00411E  8294               	bsf	148,1,c	;volatile
 10261  004120                     
 10262                           ;sensores.c: 49:     TRISCbits.RC0 = 0;
 10263  004120  9094               	bcf	148,0,c	;volatile
 10264  004122  0012               	return		;funcret
 10265  004124                     __end_of_init_ports:
 10266                           	callstack 0
 10267                           
 10268 ;; *************** function _encender_leds *****************
 10269 ;; Defined at:
 10270 ;;		line 46 in file "Leds.c"
 10271 ;; Parameters:    Size  Location     Type
 10272 ;;  valor           2  141[BANK0 ] int 
 10273 ;; Auto vars:     Size  Location     Type
 10274 ;;		None
 10275 ;; Return value:  Size  Location     Type
 10276 ;;                  1    wreg      void 
 10277 ;; Registers used:
 10278 ;;		wreg, status,2, status,0
 10279 ;; Tracked objects:
 10280 ;;		On entry : 0/0
 10281 ;;		On exit  : 0/0
 10282 ;;		Unchanged: 0/0
 10283 ;; Data sizes:     COMRAM   BANK0   BANK1   BANK2   BANK3   BANK4   BANK5   BANK6   BANK7
 10284 ;;      Params:         0       2       0       0       0       0       0       0       0
 10285 ;;      Locals:         0       0       0       0       0       0       0       0       0
 10286 ;;      Temps:          0       0       0       0       0       0       0       0       0
 10287 ;;      Totals:         0       2       0       0       0       0       0       0       0
 10288 ;;Total ram usage:        2 bytes
 10289 ;; Hardware stack levels used: 1
 10290 ;; This function calls:
 10291 ;;		Nothing
 10292 ;; This function is called by:
 10293 ;;		_establecer_valores
 10294 ;; This function uses a non-reentrant model
 10295 ;;
 10296                           
 10297                           	psect	text72
 10298  00332A                     __ptext72:
 10299                           	callstack 0
 10300  00332A                     _encender_leds:
 10301                           	callstack 28
 10302  00332A                     
 10303                           ;Leds.c: 48:     if (valor == 0) {
 10304  00332A  0100               	movlb	0	; () banked
 10305  00332C  51ED               	movf	encender_leds@valor& (0+255),w,b
 10306  00332E  11EE               	iorwf	(encender_leds@valor+1)& (0+255),w,b
 10307  003330  A4D8               	btfss	status,2,c
 10308  003332  EF9D  F019         	goto	u4661
 10309  003336  EF9F  F019         	goto	u4660
 10310  00333A                     u4661:
 10311  00333A  EFA4  F019         	goto	l4636
 10312  00333E                     u4660:
 10313  00333E                     
 10314                           ; BSR set to: 0
 10315                           ;Leds.c: 49:         LATB5 = 1;
 10316  00333E  8A8A               	bsf	3978,5,c	;volatile
 10317                           
 10318                           ;Leds.c: 50:         LATB4 = 0;
 10319  003340  988A               	bcf	3978,4,c	;volatile
 10320                           
 10321                           ;Leds.c: 51:         LATB3 = 0;
 10322  003342  968A               	bcf	3978,3,c	;volatile
 10323                           
 10324                           ;Leds.c: 52:     } else if (valor == 1) {
 10325  003344  EFD5  F019         	goto	l371
 10326  003348                     l4636:
 10327                           
 10328                           ; BSR set to: 0
 10329  003348  05ED               	decf	encender_leds@valor& (0+255),w,b
 10330  00334A  11EE               	iorwf	(encender_leds@valor+1)& (0+255),w,b
 10331  00334C  A4D8               	btfss	status,2,c
 10332  00334E  EFAB  F019         	goto	u4671
 10333  003352  EFAD  F019         	goto	u4670
 10334  003356                     u4671:
 10335  003356  EFB2  F019         	goto	l4640
 10336  00335A                     u4670:
 10337  00335A                     
 10338                           ; BSR set to: 0
 10339                           ;Leds.c: 53:         LATB5 = 0;
 10340  00335A  9A8A               	bcf	3978,5,c	;volatile
 10341                           
 10342                           ;Leds.c: 54:         LATB4 = 1;
 10343  00335C  888A               	bsf	3978,4,c	;volatile
 10344                           
 10345                           ;Leds.c: 55:         LATB3 = 0;
 10346  00335E  968A               	bcf	3978,3,c	;volatile
 10347                           
 10348                           ;Leds.c: 56:     } else if (valor >= 1 && valor < 4) {
 10349  003360  EFD5  F019         	goto	l371
 10350  003364                     l4640:
 10351                           
 10352                           ; BSR set to: 0
 10353  003364  BFEE               	btfsc	(encender_leds@valor+1)& (0+255),7,b
 10354  003366  EFBD  F019         	goto	u4681
 10355  00336A  51EE               	movf	(encender_leds@valor+1)& (0+255),w,b
 10356  00336C  E108               	bnz	u4680
 10357  00336E  05ED               	decf	encender_leds@valor& (0+255),w,b
 10358  003370  A0D8               	btfss	status,0,c
 10359  003372  EFBD  F019         	goto	u4681
 10360  003376  EFBF  F019         	goto	u4680
 10361  00337A                     u4681:
 10362  00337A  EFD2  F019         	goto	l369
 10363  00337E                     u4680:
 10364  00337E                     
 10365                           ; BSR set to: 0
 10366  00337E  BFEE               	btfsc	(encender_leds@valor+1)& (0+255),7,b
 10367  003380  EFCD  F019         	goto	u4690
 10368  003384  51EE               	movf	(encender_leds@valor+1)& (0+255),w,b
 10369  003386  E107               	bnz	u4691
 10370  003388  0E04               	movlw	4
 10371  00338A  5DED               	subwf	encender_leds@valor& (0+255),w,b
 10372  00338C  B0D8               	btfsc	status,0,c
 10373  00338E  EFCB  F019         	goto	u4691
 10374  003392  EFCD  F019         	goto	u4690
 10375  003396                     u4691:
 10376  003396  EFD2  F019         	goto	l369
 10377  00339A                     u4690:
 10378  00339A                     
 10379                           ; BSR set to: 0
 10380                           ;Leds.c: 57:         LATB5 = 0;
 10381  00339A  9A8A               	bcf	3978,5,c	;volatile
 10382                           
 10383                           ;Leds.c: 58:         LATB4 = 0;
 10384  00339C  988A               	bcf	3978,4,c	;volatile
 10385                           
 10386                           ;Leds.c: 59:         LATB3 = 1;
 10387  00339E  868A               	bsf	3978,3,c	;volatile
 10388                           
 10389                           ;Leds.c: 60:     } else {
 10390  0033A0  EFD5  F019         	goto	l371
 10391  0033A4                     l369:
 10392                           
 10393                           ; BSR set to: 0
 10394                           ;Leds.c: 61:         LATB5 = 1;
 10395  0033A4  8A8A               	bsf	3978,5,c	;volatile
 10396                           
 10397                           ;Leds.c: 62:         LATB4 = 1;
 10398  0033A6  888A               	bsf	3978,4,c	;volatile
 10399                           
 10400                           ;Leds.c: 63:         LATB3 = 1;
 10401  0033A8  868A               	bsf	3978,3,c	;volatile
 10402  0033AA                     l371:
 10403                           
 10404                           ; BSR set to: 0
 10405  0033AA  0012               	return		;funcret
 10406  0033AC                     __end_of_encender_leds:
 10407                           	callstack 0
 10408                           
 10409 ;; *************** function _init_leds *****************
 10410 ;; Defined at:
 10411 ;;		line 32 in file "Leds.c"
 10412 ;; Parameters:    Size  Location     Type
 10413 ;;		None
 10414 ;; Auto vars:     Size  Location     Type
 10415 ;;		None
 10416 ;; Return value:  Size  Location     Type
 10417 ;;                  1    wreg      void 
 10418 ;; Registers used:
 10419 ;;		None
 10420 ;; Tracked objects:
 10421 ;;		On entry : 0/0
 10422 ;;		On exit  : 0/0
 10423 ;;		Unchanged: 0/0
 10424 ;; Data sizes:     COMRAM   BANK0   BANK1   BANK2   BANK3   BANK4   BANK5   BANK6   BANK7
 10425 ;;      Params:         0       0       0       0       0       0       0       0       0
 10426 ;;      Locals:         0       0       0       0       0       0       0       0       0
 10427 ;;      Temps:          0       0       0       0       0       0       0       0       0
 10428 ;;      Totals:         0       0       0       0       0       0       0       0       0
 10429 ;;Total ram usage:        0 bytes
 10430 ;; Hardware stack levels used: 1
 10431 ;; This function calls:
 10432 ;;		Nothing
 10433 ;; This function is called by:
 10434 ;;		_main
 10435 ;; This function uses a non-reentrant model
 10436 ;;
 10437                           
 10438                           	psect	text73
 10439  004124                     __ptext73:
 10440                           	callstack 0
 10441  004124                     _init_leds:
 10442                           	callstack 30
 10443  004124                     
 10444                           ;Leds.c: 34:     TRISB6 = 0;
 10445  004124  9C93               	bcf	3987,6,c	;volatile
 10446                           
 10447                           ;Leds.c: 35:     TRISB5 = 0;
 10448  004126  9A93               	bcf	3987,5,c	;volatile
 10449                           
 10450                           ;Leds.c: 36:     TRISB3 = 0;
 10451  004128  9693               	bcf	3987,3,c	;volatile
 10452                           
 10453                           ;Leds.c: 37:     TRISB4 = 0;
 10454  00412A  9893               	bcf	3987,4,c	;volatile
 10455  00412C  0012               	return		;funcret
 10456  00412E                     __end_of_init_leds:
 10457                           	callstack 0
 10458                           
 10459 ;; *************** function _iniciar_pic *****************
 10460 ;; Defined at:
 10461 ;;		line 110 in file "Principal.c"
 10462 ;; Parameters:    Size  Location     Type
 10463 ;;		None
 10464 ;; Auto vars:     Size  Location     Type
 10465 ;;		None
 10466 ;; Return value:  Size  Location     Type
 10467 ;;                  1    wreg      void 
 10468 ;; Registers used:
 10469 ;;		wreg, status,2, status,0, cstack
 10470 ;; Tracked objects:
 10471 ;;		On entry : 0/0
 10472 ;;		On exit  : 0/0
 10473 ;;		Unchanged: 0/0
 10474 ;; Data sizes:     COMRAM   BANK0   BANK1   BANK2   BANK3   BANK4   BANK5   BANK6   BANK7
 10475 ;;      Params:         0       0       0       0       0       0       0       0       0
 10476 ;;      Locals:         0       0       0       0       0       0       0       0       0
 10477 ;;      Temps:          0       0       0       0       0       0       0       0       0
 10478 ;;      Totals:         0       0       0       0       0       0       0       0       0
 10479 ;;Total ram usage:        0 bytes
 10480 ;; Hardware stack levels used: 1
 10481 ;; Hardware stack levels required when called: 3
 10482 ;; This function calls:
 10483 ;;		_init_rtc
 10484 ;;		_pines_ConfigurarHora
 10485 ;; This function is called by:
 10486 ;;		_main
 10487 ;; This function uses a non-reentrant model
 10488 ;;
 10489                           
 10490                           	psect	text74
 10491  00402C                     __ptext74:
 10492                           	callstack 0
 10493  00402C                     _iniciar_pic:
 10494                           	callstack 27
 10495  00402C                     
 10496                           ;Principal.c: 111:     OSCCONbits.IRCF = 0b111;
 10497  00402C  0E70               	movlw	112
 10498  00402E  12D3               	iorwf	211,f,c	;volatile
 10499                           
 10500                           ;Principal.c: 112:     OSCCONbits.SCS = 0b10;
 10501  004030  50D3               	movf	211,w,c	;volatile
 10502  004032  0BFC               	andlw	-4
 10503  004034  0902               	iorlw	2
 10504  004036  6ED3               	movwf	211,c	;volatile
 10505                           
 10506                           ;Principal.c: 113:     OSCCON = 0x72;
 10507  004038  0E72               	movlw	114
 10508  00403A  6ED3               	movwf	211,c	;volatile
 10509  00403C                     
 10510                           ;Principal.c: 114:     RBPU = 0;
 10511  00403C  9EF1               	bcf	4081,7,c	;volatile
 10512  00403E                     
 10513                           ;Principal.c: 115:     init_rtc();
 10514  00403E  EC9B  F020         	call	_init_rtc	;wreg free
 10515  004042                     
 10516                           ;Principal.c: 116:     pines_ConfigurarHora();
 10517  004042  EC7A  F020         	call	_pines_ConfigurarHora	;wreg free
 10518  004046                     
 10519                           ;Principal.c: 117:     TRISBbits.RB4 = 1;
 10520  004046  8893               	bsf	147,4,c	;volatile
 10521  004048  0012               	return		;funcret
 10522  00404A                     __end_of_iniciar_pic:
 10523                           	callstack 0
 10524                           
 10525 ;; *************** function _pines_ConfigurarHora *****************
 10526 ;; Defined at:
 10527 ;;		line 180 in file "RTC.c"
 10528 ;; Parameters:    Size  Location     Type
 10529 ;;		None
 10530 ;; Auto vars:     Size  Location     Type
 10531 ;;		None
 10532 ;; Return value:  Size  Location     Type
 10533 ;;                  1    wreg      void 
 10534 ;; Registers used:
 10535 ;;		wreg, status,2, status,0, cstack
 10536 ;; Tracked objects:
 10537 ;;		On entry : 0/0
 10538 ;;		On exit  : 0/0
 10539 ;;		Unchanged: 0/0
 10540 ;; Data sizes:     COMRAM   BANK0   BANK1   BANK2   BANK3   BANK4   BANK5   BANK6   BANK7
 10541 ;;      Params:         0       0       0       0       0       0       0       0       0
 10542 ;;      Locals:         0       0       0       0       0       0       0       0       0
 10543 ;;      Temps:          0       0       0       0       0       0       0       0       0
 10544 ;;      Totals:         0       0       0       0       0       0       0       0       0
 10545 ;;Total ram usage:        0 bytes
 10546 ;; Hardware stack levels used: 1
 10547 ;; Hardware stack levels required when called: 2
 10548 ;; This function calls:
 10549 ;;		_inicializar_lcd
 10550 ;; This function is called by:
 10551 ;;		_iniciar_pic
 10552 ;; This function uses a non-reentrant model
 10553 ;;
 10554                           
 10555                           	psect	text75
 10556  0040F4                     __ptext75:
 10557                           	callstack 0
 10558  0040F4                     _pines_ConfigurarHora:
 10559                           	callstack 27
 10560  0040F4                     
 10561                           ;RTC.c: 181:     ADCON1bits.PCFG = 0b1101;
 10562  0040F4  50C1               	movf	193,w,c	;volatile
 10563  0040F6  0BF0               	andlw	-16
 10564  0040F8  090D               	iorlw	13
 10565  0040FA  6EC1               	movwf	193,c	;volatile
 10566  0040FC                     
 10567                           ;RTC.c: 182:     TRISAbits.RA2 = 1;
 10568  0040FC  8492               	bsf	146,2,c	;volatile
 10569  0040FE                     
 10570                           ;RTC.c: 183:     TRISAbits.RA3 = 1;
 10571  0040FE  8692               	bsf	146,3,c	;volatile
 10572  004100                     
 10573                           ;RTC.c: 184:     inicializar_lcd();
 10574  004100  EC00  F01F         	call	_inicializar_lcd	;wreg free
 10575  004104  0012               	return		;funcret
 10576  004106                     __end_of_pines_ConfigurarHora:
 10577                           	callstack 0
 10578                           
 10579 ;; *************** function _inicializar_lcd *****************
 10580 ;; Defined at:
 10581 ;;		line 30 in file "LCD.c"
 10582 ;; Parameters:    Size  Location     Type
 10583 ;;		None
 10584 ;; Auto vars:     Size  Location     Type
 10585 ;;		None
 10586 ;; Return value:  Size  Location     Type
 10587 ;;                  1    wreg      void 
 10588 ;; Registers used:
 10589 ;;		wreg, status,2, status,0, cstack
 10590 ;; Tracked objects:
 10591 ;;		On entry : 0/0
 10592 ;;		On exit  : 0/0
 10593 ;;		Unchanged: 0/0
 10594 ;; Data sizes:     COMRAM   BANK0   BANK1   BANK2   BANK3   BANK4   BANK5   BANK6   BANK7
 10595 ;;      Params:         0       0       0       0       0       0       0       0       0
 10596 ;;      Locals:         0       0       0       0       0       0       0       0       0
 10597 ;;      Temps:          1       0       0       0       0       0       0       0       0
 10598 ;;      Totals:         1       0       0       0       0       0       0       0       0
 10599 ;;Total ram usage:        1 bytes
 10600 ;; Hardware stack levels used: 1
 10601 ;; Hardware stack levels required when called: 1
 10602 ;; This function calls:
 10603 ;;		_LCD_Command
 10604 ;; This function is called by:
 10605 ;;		_main
 10606 ;;		_pines_ConfigurarHora
 10607 ;; This function uses a non-reentrant model
 10608 ;;
 10609                           
 10610                           	psect	text76
 10611  003E00                     __ptext76:
 10612                           	callstack 0
 10613  003E00                     _inicializar_lcd:
 10614                           	callstack 27
 10615  003E00                     
 10616                           ;LCD.c: 31:     TRISD = 0;
 10617  003E00  0E00               	movlw	0
 10618  003E02  6E95               	movwf	149,c	;volatile
 10619  003E04                     
 10620                           ;LCD.c: 32:     _delay((unsigned long)((15)*(8000000/4000.0)));
 10621  003E04  0E27               	movlw	39
 10622  003E06  6E03               	movwf	??_inicializar_lcd^0,c
 10623  003E08  0EF5               	movlw	245
 10624  003E0A                     u5817:
 10625  003E0A  2EE8               	decfsz	wreg,f,c
 10626  003E0C  D7FE               	bra	u5817
 10627  003E0E  2E03               	decfsz	??_inicializar_lcd^0,f,c
 10628  003E10  D7FC               	bra	u5817
 10629  003E12  F000               	nop	
 10630  003E14                     
 10631                           ;LCD.c: 33:     LCD_Command(0x02);
 10632  003E14  0E02               	movlw	2
 10633  003E16  EC9F  F01C         	call	_LCD_Command
 10634  003E1A                     
 10635                           ;LCD.c: 35:     LCD_Command(0x28);
 10636  003E1A  0E28               	movlw	40
 10637  003E1C  EC9F  F01C         	call	_LCD_Command
 10638  003E20                     
 10639                           ;LCD.c: 37:     LCD_Command(0x01);
 10640  003E20  0E01               	movlw	1
 10641  003E22  EC9F  F01C         	call	_LCD_Command
 10642  003E26                     
 10643                           ;LCD.c: 38:     LCD_Command(0x0c);
 10644  003E26  0E0C               	movlw	12
 10645  003E28  EC9F  F01C         	call	_LCD_Command
 10646  003E2C                     
 10647                           ;LCD.c: 39:     LCD_Command(0x06);
 10648  003E2C  0E06               	movlw	6
 10649  003E2E  EC9F  F01C         	call	_LCD_Command
 10650  003E32  0012               	return		;funcret
 10651  003E34                     __end_of_inicializar_lcd:
 10652                           	callstack 0
 10653                           
 10654 ;; *************** function _LCD_Command *****************
 10655 ;; Defined at:
 10656 ;;		line 42 in file "LCD.c"
 10657 ;; Parameters:    Size  Location     Type
 10658 ;;  cmd             1    wreg     unsigned char 
 10659 ;; Auto vars:     Size  Location     Type
 10660 ;;  cmd             1    1[COMRAM] unsigned char 
 10661 ;; Return value:  Size  Location     Type
 10662 ;;                  1    wreg      void 
 10663 ;; Registers used:
 10664 ;;		wreg, status,2, status,0
 10665 ;; Tracked objects:
 10666 ;;		On entry : 0/0
 10667 ;;		On exit  : 0/0
 10668 ;;		Unchanged: 0/0
 10669 ;; Data sizes:     COMRAM   BANK0   BANK1   BANK2   BANK3   BANK4   BANK5   BANK6   BANK7
 10670 ;;      Params:         0       0       0       0       0       0       0       0       0
 10671 ;;      Locals:         1       0       0       0       0       0       0       0       0
 10672 ;;      Temps:          1       0       0       0       0       0       0       0       0
 10673 ;;      Totals:         2       0       0       0       0       0       0       0       0
 10674 ;;Total ram usage:        2 bytes
 10675 ;; Hardware stack levels used: 1
 10676 ;; This function calls:
 10677 ;;		Nothing
 10678 ;; This function is called by:
 10679 ;;		_imprimir
 10680 ;;		_inicializar_lcd
 10681 ;;		_LCD_String_xy
 10682 ;;		_LCD_xy
 10683 ;;		_LCD_Clear
 10684 ;;		_mostrar_emoticon
 10685 ;;		_LCD_Custom_Char
 10686 ;; This function uses a non-reentrant model
 10687 ;;
 10688                           
 10689                           	psect	text77
 10690  00393E                     __ptext77:
 10691                           	callstack 0
 10692  00393E                     _LCD_Command:
 10693                           	callstack 26
 10694                           
 10695                           ;incstack = 0
 10696                           ;LCD_Command@cmd stored from wreg
 10697  00393E  6E02               	movwf	LCD_Command@cmd^0,c
 10698  003940                     
 10699                           ;LCD.c: 43:     LATD = (LATD & 0x0f) | (0xF0 & cmd);
 10700  003940  C002  F001         	movff	LCD_Command@cmd,??_LCD_Command
 10701  003944  0EF0               	movlw	240
 10702  003946  1601               	andwf	??_LCD_Command^0,f,c
 10703  003948  508C               	movf	140,w,c	;volatile
 10704  00394A  0B0F               	andlw	15
 10705  00394C  1001               	iorwf	??_LCD_Command^0,w,c
 10706  00394E  6E8C               	movwf	140,c	;volatile
 10707  003950                     
 10708                           ;LCD.c: 44:     LATD0 = 0;
 10709  003950  908C               	bcf	3980,0,c	;volatile
 10710  003952                     
 10711                           ;LCD.c: 45:     LATD1 = 1;
 10712  003952  828C               	bsf	3980,1,c	;volatile
 10713  003954                     
 10714                           ;LCD.c: 46:     __nop();
 10715  003954  F000               	nop	
 10716  003956                     
 10717                           ;LCD.c: 47:     LATD1 = 0;
 10718  003956  928C               	bcf	3980,1,c	;volatile
 10719  003958                     
 10720                           ;LCD.c: 48:     _delay((unsigned long)((1)*(8000000/4000.0)));
 10721  003958  0E03               	movlw	3
 10722  00395A  6E01               	movwf	??_LCD_Command^0,c
 10723  00395C  0E98               	movlw	152
 10724  00395E                     u5827:
 10725  00395E  2EE8               	decfsz	wreg,f,c
 10726  003960  D7FE               	bra	u5827
 10727  003962  2E01               	decfsz	??_LCD_Command^0,f,c
 10728  003964  D7FC               	bra	u5827
 10729  003966                     
 10730                           ;LCD.c: 49:     LATD = (LATD & 0x0f) | (cmd << 4);
 10731  003966  C002  F001         	movff	LCD_Command@cmd,??_LCD_Command
 10732  00396A  3A01               	swapf	??_LCD_Command^0,f,c
 10733  00396C  0EF0               	movlw	240
 10734  00396E  1601               	andwf	??_LCD_Command^0,f,c
 10735  003970  508C               	movf	140,w,c	;volatile
 10736  003972  0B0F               	andlw	15
 10737  003974  1001               	iorwf	??_LCD_Command^0,w,c
 10738  003976  6E8C               	movwf	140,c	;volatile
 10739  003978                     
 10740                           ;LCD.c: 50:     LATD1 = 1;
 10741  003978  828C               	bsf	3980,1,c	;volatile
 10742  00397A                     
 10743                           ;LCD.c: 51:     __nop();
 10744  00397A  F000               	nop	
 10745  00397C                     
 10746                           ;LCD.c: 52:     LATD1 = 0;
 10747  00397C  928C               	bcf	3980,1,c	;volatile
 10748                           
 10749                           ;LCD.c: 53:     _delay((unsigned long)((3)*(8000000/4000.0)));
 10750  00397E  0E08               	movlw	8
 10751  003980  6E01               	movwf	??_LCD_Command^0,c
 10752  003982  0ECA               	movlw	202
 10753  003984                     u5837:
 10754  003984  2EE8               	decfsz	wreg,f,c
 10755  003986  D7FE               	bra	u5837
 10756  003988  2E01               	decfsz	??_LCD_Command^0,f,c
 10757  00398A  D7FC               	bra	u5837
 10758  00398C  0012               	return		;funcret
 10759  00398E                     __end_of_LCD_Command:
 10760                           	callstack 0
 10761                           
 10762 ;; *************** function _init_rtc *****************
 10763 ;; Defined at:
 10764 ;;		line 176 in file "RTC.c"
 10765 ;; Parameters:    Size  Location     Type
 10766 ;;		None
 10767 ;; Auto vars:     Size  Location     Type
 10768 ;;		None
 10769 ;; Return value:  Size  Location     Type
 10770 ;;                  1    wreg      void 
 10771 ;; Registers used:
 10772 ;;		wreg, status,2, cstack
 10773 ;; Tracked objects:
 10774 ;;		On entry : 0/0
 10775 ;;		On exit  : 0/0
 10776 ;;		Unchanged: 0/0
 10777 ;; Data sizes:     COMRAM   BANK0   BANK1   BANK2   BANK3   BANK4   BANK5   BANK6   BANK7
 10778 ;;      Params:         0       0       0       0       0       0       0       0       0
 10779 ;;      Locals:         0       0       0       0       0       0       0       0       0
 10780 ;;      Temps:          0       0       0       0       0       0       0       0       0
 10781 ;;      Totals:         0       0       0       0       0       0       0       0       0
 10782 ;;Total ram usage:        0 bytes
 10783 ;; Hardware stack levels used: 1
 10784 ;; Hardware stack levels required when called: 1
 10785 ;; This function calls:
 10786 ;;		_I2C_Init
 10787 ;; This function is called by:
 10788 ;;		_iniciar_pic
 10789 ;; This function uses a non-reentrant model
 10790 ;;
 10791                           
 10792                           	psect	text78
 10793  004136                     __ptext78:
 10794                           	callstack 0
 10795  004136                     _init_rtc:
 10796                           	callstack 28
 10797  004136                     
 10798                           ;RTC.c: 177:     I2C_Init();
 10799  004136  EC25  F020         	call	_I2C_Init	;wreg free
 10800  00413A  0012               	return		;funcret
 10801  00413C                     __end_of_init_rtc:
 10802                           	callstack 0
 10803                           
 10804 ;; *************** function _I2C_Init *****************
 10805 ;; Defined at:
 10806 ;;		line 28 in file "I2C_Source_File.c"
 10807 ;; Parameters:    Size  Location     Type
 10808 ;;		None
 10809 ;; Auto vars:     Size  Location     Type
 10810 ;;		None
 10811 ;; Return value:  Size  Location     Type
 10812 ;;                  1    wreg      void 
 10813 ;; Registers used:
 10814 ;;		wreg, status,2
 10815 ;; Tracked objects:
 10816 ;;		On entry : 0/0
 10817 ;;		On exit  : 0/0
 10818 ;;		Unchanged: 0/0
 10819 ;; Data sizes:     COMRAM   BANK0   BANK1   BANK2   BANK3   BANK4   BANK5   BANK6   BANK7
 10820 ;;      Params:         0       0       0       0       0       0       0       0       0
 10821 ;;      Locals:         0       0       0       0       0       0       0       0       0
 10822 ;;      Temps:          0       0       0       0       0       0       0       0       0
 10823 ;;      Totals:         0       0       0       0       0       0       0       0       0
 10824 ;;Total ram usage:        0 bytes
 10825 ;; Hardware stack levels used: 1
 10826 ;; This function calls:
 10827 ;;		Nothing
 10828 ;; This function is called by:
 10829 ;;		_obtener_tiempo_fecha
 10830 ;;		_init_rtc
 10831 ;; This function uses a non-reentrant model
 10832 ;;
 10833                           
 10834                           	psect	text79
 10835  00404A                     __ptext79:
 10836                           	callstack 0
 10837  00404A                     _I2C_Init:
 10838                           	callstack 25
 10839  00404A                     
 10840                           ;I2C_Source_File.c: 29:     TRISB0 = 1;
 10841  00404A  8093               	bsf	3987,0,c	;volatile
 10842                           
 10843                           ;I2C_Source_File.c: 30:     TRISB1 = 1;
 10844  00404C  8293               	bsf	3987,1,c	;volatile
 10845  00404E                     
 10846                           ;I2C_Source_File.c: 31:     SSPSTAT = 80;
 10847  00404E  0E50               	movlw	80
 10848  004050  6EC7               	movwf	199,c	;volatile
 10849                           
 10850                           ;I2C_Source_File.c: 32:     SSPCON1 = 0x28;
 10851  004052  0E28               	movlw	40
 10852  004054  6EC6               	movwf	198,c	;volatile
 10853                           
 10854                           ;I2C_Source_File.c: 34:     SSPCON2 = 0;
 10855  004056  0E00               	movlw	0
 10856  004058  6EC5               	movwf	197,c	;volatile
 10857                           
 10858                           ;I2C_Source_File.c: 35:     SSPADD = ((8000000/(4*100000))-1);
 10859  00405A  0E13               	movlw	19
 10860  00405C  6EC8               	movwf	200,c	;volatile
 10861  00405E                     
 10862                           ;I2C_Source_File.c: 36:     SSPIE = 1;
 10863  00405E  869D               	bsf	3997,3,c	;volatile
 10864  004060                     
 10865                           ;I2C_Source_File.c: 37:     SSPIF = 0;
 10866  004060  969E               	bcf	3998,3,c	;volatile
 10867  004062  0012               	return		;funcret
 10868  004064                     __end_of_I2C_Init:
 10869                           	callstack 0
 10870                           
 10871 ;; *************** function _USART_Init *****************
 10872 ;; Defined at:
 10873 ;;		line 8 in file "USART_Source_File.c"
 10874 ;; Parameters:    Size  Location     Type
 10875 ;;  baud_rate       4   55[COMRAM] long 
 10876 ;; Auto vars:     Size  Location     Type
 10877 ;;  temp            4   59[COMRAM] float 
 10878 ;; Return value:  Size  Location     Type
 10879 ;;                  1    wreg      void 
 10880 ;; Registers used:
 10881 ;;		wreg, status,2, status,0, cstack
 10882 ;; Tracked objects:
 10883 ;;		On entry : 0/0
 10884 ;;		On exit  : 0/0
 10885 ;;		Unchanged: 0/0
 10886 ;; Data sizes:     COMRAM   BANK0   BANK1   BANK2   BANK3   BANK4   BANK5   BANK6   BANK7
 10887 ;;      Params:         4       0       0       0       0       0       0       0       0
 10888 ;;      Locals:         4       0       0       0       0       0       0       0       0
 10889 ;;      Temps:          0       0       0       0       0       0       0       0       0
 10890 ;;      Totals:         8       0       0       0       0       0       0       0       0
 10891 ;;Total ram usage:        8 bytes
 10892 ;; Hardware stack levels used: 1
 10893 ;; Hardware stack levels required when called: 1
 10894 ;; This function calls:
 10895 ;;		___fladd
 10896 ;;		___fldiv
 10897 ;;		___fltol
 10898 ;;		___xxtofl
 10899 ;; This function is called by:
 10900 ;;		_main
 10901 ;; This function uses a non-reentrant model
 10902 ;;
 10903                           
 10904                           	psect	text80
 10905  003182                     __ptext80:
 10906                           	callstack 0
 10907  003182                     _USART_Init:
 10908                           	callstack 29
 10909  003182                     
 10910                           ;USART_Source_File.c: 9:     float temp;;USART_Source_File.c: 10:     TRISC6 = 0;
 10911  003182  9C94               	bcf	3988,6,c	;volatile
 10912                           
 10913                           ;USART_Source_File.c: 11:     TRISC7 = 1;
 10914  003184  8E94               	bsf	3988,7,c	;volatile
 10915  003186                     
 10916                           ;USART_Source_File.c: 12:     temp = (((float)(8000000/64)/(float)baud_rate)-1);
 10917  003186  C038  F001         	movff	USART_Init@baud_rate,___xxtofl@val
 10918  00318A  C039  F002         	movff	USART_Init@baud_rate+1,___xxtofl@val+1
 10919  00318E  C03A  F003         	movff	USART_Init@baud_rate+2,___xxtofl@val+2
 10920  003192  C03B  F004         	movff	USART_Init@baud_rate+3,___xxtofl@val+3
 10921  003196  0E01               	movlw	1
 10922  003198  ECED  F010         	call	___xxtofl
 10923  00319C  C001  F013         	movff	?___xxtofl,___fldiv@a
 10924  0031A0  C002  F014         	movff	?___xxtofl+1,___fldiv@a+1
 10925  0031A4  C003  F015         	movff	?___xxtofl+2,___fldiv@a+2
 10926  0031A8  C004  F016         	movff	?___xxtofl+3,___fldiv@a+3
 10927  0031AC  0E00               	movlw	0
 10928  0031AE  6E0F               	movwf	___fldiv@b^0,c
 10929  0031B0  0E24               	movlw	36
 10930  0031B2  6E10               	movwf	(___fldiv@b+1)^0,c
 10931  0031B4  0EF4               	movlw	244
 10932  0031B6  6E11               	movwf	(___fldiv@b+2)^0,c
 10933  0031B8  0E47               	movlw	71
 10934  0031BA  6E12               	movwf	(___fldiv@b+3)^0,c
 10935  0031BC  ECDC  F008         	call	___fldiv	;wreg free
 10936  0031C0  C00F  F028         	movff	?___fldiv,___fladd@b
 10937  0031C4  C010  F029         	movff	?___fldiv+1,___fladd@b+1
 10938  0031C8  C011  F02A         	movff	?___fldiv+2,___fladd@b+2
 10939  0031CC  C012  F02B         	movff	?___fldiv+3,___fladd@b+3
 10940  0031D0  0E00               	movlw	0
 10941  0031D2  6E2C               	movwf	___fladd@a^0,c
 10942  0031D4  0E00               	movlw	0
 10943  0031D6  6E2D               	movwf	(___fladd@a+1)^0,c
 10944  0031D8  0E80               	movlw	128
 10945  0031DA  6E2E               	movwf	(___fladd@a+2)^0,c
 10946  0031DC  0EBF               	movlw	191
 10947  0031DE  6E2F               	movwf	(___fladd@a+3)^0,c
 10948  0031E0  EC67  F004         	call	___fladd	;wreg free
 10949  0031E4  C028  F03C         	movff	?___fladd,USART_Init@temp
 10950  0031E8  C029  F03D         	movff	?___fladd+1,USART_Init@temp+1
 10951  0031EC  C02A  F03E         	movff	?___fladd+2,USART_Init@temp+2
 10952  0031F0  C02B  F03F         	movff	?___fladd+3,USART_Init@temp+3
 10953                           
 10954                           ;USART_Source_File.c: 13:     SPBRG = (int) temp;
 10955  0031F4  C03C  F028         	movff	USART_Init@temp,___fltol@f1
 10956  0031F8  C03D  F029         	movff	USART_Init@temp+1,___fltol@f1+1
 10957  0031FC  C03E  F02A         	movff	USART_Init@temp+2,___fltol@f1+2
 10958  003200  C03F  F02B         	movff	USART_Init@temp+3,___fltol@f1+3
 10959  003204  EC63  F015         	call	___fltol	;wreg free
 10960  003208  5028               	movf	?___fltol^0,w,c
 10961  00320A  6EAF               	movwf	175,c	;volatile
 10962  00320C                     
 10963                           ;USART_Source_File.c: 14:     TXSTA = 0x20;
 10964  00320C  0E20               	movlw	32
 10965  00320E  6EAC               	movwf	172,c	;volatile
 10966  003210                     
 10967                           ;USART_Source_File.c: 15:     RCSTA = 0x90;
 10968  003210  0E90               	movlw	144
 10969  003212  6EAB               	movwf	171,c	;volatile
 10970  003214  0012               	return		;funcret
 10971  003216                     __end_of_USART_Init:
 10972                           	callstack 0
 10973                           
 10974 ;; *************** function ___xxtofl *****************
 10975 ;; Defined at:
 10976 ;;		line 10 in file "D:\mplab\pic\sources\c99\common\xxtofl.c"
 10977 ;; Parameters:    Size  Location     Type
 10978 ;;  sign            1    wreg     unsigned char 
 10979 ;;  val             4    0[COMRAM] long 
 10980 ;; Auto vars:     Size  Location     Type
 10981 ;;  sign            1    8[COMRAM] unsigned char 
 10982 ;;  arg             4   10[COMRAM] unsigned long 
 10983 ;;  exp             1    9[COMRAM] unsigned char 
 10984 ;; Return value:  Size  Location     Type
 10985 ;;                  4    0[COMRAM] unsigned char 
 10986 ;; Registers used:
 10987 ;;		wreg, status,2, status,0
 10988 ;; Tracked objects:
 10989 ;;		On entry : 0/0
 10990 ;;		On exit  : 0/0
 10991 ;;		Unchanged: 0/0
 10992 ;; Data sizes:     COMRAM   BANK0   BANK1   BANK2   BANK3   BANK4   BANK5   BANK6   BANK7
 10993 ;;      Params:         4       0       0       0       0       0       0       0       0
 10994 ;;      Locals:         6       0       0       0       0       0       0       0       0
 10995 ;;      Temps:          4       0       0       0       0       0       0       0       0
 10996 ;;      Totals:        14       0       0       0       0       0       0       0       0
 10997 ;;Total ram usage:       14 bytes
 10998 ;; Hardware stack levels used: 1
 10999 ;; This function calls:
 11000 ;;		Nothing
 11001 ;; This function is called by:
 11002 ;;		_sensor_temperatura
 11003 ;;		_USART_Init
 11004 ;; This function uses a non-reentrant model
 11005 ;;
 11006                           
 11007                           	psect	text81
 11008  0021DA                     __ptext81:
 11009                           	callstack 0
 11010  0021DA                     ___xxtofl:
 11011                           	callstack 27
 11012                           
 11013                           ;incstack = 0
 11014                           ;___xxtofl@sign stored from wreg
 11015  0021DA  6E09               	movwf	___xxtofl@sign^0,c
 11016  0021DC  5009               	movf	___xxtofl@sign^0,w,c
 11017  0021DE  B4D8               	btfsc	status,2,c
 11018  0021E0  EFF4  F010         	goto	u4421
 11019  0021E4  EFF6  F010         	goto	u4420
 11020  0021E8                     u4421:
 11021  0021E8  EF18  F011         	goto	l1362
 11022  0021EC                     u4420:
 11023  0021EC  BE04               	btfsc	(___xxtofl@val+3)^0,7,c
 11024  0021EE  EFFD  F010         	goto	u4430
 11025  0021F2  EFFB  F010         	goto	u4431
 11026  0021F6                     u4431:
 11027  0021F6  EF18  F011         	goto	l1362
 11028  0021FA                     u4430:
 11029  0021FA  C001  F005         	movff	___xxtofl@val,??___xxtofl
 11030  0021FE  C002  F006         	movff	___xxtofl@val+1,??___xxtofl+1
 11031  002202  C003  F007         	movff	___xxtofl@val+2,??___xxtofl+2
 11032  002206  C004  F008         	movff	___xxtofl@val+3,??___xxtofl+3
 11033  00220A  1E05               	comf	??___xxtofl^0,f,c
 11034  00220C  1E06               	comf	(??___xxtofl+1)^0,f,c
 11035  00220E  1E07               	comf	(??___xxtofl+2)^0,f,c
 11036  002210  1E08               	comf	(??___xxtofl+3)^0,f,c
 11037  002212  2A05               	incf	??___xxtofl^0,f,c
 11038  002214  0E00               	movlw	0
 11039  002216  2206               	addwfc	(??___xxtofl+1)^0,f,c
 11040  002218  2207               	addwfc	(??___xxtofl+2)^0,f,c
 11041  00221A  2208               	addwfc	(??___xxtofl+3)^0,f,c
 11042  00221C  C005  F00B         	movff	??___xxtofl,___xxtofl@arg
 11043  002220  C006  F00C         	movff	??___xxtofl+1,___xxtofl@arg+1
 11044  002224  C007  F00D         	movff	??___xxtofl+2,___xxtofl@arg+2
 11045  002228  C008  F00E         	movff	??___xxtofl+3,___xxtofl@arg+3
 11046  00222C  EF20  F011         	goto	l4478
 11047  002230                     l1362:
 11048  002230  C001  F00B         	movff	___xxtofl@val,___xxtofl@arg
 11049  002234  C002  F00C         	movff	___xxtofl@val+1,___xxtofl@arg+1
 11050  002238  C003  F00D         	movff	___xxtofl@val+2,___xxtofl@arg+2
 11051  00223C  C004  F00E         	movff	___xxtofl@val+3,___xxtofl@arg+3
 11052  002240                     l4478:
 11053  002240  5001               	movf	___xxtofl@val^0,w,c
 11054  002242  1002               	iorwf	(___xxtofl@val+1)^0,w,c
 11055  002244  1003               	iorwf	(___xxtofl@val+2)^0,w,c
 11056  002246  1004               	iorwf	(___xxtofl@val+3)^0,w,c
 11057  002248  A4D8               	btfss	status,2,c
 11058  00224A  EF29  F011         	goto	u4441
 11059  00224E  EF2B  F011         	goto	u4440
 11060  002252                     u4441:
 11061  002252  EF35  F011         	goto	l4484
 11062  002256                     u4440:
 11063  002256  0E00               	movlw	0
 11064  002258  6E01               	movwf	?___xxtofl^0,c
 11065  00225A  0E00               	movlw	0
 11066  00225C  6E02               	movwf	(?___xxtofl+1)^0,c
 11067  00225E  0E00               	movlw	0
 11068  002260  6E03               	movwf	(?___xxtofl+2)^0,c
 11069  002262  0E00               	movlw	0
 11070  002264  6E04               	movwf	(?___xxtofl+3)^0,c
 11071  002266  EFC6  F011         	goto	l1365
 11072  00226A                     l4484:
 11073  00226A  0E96               	movlw	150
 11074  00226C  6E0A               	movwf	___xxtofl@exp^0,c
 11075  00226E  EF3F  F011         	goto	l4488
 11076  002272                     l4486:
 11077  002272  2A0A               	incf	___xxtofl@exp^0,f,c
 11078  002274  90D8               	bcf	status,0,c
 11079  002276  320E               	rrcf	(___xxtofl@arg+3)^0,f,c
 11080  002278  320D               	rrcf	(___xxtofl@arg+2)^0,f,c
 11081  00227A  320C               	rrcf	(___xxtofl@arg+1)^0,f,c
 11082  00227C  320B               	rrcf	___xxtofl@arg^0,f,c
 11083  00227E                     l4488:
 11084  00227E  0E00               	movlw	0
 11085  002280  140B               	andwf	___xxtofl@arg^0,w,c
 11086  002282  6E05               	movwf	??___xxtofl^0,c
 11087  002284  0E00               	movlw	0
 11088  002286  140C               	andwf	(___xxtofl@arg+1)^0,w,c
 11089  002288  6E06               	movwf	(??___xxtofl+1)^0,c
 11090  00228A  0E00               	movlw	0
 11091  00228C  140D               	andwf	(___xxtofl@arg+2)^0,w,c
 11092  00228E  6E07               	movwf	(??___xxtofl+2)^0,c
 11093  002290  0EFE               	movlw	254
 11094  002292  140E               	andwf	(___xxtofl@arg+3)^0,w,c
 11095  002294  6E08               	movwf	(??___xxtofl+3)^0,c
 11096  002296  5005               	movf	??___xxtofl^0,w,c
 11097  002298  1006               	iorwf	(??___xxtofl+1)^0,w,c
 11098  00229A  1007               	iorwf	(??___xxtofl+2)^0,w,c
 11099  00229C  1008               	iorwf	(??___xxtofl+3)^0,w,c
 11100  00229E  A4D8               	btfss	status,2,c
 11101  0022A0  EF54  F011         	goto	u4451
 11102  0022A4  EF56  F011         	goto	u4450
 11103  0022A8                     u4451:
 11104  0022A8  EF39  F011         	goto	l4486
 11105  0022AC                     u4450:
 11106  0022AC  EF64  F011         	goto	l1369
 11107  0022B0                     l4490:
 11108  0022B0  2A0A               	incf	___xxtofl@exp^0,f,c
 11109  0022B2  0E01               	movlw	1
 11110  0022B4  260B               	addwf	___xxtofl@arg^0,f,c
 11111  0022B6  0E00               	movlw	0
 11112  0022B8  220C               	addwfc	(___xxtofl@arg+1)^0,f,c
 11113  0022BA  220D               	addwfc	(___xxtofl@arg+2)^0,f,c
 11114  0022BC  220E               	addwfc	(___xxtofl@arg+3)^0,f,c
 11115  0022BE  90D8               	bcf	status,0,c
 11116  0022C0  320E               	rrcf	(___xxtofl@arg+3)^0,f,c
 11117  0022C2  320D               	rrcf	(___xxtofl@arg+2)^0,f,c
 11118  0022C4  320C               	rrcf	(___xxtofl@arg+1)^0,f,c
 11119  0022C6  320B               	rrcf	___xxtofl@arg^0,f,c
 11120  0022C8                     l1369:
 11121  0022C8  0E00               	movlw	0
 11122  0022CA  140B               	andwf	___xxtofl@arg^0,w,c
 11123  0022CC  6E05               	movwf	??___xxtofl^0,c
 11124  0022CE  0E00               	movlw	0
 11125  0022D0  140C               	andwf	(___xxtofl@arg+1)^0,w,c
 11126  0022D2  6E06               	movwf	(??___xxtofl+1)^0,c
 11127  0022D4  0E00               	movlw	0
 11128  0022D6  140D               	andwf	(___xxtofl@arg+2)^0,w,c
 11129  0022D8  6E07               	movwf	(??___xxtofl+2)^0,c
 11130  0022DA  0EFF               	movlw	255
 11131  0022DC  140E               	andwf	(___xxtofl@arg+3)^0,w,c
 11132  0022DE  6E08               	movwf	(??___xxtofl+3)^0,c
 11133  0022E0  5005               	movf	??___xxtofl^0,w,c
 11134  0022E2  1006               	iorwf	(??___xxtofl+1)^0,w,c
 11135  0022E4  1007               	iorwf	(??___xxtofl+2)^0,w,c
 11136  0022E6  1008               	iorwf	(??___xxtofl+3)^0,w,c
 11137  0022E8  A4D8               	btfss	status,2,c
 11138  0022EA  EF79  F011         	goto	u4461
 11139  0022EE  EF7B  F011         	goto	u4460
 11140  0022F2                     u4461:
 11141  0022F2  EF58  F011         	goto	l4490
 11142  0022F6                     u4460:
 11143  0022F6  EF83  F011         	goto	l4498
 11144  0022FA                     l4496:
 11145  0022FA  060A               	decf	___xxtofl@exp^0,f,c
 11146  0022FC  90D8               	bcf	status,0,c
 11147  0022FE  360B               	rlcf	___xxtofl@arg^0,f,c
 11148  002300  360C               	rlcf	(___xxtofl@arg+1)^0,f,c
 11149  002302  360D               	rlcf	(___xxtofl@arg+2)^0,f,c
 11150  002304  360E               	rlcf	(___xxtofl@arg+3)^0,f,c
 11151  002306                     l4498:
 11152  002306  BE0D               	btfsc	(___xxtofl@arg+2)^0,7,c
 11153  002308  EF88  F011         	goto	u4471
 11154  00230C  EF8A  F011         	goto	u4470
 11155  002310                     u4471:
 11156  002310  EF92  F011         	goto	l1376
 11157  002314                     u4470:
 11158  002314  0E02               	movlw	2
 11159  002316  600A               	cpfslt	___xxtofl@exp^0,c
 11160  002318  EF90  F011         	goto	u4481
 11161  00231C  EF92  F011         	goto	u4480
 11162  002320                     u4481:
 11163  002320  EF7D  F011         	goto	l4496
 11164  002324                     u4480:
 11165  002324                     l1376:
 11166  002324  B00A               	btfsc	___xxtofl@exp^0,0,c
 11167  002326  EF97  F011         	goto	u4491
 11168  00232A  EF99  F011         	goto	u4490
 11169  00232E                     u4491:
 11170  00232E  EF9A  F011         	goto	l4504
 11171  002332                     u4490:
 11172  002332  9E0D               	bcf	(___xxtofl@arg+2)^0,7,c
 11173  002334                     l4504:
 11174  002334  90D8               	bcf	status,0,c
 11175  002336  320A               	rrcf	___xxtofl@exp^0,f,c
 11176  002338  C00A  F005         	movff	___xxtofl@exp,??___xxtofl
 11177  00233C  6A06               	clrf	(??___xxtofl+1)^0,c
 11178  00233E  6A07               	clrf	(??___xxtofl+2)^0,c
 11179  002340  6A08               	clrf	(??___xxtofl+3)^0,c
 11180  002342  C005  F008         	movff	??___xxtofl,??___xxtofl+3
 11181  002346  6A07               	clrf	(??___xxtofl+2)^0,c
 11182  002348  6A06               	clrf	(??___xxtofl+1)^0,c
 11183  00234A  6A05               	clrf	??___xxtofl^0,c
 11184  00234C  5005               	movf	??___xxtofl^0,w,c
 11185  00234E  120B               	iorwf	___xxtofl@arg^0,f,c
 11186  002350  5006               	movf	(??___xxtofl+1)^0,w,c
 11187  002352  120C               	iorwf	(___xxtofl@arg+1)^0,f,c
 11188  002354  5007               	movf	(??___xxtofl+2)^0,w,c
 11189  002356  120D               	iorwf	(___xxtofl@arg+2)^0,f,c
 11190  002358  5008               	movf	(??___xxtofl+3)^0,w,c
 11191  00235A  120E               	iorwf	(___xxtofl@arg+3)^0,f,c
 11192  00235C  5009               	movf	___xxtofl@sign^0,w,c
 11193  00235E  B4D8               	btfsc	status,2,c
 11194  002360  EFB4  F011         	goto	u4501
 11195  002364  EFB6  F011         	goto	u4500
 11196  002368                     u4501:
 11197  002368  EFBE  F011         	goto	l4514
 11198  00236C                     u4500:
 11199  00236C  BE04               	btfsc	(___xxtofl@val+3)^0,7,c
 11200  00236E  EFBD  F011         	goto	u4510
 11201  002372  EFBB  F011         	goto	u4511
 11202  002376                     u4511:
 11203  002376  EFBE  F011         	goto	l4514
 11204  00237A                     u4510:
 11205  00237A  8E0E               	bsf	(___xxtofl@arg+3)^0,7,c
 11206  00237C                     l4514:
 11207  00237C  C00B  F001         	movff	___xxtofl@arg,?___xxtofl
 11208  002380  C00C  F002         	movff	___xxtofl@arg+1,?___xxtofl+1
 11209  002384  C00D  F003         	movff	___xxtofl@arg+2,?___xxtofl+2
 11210  002388  C00E  F004         	movff	___xxtofl@arg+3,?___xxtofl+3
 11211  00238C                     l1365:
 11212  00238C  0012               	return		;funcret
 11213  00238E                     __end_of___xxtofl:
 11214                           	callstack 0
 11215                           
 11216 ;; *************** function ___fltol *****************
 11217 ;; Defined at:
 11218 ;;		line 43 in file "D:\mplab\pic\sources\c99\common\fltol.c"
 11219 ;; Parameters:    Size  Location     Type
 11220 ;;  f1              4   39[COMRAM] unsigned char 
 11221 ;; Auto vars:     Size  Location     Type
 11222 ;;  exp1            1   48[COMRAM] unsigned char 
 11223 ;;  sign1           1   47[COMRAM] unsigned char 
 11224 ;; Return value:  Size  Location     Type
 11225 ;;                  4   39[COMRAM] long 
 11226 ;; Registers used:
 11227 ;;		wreg, status,2, status,0
 11228 ;; Tracked objects:
 11229 ;;		On entry : 0/0
 11230 ;;		On exit  : 0/0
 11231 ;;		Unchanged: 0/0
 11232 ;; Data sizes:     COMRAM   BANK0   BANK1   BANK2   BANK3   BANK4   BANK5   BANK6   BANK7
 11233 ;;      Params:         4       0       0       0       0       0       0       0       0
 11234 ;;      Locals:         2       0       0       0       0       0       0       0       0
 11235 ;;      Temps:          4       0       0       0       0       0       0       0       0
 11236 ;;      Totals:        10       0       0       0       0       0       0       0       0
 11237 ;;Total ram usage:       10 bytes
 11238 ;; Hardware stack levels used: 1
 11239 ;; This function calls:
 11240 ;;		Nothing
 11241 ;; This function is called by:
 11242 ;;		_sensor_temperatura
 11243 ;;		_USART_Init
 11244 ;; This function uses a non-reentrant model
 11245 ;;
 11246                           
 11247                           	psect	text82
 11248  002AC6                     __ptext82:
 11249                           	callstack 0
 11250  002AC6                     ___fltol:
 11251                           	callstack 27
 11252  002AC6  342A               	rlcf	(___fltol@f1+2)^0,w,c
 11253  002AC8  342B               	rlcf	(___fltol@f1+3)^0,w,c
 11254  002ACA  6E31               	movwf	___fltol@exp1^0,c
 11255  002ACC  5031               	movf	___fltol@exp1^0,w,c
 11256  002ACE  A4D8               	btfss	status,2,c
 11257  002AD0  EF6C  F015         	goto	u4321
 11258  002AD4  EF6E  F015         	goto	u4320
 11259  002AD8                     u4321:
 11260  002AD8  EF78  F015         	goto	l4412
 11261  002ADC                     u4320:
 11262  002ADC                     l4408:
 11263  002ADC  0E00               	movlw	0
 11264  002ADE  6E28               	movwf	?___fltol^0,c
 11265  002AE0  0E00               	movlw	0
 11266  002AE2  6E29               	movwf	(?___fltol+1)^0,c
 11267  002AE4  0E00               	movlw	0
 11268  002AE6  6E2A               	movwf	(?___fltol+2)^0,c
 11269  002AE8  0E00               	movlw	0
 11270  002AEA  6E2B               	movwf	(?___fltol+3)^0,c
 11271  002AEC  EFE5  F015         	goto	l1004
 11272  002AF0                     l4412:
 11273  002AF0  C028  F02C         	movff	___fltol@f1,??___fltol
 11274  002AF4  C029  F02D         	movff	___fltol@f1+1,??___fltol+1
 11275  002AF8  C02A  F02E         	movff	___fltol@f1+2,??___fltol+2
 11276  002AFC  C02B  F02F         	movff	___fltol@f1+3,??___fltol+3
 11277  002B00  0E20               	movlw	32
 11278  002B02  EF88  F015         	goto	u4330
 11279  002B06                     u4335:
 11280  002B06  90D8               	bcf	status,0,c
 11281  002B08  322F               	rrcf	(??___fltol+3)^0,f,c
 11282  002B0A  322E               	rrcf	(??___fltol+2)^0,f,c
 11283  002B0C  322D               	rrcf	(??___fltol+1)^0,f,c
 11284  002B0E  322C               	rrcf	??___fltol^0,f,c
 11285  002B10                     u4330:
 11286  002B10  2EE8               	decfsz	wreg,f,c
 11287  002B12  EF83  F015         	goto	u4335
 11288  002B16  502C               	movf	??___fltol^0,w,c
 11289  002B18  6E30               	movwf	___fltol@sign1^0,c
 11290  002B1A  8E2A               	bsf	(___fltol@f1+2)^0,7,c
 11291  002B1C  0EFF               	movlw	255
 11292  002B1E  1628               	andwf	___fltol@f1^0,f,c
 11293  002B20  0EFF               	movlw	255
 11294  002B22  1629               	andwf	(___fltol@f1+1)^0,f,c
 11295  002B24  0EFF               	movlw	255
 11296  002B26  162A               	andwf	(___fltol@f1+2)^0,f,c
 11297  002B28  0E00               	movlw	0
 11298  002B2A  162B               	andwf	(___fltol@f1+3)^0,f,c
 11299  002B2C  0E96               	movlw	150
 11300  002B2E  5E31               	subwf	___fltol@exp1^0,f,c
 11301  002B30  BE31               	btfsc	___fltol@exp1^0,7,c
 11302  002B32  EF9F  F015         	goto	u4340
 11303  002B36  EF9D  F015         	goto	u4341
 11304  002B3A                     u4341:
 11305  002B3A  EFB5  F015         	goto	l4432
 11306  002B3E                     u4340:
 11307  002B3E  5031               	movf	___fltol@exp1^0,w,c
 11308  002B40  0A80               	xorlw	128
 11309  002B42  0F97               	addlw	151
 11310  002B44  B0D8               	btfsc	status,0,c
 11311  002B46  EFA7  F015         	goto	u4351
 11312  002B4A  EFA9  F015         	goto	u4350
 11313  002B4E                     u4351:
 11314  002B4E  EFAB  F015         	goto	l4428
 11315  002B52                     u4350:
 11316  002B52  EF6E  F015         	goto	l4408
 11317  002B56                     l4428:
 11318  002B56  90D8               	bcf	status,0,c
 11319  002B58  322B               	rrcf	(___fltol@f1+3)^0,f,c
 11320  002B5A  322A               	rrcf	(___fltol@f1+2)^0,f,c
 11321  002B5C  3229               	rrcf	(___fltol@f1+1)^0,f,c
 11322  002B5E  3228               	rrcf	___fltol@f1^0,f,c
 11323  002B60  3E31               	incfsz	___fltol@exp1^0,f,c
 11324  002B62  EFAB  F015         	goto	l4428
 11325  002B66  EFCD  F015         	goto	l4442
 11326  002B6A                     l4432:
 11327  002B6A  0E1F               	movlw	31
 11328  002B6C  6431               	cpfsgt	___fltol@exp1^0,c
 11329  002B6E  EFBB  F015         	goto	u4361
 11330  002B72  EFBD  F015         	goto	u4360
 11331  002B76                     u4361:
 11332  002B76  EFC5  F015         	goto	l4440
 11333  002B7A                     u4360:
 11334  002B7A  EF6E  F015         	goto	l4408
 11335  002B7E                     l4438:
 11336  002B7E  90D8               	bcf	status,0,c
 11337  002B80  3628               	rlcf	___fltol@f1^0,f,c
 11338  002B82  3629               	rlcf	(___fltol@f1+1)^0,f,c
 11339  002B84  362A               	rlcf	(___fltol@f1+2)^0,f,c
 11340  002B86  362B               	rlcf	(___fltol@f1+3)^0,f,c
 11341  002B88  0631               	decf	___fltol@exp1^0,f,c
 11342  002B8A                     l4440:
 11343  002B8A  5031               	movf	___fltol@exp1^0,w,c
 11344  002B8C  A4D8               	btfss	status,2,c
 11345  002B8E  EFCB  F015         	goto	u4371
 11346  002B92  EFCD  F015         	goto	u4370
 11347  002B96                     u4371:
 11348  002B96  EFBF  F015         	goto	l4438
 11349  002B9A                     u4370:
 11350  002B9A                     l4442:
 11351  002B9A  5030               	movf	___fltol@sign1^0,w,c
 11352  002B9C  B4D8               	btfsc	status,2,c
 11353  002B9E  EFD3  F015         	goto	u4381
 11354  002BA2  EFD5  F015         	goto	u4380
 11355  002BA6                     u4381:
 11356  002BA6  EFDD  F015         	goto	l4446
 11357  002BAA                     u4380:
 11358  002BAA  1E2B               	comf	(___fltol@f1+3)^0,f,c
 11359  002BAC  1E2A               	comf	(___fltol@f1+2)^0,f,c
 11360  002BAE  1E29               	comf	(___fltol@f1+1)^0,f,c
 11361  002BB0  6C28               	negf	___fltol@f1^0,c
 11362  002BB2  0E00               	movlw	0
 11363  002BB4  2229               	addwfc	(___fltol@f1+1)^0,f,c
 11364  002BB6  222A               	addwfc	(___fltol@f1+2)^0,f,c
 11365  002BB8  222B               	addwfc	(___fltol@f1+3)^0,f,c
 11366  002BBA                     l4446:
 11367  002BBA  C028  F028         	movff	___fltol@f1,?___fltol
 11368  002BBE  C029  F029         	movff	___fltol@f1+1,?___fltol+1
 11369  002BC2  C02A  F02A         	movff	___fltol@f1+2,?___fltol+2
 11370  002BC6  C02B  F02B         	movff	___fltol@f1+3,?___fltol+3
 11371  002BCA                     l1004:
 11372  002BCA  0012               	return		;funcret
 11373  002BCC                     __end_of___fltol:
 11374                           	callstack 0
 11375                           
 11376 ;; *************** function ___fldiv *****************
 11377 ;; Defined at:
 11378 ;;		line 11 in file "D:\mplab\pic\sources\c99\common\sprcdiv.c"
 11379 ;; Parameters:    Size  Location     Type
 11380 ;;  b               4   14[COMRAM] long 
 11381 ;;  a               4   18[COMRAM] long 
 11382 ;; Auto vars:     Size  Location     Type
 11383 ;;  grs             4   33[COMRAM] unsigned long 
 11384 ;;  rem             4   26[COMRAM] unsigned long 
 11385 ;;  new_exp         2   31[COMRAM] short 
 11386 ;;  aexp            1   38[COMRAM] unsigned char 
 11387 ;;  bexp            1   37[COMRAM] unsigned char 
 11388 ;;  sign            1   30[COMRAM] unsigned char 
 11389 ;; Return value:  Size  Location     Type
 11390 ;;                  4   14[COMRAM] unsigned char 
 11391 ;; Registers used:
 11392 ;;		wreg, status,2, status,0
 11393 ;; Tracked objects:
 11394 ;;		On entry : 0/0
 11395 ;;		On exit  : 0/0
 11396 ;;		Unchanged: 0/0
 11397 ;; Data sizes:     COMRAM   BANK0   BANK1   BANK2   BANK3   BANK4   BANK5   BANK6   BANK7
 11398 ;;      Params:         8       0       0       0       0       0       0       0       0
 11399 ;;      Locals:        13       0       0       0       0       0       0       0       0
 11400 ;;      Temps:          4       0       0       0       0       0       0       0       0
 11401 ;;      Totals:        25       0       0       0       0       0       0       0       0
 11402 ;;Total ram usage:       25 bytes
 11403 ;; Hardware stack levels used: 1
 11404 ;; This function calls:
 11405 ;;		Nothing
 11406 ;; This function is called by:
 11407 ;;		_USART_Init
 11408 ;; This function uses a non-reentrant model
 11409 ;;
 11410                           
 11411                           	psect	text83
 11412  0011B8                     __ptext83:
 11413                           	callstack 0
 11414  0011B8                     ___fldiv:
 11415                           	callstack 29
 11416  0011B8  5012               	movf	(___fldiv@b+3)^0,w,c
 11417  0011BA  0B80               	andlw	128
 11418  0011BC  6E1F               	movwf	___fldiv@sign^0,c
 11419  0011BE  5012               	movf	(___fldiv@b+3)^0,w,c
 11420  0011C0  2412               	addwf	(___fldiv@b+3)^0,w,c
 11421  0011C2  6E26               	movwf	___fldiv@bexp^0,c
 11422  0011C4  AE11               	btfss	(___fldiv@b+2)^0,7,c
 11423  0011C6  EFE7  F008         	goto	u5351
 11424  0011CA  EFE9  F008         	goto	u5350
 11425  0011CE                     u5351:
 11426  0011CE  EFEA  F008         	goto	l5078
 11427  0011D2                     u5350:
 11428  0011D2  8026               	bsf	___fldiv@bexp^0,0,c
 11429  0011D4                     l5078:
 11430  0011D4  5026               	movf	___fldiv@bexp^0,w,c
 11431  0011D6  B4D8               	btfsc	status,2,c
 11432  0011D8  EFF0  F008         	goto	u5361
 11433  0011DC  EFF2  F008         	goto	u5360
 11434  0011E0                     u5361:
 11435  0011E0  EF07  F009         	goto	l5088
 11436  0011E4                     u5360:
 11437  0011E4  2826               	incf	___fldiv@bexp^0,w,c
 11438  0011E6  A4D8               	btfss	status,2,c
 11439  0011E8  EFF8  F008         	goto	u5371
 11440  0011EC  EFFA  F008         	goto	u5370
 11441  0011F0                     u5371:
 11442  0011F0  EF02  F009         	goto	l5084
 11443  0011F4                     u5370:
 11444  0011F4  0E00               	movlw	0
 11445  0011F6  6E0F               	movwf	___fldiv@b^0,c
 11446  0011F8  0E00               	movlw	0
 11447  0011FA  6E10               	movwf	(___fldiv@b+1)^0,c
 11448  0011FC  0E00               	movlw	0
 11449  0011FE  6E11               	movwf	(___fldiv@b+2)^0,c
 11450  001200  0E00               	movlw	0
 11451  001202  6E12               	movwf	(___fldiv@b+3)^0,c
 11452  001204                     l5084:
 11453  001204  8E11               	bsf	(___fldiv@b+2)^0,7,c
 11454  001206  0E00               	movlw	0
 11455  001208  6E12               	movwf	(___fldiv@b+3)^0,c
 11456  00120A  EF0F  F009         	goto	l5090
 11457  00120E                     l5088:
 11458  00120E  0E00               	movlw	0
 11459  001210  6E0F               	movwf	___fldiv@b^0,c
 11460  001212  0E00               	movlw	0
 11461  001214  6E10               	movwf	(___fldiv@b+1)^0,c
 11462  001216  0E00               	movlw	0
 11463  001218  6E11               	movwf	(___fldiv@b+2)^0,c
 11464  00121A  0E00               	movlw	0
 11465  00121C  6E12               	movwf	(___fldiv@b+3)^0,c
 11466  00121E                     l5090:
 11467  00121E  5016               	movf	(___fldiv@a+3)^0,w,c
 11468  001220  0B80               	andlw	128
 11469  001222  1A1F               	xorwf	___fldiv@sign^0,f,c
 11470  001224  5016               	movf	(___fldiv@a+3)^0,w,c
 11471  001226  2416               	addwf	(___fldiv@a+3)^0,w,c
 11472  001228  6E27               	movwf	___fldiv@aexp^0,c
 11473  00122A  AE15               	btfss	(___fldiv@a+2)^0,7,c
 11474  00122C  EF1A  F009         	goto	u5381
 11475  001230  EF1C  F009         	goto	u5380
 11476  001234                     u5381:
 11477  001234  EF1D  F009         	goto	l5098
 11478  001238                     u5380:
 11479  001238  8027               	bsf	___fldiv@aexp^0,0,c
 11480  00123A                     l5098:
 11481  00123A  5027               	movf	___fldiv@aexp^0,w,c
 11482  00123C  B4D8               	btfsc	status,2,c
 11483  00123E  EF23  F009         	goto	u5391
 11484  001242  EF25  F009         	goto	u5390
 11485  001246                     u5391:
 11486  001246  EF3A  F009         	goto	l5108
 11487  00124A                     u5390:
 11488  00124A  2827               	incf	___fldiv@aexp^0,w,c
 11489  00124C  A4D8               	btfss	status,2,c
 11490  00124E  EF2B  F009         	goto	u5401
 11491  001252  EF2D  F009         	goto	u5400
 11492  001256                     u5401:
 11493  001256  EF35  F009         	goto	l5104
 11494  00125A                     u5400:
 11495  00125A  0E00               	movlw	0
 11496  00125C  6E13               	movwf	___fldiv@a^0,c
 11497  00125E  0E00               	movlw	0
 11498  001260  6E14               	movwf	(___fldiv@a+1)^0,c
 11499  001262  0E00               	movlw	0
 11500  001264  6E15               	movwf	(___fldiv@a+2)^0,c
 11501  001266  0E00               	movlw	0
 11502  001268  6E16               	movwf	(___fldiv@a+3)^0,c
 11503  00126A                     l5104:
 11504  00126A  8E15               	bsf	(___fldiv@a+2)^0,7,c
 11505  00126C  0E00               	movlw	0
 11506  00126E  6E16               	movwf	(___fldiv@a+3)^0,c
 11507  001270  EF42  F009         	goto	l5110
 11508  001274                     l5108:
 11509  001274  0E00               	movlw	0
 11510  001276  6E13               	movwf	___fldiv@a^0,c
 11511  001278  0E00               	movlw	0
 11512  00127A  6E14               	movwf	(___fldiv@a+1)^0,c
 11513  00127C  0E00               	movlw	0
 11514  00127E  6E15               	movwf	(___fldiv@a+2)^0,c
 11515  001280  0E00               	movlw	0
 11516  001282  6E16               	movwf	(___fldiv@a+3)^0,c
 11517  001284                     l5110:
 11518  001284  5013               	movf	___fldiv@a^0,w,c
 11519  001286  1014               	iorwf	(___fldiv@a+1)^0,w,c
 11520  001288  1015               	iorwf	(___fldiv@a+2)^0,w,c
 11521  00128A  1016               	iorwf	(___fldiv@a+3)^0,w,c
 11522  00128C  A4D8               	btfss	status,2,c
 11523  00128E  EF4B  F009         	goto	u5411
 11524  001292  EF4D  F009         	goto	u5410
 11525  001296                     u5411:
 11526  001296  EF65  F009         	goto	l5122
 11527  00129A                     u5410:
 11528  00129A  0E00               	movlw	0
 11529  00129C  6E0F               	movwf	___fldiv@b^0,c
 11530  00129E  0E00               	movlw	0
 11531  0012A0  6E10               	movwf	(___fldiv@b+1)^0,c
 11532  0012A2  0E00               	movlw	0
 11533  0012A4  6E11               	movwf	(___fldiv@b+2)^0,c
 11534  0012A6  0E00               	movlw	0
 11535  0012A8  6E12               	movwf	(___fldiv@b+3)^0,c
 11536  0012AA  0E80               	movlw	128
 11537  0012AC  1211               	iorwf	(___fldiv@b+2)^0,f,c
 11538  0012AE  0E7F               	movlw	127
 11539  0012B0  1212               	iorwf	(___fldiv@b+3)^0,f,c
 11540  0012B2                     l5116:
 11541  0012B2  501F               	movf	___fldiv@sign^0,w,c
 11542  0012B4  1212               	iorwf	(___fldiv@b+3)^0,f,c
 11543  0012B6  C00F  F00F         	movff	___fldiv@b,?___fldiv
 11544  0012BA  C010  F010         	movff	___fldiv@b+1,?___fldiv+1
 11545  0012BE  C011  F011         	movff	___fldiv@b+2,?___fldiv+2
 11546  0012C2  C012  F012         	movff	___fldiv@b+3,?___fldiv+3
 11547  0012C6  EFA8  F00A         	goto	l1289
 11548  0012CA                     l5122:
 11549  0012CA  5026               	movf	___fldiv@bexp^0,w,c
 11550  0012CC  A4D8               	btfss	status,2,c
 11551  0012CE  EF6B  F009         	goto	u5421
 11552  0012D2  EF6D  F009         	goto	u5420
 11553  0012D6                     u5421:
 11554  0012D6  EF77  F009         	goto	l5130
 11555  0012DA                     u5420:
 11556  0012DA  0E00               	movlw	0
 11557  0012DC  6E0F               	movwf	?___fldiv^0,c
 11558  0012DE  0E00               	movlw	0
 11559  0012E0  6E10               	movwf	(?___fldiv+1)^0,c
 11560  0012E2  0E00               	movlw	0
 11561  0012E4  6E11               	movwf	(?___fldiv+2)^0,c
 11562  0012E6  0E00               	movlw	0
 11563  0012E8  6E12               	movwf	(?___fldiv+3)^0,c
 11564  0012EA  EFA8  F00A         	goto	l1289
 11565  0012EE                     l5130:
 11566  0012EE  5027               	movf	___fldiv@aexp^0,w,c
 11567  0012F0  C026  F017         	movff	___fldiv@bexp,??___fldiv
 11568  0012F4  6A18               	clrf	(??___fldiv+1)^0,c
 11569  0012F6  5E17               	subwf	??___fldiv^0,f,c
 11570  0012F8  0E00               	movlw	0
 11571  0012FA  5A18               	subwfb	(??___fldiv+1)^0,f,c
 11572  0012FC  0E7F               	movlw	127
 11573  0012FE  2417               	addwf	??___fldiv^0,w,c
 11574  001300  6E20               	movwf	___fldiv@new_exp^0,c
 11575  001302  0E00               	movlw	0
 11576  001304  2018               	addwfc	(??___fldiv+1)^0,w,c
 11577  001306  6E21               	movwf	(___fldiv@new_exp+1)^0,c
 11578  001308  C00F  F01B         	movff	___fldiv@b,___fldiv@rem
 11579  00130C  C010  F01C         	movff	___fldiv@b+1,___fldiv@rem+1
 11580  001310  C011  F01D         	movff	___fldiv@b+2,___fldiv@rem+2
 11581  001314  C012  F01E         	movff	___fldiv@b+3,___fldiv@rem+3
 11582  001318  0E00               	movlw	0
 11583  00131A  6E0F               	movwf	___fldiv@b^0,c
 11584  00131C  0E00               	movlw	0
 11585  00131E  6E10               	movwf	(___fldiv@b+1)^0,c
 11586  001320  0E00               	movlw	0
 11587  001322  6E11               	movwf	(___fldiv@b+2)^0,c
 11588  001324  0E00               	movlw	0
 11589  001326  6E12               	movwf	(___fldiv@b+3)^0,c
 11590  001328  0E00               	movlw	0
 11591  00132A  6E22               	movwf	___fldiv@grs^0,c
 11592  00132C  0E00               	movlw	0
 11593  00132E  6E23               	movwf	(___fldiv@grs+1)^0,c
 11594  001330  0E00               	movlw	0
 11595  001332  6E24               	movwf	(___fldiv@grs+2)^0,c
 11596  001334  0E00               	movlw	0
 11597  001336  6E25               	movwf	(___fldiv@grs+3)^0,c
 11598  001338  0E00               	movlw	0
 11599  00133A  6E27               	movwf	___fldiv@aexp^0,c
 11600  00133C  EFD8  F009         	goto	l1291
 11601  001340                     l5140:
 11602  001340  5027               	movf	___fldiv@aexp^0,w,c
 11603  001342  B4D8               	btfsc	status,2,c
 11604  001344  EFA6  F009         	goto	u5431
 11605  001348  EFA8  F009         	goto	u5430
 11606  00134C                     u5431:
 11607  00134C  EFBF  F009         	goto	l5148
 11608  001350                     u5430:
 11609  001350  90D8               	bcf	status,0,c
 11610  001352  361B               	rlcf	___fldiv@rem^0,f,c
 11611  001354  361C               	rlcf	(___fldiv@rem+1)^0,f,c
 11612  001356  361D               	rlcf	(___fldiv@rem+2)^0,f,c
 11613  001358  361E               	rlcf	(___fldiv@rem+3)^0,f,c
 11614  00135A  90D8               	bcf	status,0,c
 11615  00135C  360F               	rlcf	___fldiv@b^0,f,c
 11616  00135E  3610               	rlcf	(___fldiv@b+1)^0,f,c
 11617  001360  3611               	rlcf	(___fldiv@b+2)^0,f,c
 11618  001362  3612               	rlcf	(___fldiv@b+3)^0,f,c
 11619  001364  AE25               	btfss	(___fldiv@grs+3)^0,7,c
 11620  001366  EFB7  F009         	goto	u5441
 11621  00136A  EFB9  F009         	goto	u5440
 11622  00136E                     u5441:
 11623  00136E  EFBA  F009         	goto	l1294
 11624  001372                     u5440:
 11625  001372  800F               	bsf	___fldiv@b^0,0,c
 11626  001374                     l1294:
 11627  001374  90D8               	bcf	status,0,c
 11628  001376  3622               	rlcf	___fldiv@grs^0,f,c
 11629  001378  3623               	rlcf	(___fldiv@grs+1)^0,f,c
 11630  00137A  3624               	rlcf	(___fldiv@grs+2)^0,f,c
 11631  00137C  3625               	rlcf	(___fldiv@grs+3)^0,f,c
 11632  00137E                     l5148:
 11633  00137E  5013               	movf	___fldiv@a^0,w,c
 11634  001380  5C1B               	subwf	___fldiv@rem^0,w,c
 11635  001382  5014               	movf	(___fldiv@a+1)^0,w,c
 11636  001384  581C               	subwfb	(___fldiv@rem+1)^0,w,c
 11637  001386  5015               	movf	(___fldiv@a+2)^0,w,c
 11638  001388  581D               	subwfb	(___fldiv@rem+2)^0,w,c
 11639  00138A  5016               	movf	(___fldiv@a+3)^0,w,c
 11640  00138C  581E               	subwfb	(___fldiv@rem+3)^0,w,c
 11641  00138E  A0D8               	btfss	status,0,c
 11642  001390  EFCC  F009         	goto	u5451
 11643  001394  EFCE  F009         	goto	u5450
 11644  001398                     u5451:
 11645  001398  EFD7  F009         	goto	l5154
 11646  00139C                     u5450:
 11647  00139C  8C25               	bsf	(___fldiv@grs+3)^0,6,c
 11648  00139E  5013               	movf	___fldiv@a^0,w,c
 11649  0013A0  5E1B               	subwf	___fldiv@rem^0,f,c
 11650  0013A2  5014               	movf	(___fldiv@a+1)^0,w,c
 11651  0013A4  5A1C               	subwfb	(___fldiv@rem+1)^0,f,c
 11652  0013A6  5015               	movf	(___fldiv@a+2)^0,w,c
 11653  0013A8  5A1D               	subwfb	(___fldiv@rem+2)^0,f,c
 11654  0013AA  5016               	movf	(___fldiv@a+3)^0,w,c
 11655  0013AC  5A1E               	subwfb	(___fldiv@rem+3)^0,f,c
 11656  0013AE                     l5154:
 11657  0013AE  2A27               	incf	___fldiv@aexp^0,f,c
 11658  0013B0                     l1291:
 11659  0013B0  0E19               	movlw	25
 11660  0013B2  6427               	cpfsgt	___fldiv@aexp^0,c
 11661  0013B4  EFDE  F009         	goto	u5461
 11662  0013B8  EFE0  F009         	goto	u5460
 11663  0013BC                     u5461:
 11664  0013BC  EFA0  F009         	goto	l5140
 11665  0013C0                     u5460:
 11666  0013C0  501B               	movf	___fldiv@rem^0,w,c
 11667  0013C2  101C               	iorwf	(___fldiv@rem+1)^0,w,c
 11668  0013C4  101D               	iorwf	(___fldiv@rem+2)^0,w,c
 11669  0013C6  101E               	iorwf	(___fldiv@rem+3)^0,w,c
 11670  0013C8  B4D8               	btfsc	status,2,c
 11671  0013CA  EFE9  F009         	goto	u5471
 11672  0013CE  EFEB  F009         	goto	u5470
 11673  0013D2                     u5471:
 11674  0013D2  EF03  F00A         	goto	l5166
 11675  0013D6                     u5470:
 11676  0013D6  8022               	bsf	___fldiv@grs^0,0,c
 11677  0013D8  EF03  F00A         	goto	l5166
 11678  0013DC                     l5160:
 11679  0013DC  90D8               	bcf	status,0,c
 11680  0013DE  360F               	rlcf	___fldiv@b^0,f,c
 11681  0013E0  3610               	rlcf	(___fldiv@b+1)^0,f,c
 11682  0013E2  3611               	rlcf	(___fldiv@b+2)^0,f,c
 11683  0013E4  3612               	rlcf	(___fldiv@b+3)^0,f,c
 11684  0013E6  AE25               	btfss	(___fldiv@grs+3)^0,7,c
 11685  0013E8  EFF8  F009         	goto	u5481
 11686  0013EC  EFFA  F009         	goto	u5480
 11687  0013F0                     u5481:
 11688  0013F0  EFFB  F009         	goto	l1300
 11689  0013F4                     u5480:
 11690  0013F4  800F               	bsf	___fldiv@b^0,0,c
 11691  0013F6                     l1300:
 11692  0013F6  90D8               	bcf	status,0,c
 11693  0013F8  3622               	rlcf	___fldiv@grs^0,f,c
 11694  0013FA  3623               	rlcf	(___fldiv@grs+1)^0,f,c
 11695  0013FC  3624               	rlcf	(___fldiv@grs+2)^0,f,c
 11696  0013FE  3625               	rlcf	(___fldiv@grs+3)^0,f,c
 11697  001400  0620               	decf	___fldiv@new_exp^0,f,c
 11698  001402  A0D8               	btfss	status,0,c
 11699  001404  0621               	decf	(___fldiv@new_exp+1)^0,f,c
 11700  001406                     l5166:
 11701  001406  AE11               	btfss	(___fldiv@b+2)^0,7,c
 11702  001408  EF08  F00A         	goto	u5491
 11703  00140C  EF0A  F00A         	goto	u5490
 11704  001410                     u5491:
 11705  001410  EFEE  F009         	goto	l5160
 11706  001414                     u5490:
 11707  001414  0E00               	movlw	0
 11708  001416  6E27               	movwf	___fldiv@aexp^0,c
 11709  001418  AE25               	btfss	(___fldiv@grs+3)^0,7,c
 11710  00141A  EF11  F00A         	goto	u5501
 11711  00141E  EF13  F00A         	goto	u5500
 11712  001422                     u5501:
 11713  001422  EF37  F00A         	goto	l1302
 11714  001426                     u5500:
 11715  001426  0EFF               	movlw	255
 11716  001428  1422               	andwf	___fldiv@grs^0,w,c
 11717  00142A  6E17               	movwf	??___fldiv^0,c
 11718  00142C  0EFF               	movlw	255
 11719  00142E  1423               	andwf	(___fldiv@grs+1)^0,w,c
 11720  001430  6E18               	movwf	(??___fldiv+1)^0,c
 11721  001432  0EFF               	movlw	255
 11722  001434  1424               	andwf	(___fldiv@grs+2)^0,w,c
 11723  001436  6E19               	movwf	(??___fldiv+2)^0,c
 11724  001438  0E7F               	movlw	127
 11725  00143A  1425               	andwf	(___fldiv@grs+3)^0,w,c
 11726  00143C  6E1A               	movwf	(??___fldiv+3)^0,c
 11727  00143E  5017               	movf	??___fldiv^0,w,c
 11728  001440  1018               	iorwf	(??___fldiv+1)^0,w,c
 11729  001442  1019               	iorwf	(??___fldiv+2)^0,w,c
 11730  001444  101A               	iorwf	(??___fldiv+3)^0,w,c
 11731  001446  B4D8               	btfsc	status,2,c
 11732  001448  EF28  F00A         	goto	u5511
 11733  00144C  EF2A  F00A         	goto	u5510
 11734  001450                     u5511:
 11735  001450  EF2E  F00A         	goto	l1303
 11736  001454                     u5510:
 11737  001454                     l5174:
 11738  001454  0E01               	movlw	1
 11739  001456  6E27               	movwf	___fldiv@aexp^0,c
 11740  001458  EF37  F00A         	goto	l1302
 11741  00145C                     l1303:
 11742  00145C  A00F               	btfss	___fldiv@b^0,0,c
 11743  00145E  EF33  F00A         	goto	u5521
 11744  001462  EF35  F00A         	goto	u5520
 11745  001466                     u5521:
 11746  001466  EF37  F00A         	goto	l1302
 11747  00146A                     u5520:
 11748  00146A  EF2A  F00A         	goto	l5174
 11749  00146E                     l1302:
 11750  00146E  5027               	movf	___fldiv@aexp^0,w,c
 11751  001470  B4D8               	btfsc	status,2,c
 11752  001472  EF3D  F00A         	goto	u5531
 11753  001476  EF3F  F00A         	goto	u5530
 11754  00147A                     u5531:
 11755  00147A  EF63  F00A         	goto	l5186
 11756  00147E                     u5530:
 11757  00147E  0E01               	movlw	1
 11758  001480  260F               	addwf	___fldiv@b^0,f,c
 11759  001482  0E00               	movlw	0
 11760  001484  2210               	addwfc	(___fldiv@b+1)^0,f,c
 11761  001486  2211               	addwfc	(___fldiv@b+2)^0,f,c
 11762  001488  2212               	addwfc	(___fldiv@b+3)^0,f,c
 11763  00148A  A012               	btfss	(___fldiv@b+3)^0,0,c
 11764  00148C  EF4A  F00A         	goto	u5541
 11765  001490  EF4C  F00A         	goto	u5540
 11766  001494                     u5541:
 11767  001494  EF63  F00A         	goto	l5186
 11768  001498                     u5540:
 11769  001498  C00F  F017         	movff	___fldiv@b,??___fldiv
 11770  00149C  C010  F018         	movff	___fldiv@b+1,??___fldiv+1
 11771  0014A0  C011  F019         	movff	___fldiv@b+2,??___fldiv+2
 11772  0014A4  C012  F01A         	movff	___fldiv@b+3,??___fldiv+3
 11773  0014A8  341A               	rlcf	(??___fldiv+3)^0,w,c
 11774  0014AA  321A               	rrcf	(??___fldiv+3)^0,f,c
 11775  0014AC  3219               	rrcf	(??___fldiv+2)^0,f,c
 11776  0014AE  3218               	rrcf	(??___fldiv+1)^0,f,c
 11777  0014B0  3217               	rrcf	??___fldiv^0,f,c
 11778  0014B2  C017  F00F         	movff	??___fldiv,___fldiv@b
 11779  0014B6  C018  F010         	movff	??___fldiv+1,___fldiv@b+1
 11780  0014BA  C019  F011         	movff	??___fldiv+2,___fldiv@b+2
 11781  0014BE  C01A  F012         	movff	??___fldiv+3,___fldiv@b+3
 11782  0014C2  4A20               	infsnz	___fldiv@new_exp^0,f,c
 11783  0014C4  2A21               	incf	(___fldiv@new_exp+1)^0,f,c
 11784  0014C6                     l5186:
 11785  0014C6  BE21               	btfsc	(___fldiv@new_exp+1)^0,7,c
 11786  0014C8  EF6E  F00A         	goto	u5551
 11787  0014CC  5021               	movf	(___fldiv@new_exp+1)^0,w,c
 11788  0014CE  E108               	bnz	u5550
 11789  0014D0  2820               	incf	___fldiv@new_exp^0,w,c
 11790  0014D2  A0D8               	btfss	status,0,c
 11791  0014D4  EF6E  F00A         	goto	u5551
 11792  0014D8  EF70  F00A         	goto	u5550
 11793  0014DC                     u5551:
 11794  0014DC  EF7B  F00A         	goto	l5190
 11795  0014E0                     u5550:
 11796  0014E0  0E00               	movlw	0
 11797  0014E2  6E21               	movwf	(___fldiv@new_exp+1)^0,c
 11798  0014E4  6820               	setf	___fldiv@new_exp^0,c
 11799  0014E6  0E00               	movlw	0
 11800  0014E8  6E0F               	movwf	___fldiv@b^0,c
 11801  0014EA  0E00               	movlw	0
 11802  0014EC  6E10               	movwf	(___fldiv@b+1)^0,c
 11803  0014EE  0E00               	movlw	0
 11804  0014F0  6E11               	movwf	(___fldiv@b+2)^0,c
 11805  0014F2  0E00               	movlw	0
 11806  0014F4  6E12               	movwf	(___fldiv@b+3)^0,c
 11807  0014F6                     l5190:
 11808  0014F6  BE21               	btfsc	(___fldiv@new_exp+1)^0,7,c
 11809  0014F8  EF88  F00A         	goto	u5560
 11810  0014FC  5021               	movf	(___fldiv@new_exp+1)^0,w,c
 11811  0014FE  E106               	bnz	u5561
 11812  001500  0420               	decf	___fldiv@new_exp^0,w,c
 11813  001502  B0D8               	btfsc	status,0,c
 11814  001504  EF86  F00A         	goto	u5561
 11815  001508  EF88  F00A         	goto	u5560
 11816  00150C                     u5561:
 11817  00150C  EF96  F00A         	goto	l5194
 11818  001510                     u5560:
 11819  001510  0E00               	movlw	0
 11820  001512  6E21               	movwf	(___fldiv@new_exp+1)^0,c
 11821  001514  0E00               	movlw	0
 11822  001516  6E20               	movwf	___fldiv@new_exp^0,c
 11823  001518  0E00               	movlw	0
 11824  00151A  6E0F               	movwf	___fldiv@b^0,c
 11825  00151C  0E00               	movlw	0
 11826  00151E  6E10               	movwf	(___fldiv@b+1)^0,c
 11827  001520  0E00               	movlw	0
 11828  001522  6E11               	movwf	(___fldiv@b+2)^0,c
 11829  001524  0E00               	movlw	0
 11830  001526  6E12               	movwf	(___fldiv@b+3)^0,c
 11831  001528  0E00               	movlw	0
 11832  00152A  6E1F               	movwf	___fldiv@sign^0,c
 11833  00152C                     l5194:
 11834  00152C  C020  F026         	movff	___fldiv@new_exp,___fldiv@bexp
 11835  001530  A026               	btfss	___fldiv@bexp^0,0,c
 11836  001532  EF9D  F00A         	goto	u5571
 11837  001536  EF9F  F00A         	goto	u5570
 11838  00153A                     u5571:
 11839  00153A  EFA2  F00A         	goto	l5200
 11840  00153E                     u5570:
 11841  00153E  8E11               	bsf	(___fldiv@b+2)^0,7,c
 11842  001540  EFA3  F00A         	goto	l5202
 11843  001544                     l5200:
 11844  001544  9E11               	bcf	(___fldiv@b+2)^0,7,c
 11845  001546                     l5202:
 11846  001546  90D8               	bcf	status,0,c
 11847  001548  3026               	rrcf	___fldiv@bexp^0,w,c
 11848  00154A  6E12               	movwf	(___fldiv@b+3)^0,c
 11849  00154C  EF59  F009         	goto	l5116
 11850  001550                     l1289:
 11851  001550  0012               	return		;funcret
 11852  001552                     __end_of___fldiv:
 11853                           	callstack 0
 11854                           
 11855 ;; *************** function ___fladd *****************
 11856 ;; Defined at:
 11857 ;;		line 10 in file "D:\mplab\pic\sources\c99\common\sprcadd.c"
 11858 ;; Parameters:    Size  Location     Type
 11859 ;;  b               4   39[COMRAM] unsigned char 
 11860 ;;  a               4   43[COMRAM] unsigned char 
 11861 ;; Auto vars:     Size  Location     Type
 11862 ;;  grs             1   54[COMRAM] unsigned char 
 11863 ;;  bexp            1   53[COMRAM] unsigned char 
 11864 ;;  aexp            1   52[COMRAM] unsigned char 
 11865 ;;  signs           1   51[COMRAM] unsigned char 
 11866 ;; Return value:  Size  Location     Type
 11867 ;;                  4   39[COMRAM] unsigned char 
 11868 ;; Registers used:
 11869 ;;		wreg, status,2, status,0
 11870 ;; Tracked objects:
 11871 ;;		On entry : 0/0
 11872 ;;		On exit  : 0/0
 11873 ;;		Unchanged: 0/0
 11874 ;; Data sizes:     COMRAM   BANK0   BANK1   BANK2   BANK3   BANK4   BANK5   BANK6   BANK7
 11875 ;;      Params:         8       0       0       0       0       0       0       0       0
 11876 ;;      Locals:         4       0       0       0       0       0       0       0       0
 11877 ;;      Temps:          4       0       0       0       0       0       0       0       0
 11878 ;;      Totals:        16       0       0       0       0       0       0       0       0
 11879 ;;Total ram usage:       16 bytes
 11880 ;; Hardware stack levels used: 1
 11881 ;; This function calls:
 11882 ;;		Nothing
 11883 ;; This function is called by:
 11884 ;;		_USART_Init
 11885 ;; This function uses a non-reentrant model
 11886 ;;
 11887                           
 11888                           	psect	text84
 11889  0008CE                     __ptext84:
 11890                           	callstack 0
 11891  0008CE                     ___fladd:
 11892                           	callstack 29
 11893  0008CE  502B               	movf	(___fladd@b+3)^0,w,c
 11894  0008D0  0B80               	andlw	128
 11895  0008D2  6E34               	movwf	___fladd@signs^0,c
 11896  0008D4  502B               	movf	(___fladd@b+3)^0,w,c
 11897  0008D6  242B               	addwf	(___fladd@b+3)^0,w,c
 11898  0008D8  6E36               	movwf	___fladd@bexp^0,c
 11899  0008DA  AE2A               	btfss	(___fladd@b+2)^0,7,c
 11900  0008DC  EF72  F004         	goto	u4961
 11901  0008E0  EF74  F004         	goto	u4960
 11902  0008E4                     u4961:
 11903  0008E4  EF75  F004         	goto	l4876
 11904  0008E8                     u4960:
 11905  0008E8  8036               	bsf	___fladd@bexp^0,0,c
 11906  0008EA                     l4876:
 11907  0008EA  5036               	movf	___fladd@bexp^0,w,c
 11908  0008EC  B4D8               	btfsc	status,2,c
 11909  0008EE  EF7B  F004         	goto	u4971
 11910  0008F2  EF7D  F004         	goto	u4970
 11911  0008F6                     u4971:
 11912  0008F6  EF92  F004         	goto	l4886
 11913  0008FA                     u4970:
 11914  0008FA  2836               	incf	___fladd@bexp^0,w,c
 11915  0008FC  A4D8               	btfss	status,2,c
 11916  0008FE  EF83  F004         	goto	u4981
 11917  000902  EF85  F004         	goto	u4980
 11918  000906                     u4981:
 11919  000906  EF8D  F004         	goto	l4882
 11920  00090A                     u4980:
 11921  00090A  0E00               	movlw	0
 11922  00090C  6E28               	movwf	___fladd@b^0,c
 11923  00090E  0E00               	movlw	0
 11924  000910  6E29               	movwf	(___fladd@b+1)^0,c
 11925  000912  0E00               	movlw	0
 11926  000914  6E2A               	movwf	(___fladd@b+2)^0,c
 11927  000916  0E00               	movlw	0
 11928  000918  6E2B               	movwf	(___fladd@b+3)^0,c
 11929  00091A                     l4882:
 11930  00091A  8E2A               	bsf	(___fladd@b+2)^0,7,c
 11931  00091C  0E00               	movlw	0
 11932  00091E  6E2B               	movwf	(___fladd@b+3)^0,c
 11933  000920  EF9A  F004         	goto	l4888
 11934  000924                     l4886:
 11935  000924  0E00               	movlw	0
 11936  000926  6E28               	movwf	___fladd@b^0,c
 11937  000928  0E00               	movlw	0
 11938  00092A  6E29               	movwf	(___fladd@b+1)^0,c
 11939  00092C  0E00               	movlw	0
 11940  00092E  6E2A               	movwf	(___fladd@b+2)^0,c
 11941  000930  0E00               	movlw	0
 11942  000932  6E2B               	movwf	(___fladd@b+3)^0,c
 11943  000934                     l4888:
 11944  000934  502F               	movf	(___fladd@a+3)^0,w,c
 11945  000936  0B80               	andlw	128
 11946  000938  6E35               	movwf	___fladd@aexp^0,c
 11947  00093A  5034               	movf	___fladd@signs^0,w,c
 11948  00093C  1835               	xorwf	___fladd@aexp^0,w,c
 11949  00093E  B4D8               	btfsc	status,2,c
 11950  000940  EFA4  F004         	goto	u4991
 11951  000944  EFA6  F004         	goto	u4990
 11952  000948                     u4991:
 11953  000948  EFA7  F004         	goto	l4894
 11954  00094C                     u4990:
 11955  00094C  8C34               	bsf	___fladd@signs^0,6,c
 11956  00094E                     l4894:
 11957  00094E  502F               	movf	(___fladd@a+3)^0,w,c
 11958  000950  242F               	addwf	(___fladd@a+3)^0,w,c
 11959  000952  6E35               	movwf	___fladd@aexp^0,c
 11960  000954  AE2E               	btfss	(___fladd@a+2)^0,7,c
 11961  000956  EFAF  F004         	goto	u5001
 11962  00095A  EFB1  F004         	goto	u5000
 11963  00095E                     u5001:
 11964  00095E  EFB2  F004         	goto	l4900
 11965  000962                     u5000:
 11966  000962  8035               	bsf	___fladd@aexp^0,0,c
 11967  000964                     l4900:
 11968  000964  5035               	movf	___fladd@aexp^0,w,c
 11969  000966  B4D8               	btfsc	status,2,c
 11970  000968  EFB8  F004         	goto	u5011
 11971  00096C  EFBA  F004         	goto	u5010
 11972  000970                     u5011:
 11973  000970  EFCF  F004         	goto	l4910
 11974  000974                     u5010:
 11975  000974  2835               	incf	___fladd@aexp^0,w,c
 11976  000976  A4D8               	btfss	status,2,c
 11977  000978  EFC0  F004         	goto	u5021
 11978  00097C  EFC2  F004         	goto	u5020
 11979  000980                     u5021:
 11980  000980  EFCA  F004         	goto	l4906
 11981  000984                     u5020:
 11982  000984  0E00               	movlw	0
 11983  000986  6E2C               	movwf	___fladd@a^0,c
 11984  000988  0E00               	movlw	0
 11985  00098A  6E2D               	movwf	(___fladd@a+1)^0,c
 11986  00098C  0E00               	movlw	0
 11987  00098E  6E2E               	movwf	(___fladd@a+2)^0,c
 11988  000990  0E00               	movlw	0
 11989  000992  6E2F               	movwf	(___fladd@a+3)^0,c
 11990  000994                     l4906:
 11991  000994  8E2E               	bsf	(___fladd@a+2)^0,7,c
 11992  000996  0E00               	movlw	0
 11993  000998  6E2F               	movwf	(___fladd@a+3)^0,c
 11994  00099A  EFD7  F004         	goto	l4912
 11995  00099E                     l4910:
 11996  00099E  0E00               	movlw	0
 11997  0009A0  6E2C               	movwf	___fladd@a^0,c
 11998  0009A2  0E00               	movlw	0
 11999  0009A4  6E2D               	movwf	(___fladd@a+1)^0,c
 12000  0009A6  0E00               	movlw	0
 12001  0009A8  6E2E               	movwf	(___fladd@a+2)^0,c
 12002  0009AA  0E00               	movlw	0
 12003  0009AC  6E2F               	movwf	(___fladd@a+3)^0,c
 12004  0009AE                     l4912:
 12005  0009AE  5036               	movf	___fladd@bexp^0,w,c
 12006  0009B0  5C35               	subwf	___fladd@aexp^0,w,c
 12007  0009B2  B0D8               	btfsc	status,0,c
 12008  0009B4  EFDE  F004         	goto	u5031
 12009  0009B8  EFE0  F004         	goto	u5030
 12010  0009BC                     u5031:
 12011  0009BC  EF07  F005         	goto	l4948
 12012  0009C0                     u5030:
 12013  0009C0  AC34               	btfss	___fladd@signs^0,6,c
 12014  0009C2  EFE5  F004         	goto	u5041
 12015  0009C6  EFE7  F004         	goto	u5040
 12016  0009CA                     u5041:
 12017  0009CA  EFE9  F004         	goto	l4918
 12018  0009CE                     u5040:
 12019  0009CE  0E80               	movlw	128
 12020  0009D0  1A34               	xorwf	___fladd@signs^0,f,c
 12021  0009D2                     l4918:
 12022  0009D2  C036  F037         	movff	___fladd@bexp,___fladd@grs
 12023  0009D6  C035  F036         	movff	___fladd@aexp,___fladd@bexp
 12024  0009DA  C037  F035         	movff	___fladd@grs,___fladd@aexp
 12025  0009DE  C028  F037         	movff	___fladd@b,___fladd@grs
 12026  0009E2  C02C  F028         	movff	___fladd@a,___fladd@b
 12027  0009E6  C037  F02C         	movff	___fladd@grs,___fladd@a
 12028  0009EA  C029  F037         	movff	___fladd@b+1,___fladd@grs
 12029  0009EE  C02D  F029         	movff	___fladd@a+1,___fladd@b+1
 12030  0009F2  C037  F02D         	movff	___fladd@grs,___fladd@a+1
 12031  0009F6  C02A  F037         	movff	___fladd@b+2,___fladd@grs
 12032  0009FA  C02E  F02A         	movff	___fladd@a+2,___fladd@b+2
 12033  0009FE  C037  F02E         	movff	___fladd@grs,___fladd@a+2
 12034  000A02  C02B  F037         	movff	___fladd@b+3,___fladd@grs
 12035  000A06  C02F  F02B         	movff	___fladd@a+3,___fladd@b+3
 12036  000A0A  C037  F02F         	movff	___fladd@grs,___fladd@a+3
 12037  000A0E                     l4948:
 12038  000A0E  0E00               	movlw	0
 12039  000A10  6E37               	movwf	___fladd@grs^0,c
 12040  000A12  5036               	movf	___fladd@bexp^0,w,c
 12041  000A14  C035  F030         	movff	___fladd@aexp,??___fladd
 12042  000A18  6A31               	clrf	(??___fladd+1)^0,c
 12043  000A1A  5E30               	subwf	??___fladd^0,f,c
 12044  000A1C  0E00               	movlw	0
 12045  000A1E  5A31               	subwfb	(??___fladd+1)^0,f,c
 12046  000A20  BE31               	btfsc	(??___fladd+1)^0,7,c
 12047  000A22  EF1C  F005         	goto	u5051
 12048  000A26  5031               	movf	(??___fladd+1)^0,w,c
 12049  000A28  E109               	bnz	u5050
 12050  000A2A  0E1A               	movlw	26
 12051  000A2C  5C30               	subwf	??___fladd^0,w,c
 12052  000A2E  A0D8               	btfss	status,0,c
 12053  000A30  EF1C  F005         	goto	u5051
 12054  000A34  EF1E  F005         	goto	u5050
 12055  000A38                     u5051:
 12056  000A38  EF55  F005         	goto	l1236
 12057  000A3C                     u5050:
 12058  000A3C  5028               	movf	___fladd@b^0,w,c
 12059  000A3E  1029               	iorwf	(___fladd@b+1)^0,w,c
 12060  000A40  102A               	iorwf	(___fladd@b+2)^0,w,c
 12061  000A42  102B               	iorwf	(___fladd@b+3)^0,w,c
 12062  000A44  A4D8               	btfss	status,2,c
 12063  000A46  EF27  F005         	goto	u5061
 12064  000A4A  EF2A  F005         	goto	u5060
 12065  000A4E                     u5061:
 12066  000A4E  0E01               	movlw	1
 12067  000A50  EF2B  F005         	goto	u5070
 12068  000A54                     u5060:
 12069  000A54  0E00               	movlw	0
 12070  000A56                     u5070:
 12071  000A56  6E37               	movwf	___fladd@grs^0,c
 12072  000A58  0E00               	movlw	0
 12073  000A5A  6E28               	movwf	___fladd@b^0,c
 12074  000A5C  0E00               	movlw	0
 12075  000A5E  6E29               	movwf	(___fladd@b+1)^0,c
 12076  000A60  0E00               	movlw	0
 12077  000A62  6E2A               	movwf	(___fladd@b+2)^0,c
 12078  000A64  0E00               	movlw	0
 12079  000A66  6E2B               	movwf	(___fladd@b+3)^0,c
 12080  000A68  C035  F036         	movff	___fladd@aexp,___fladd@bexp
 12081  000A6C  EF5E  F005         	goto	l1235
 12082  000A70                     l1237:
 12083  000A70  A037               	btfss	___fladd@grs^0,0,c
 12084  000A72  EF3D  F005         	goto	u5081
 12085  000A76  EF3F  F005         	goto	u5080
 12086  000A7A                     u5081:
 12087  000A7A  EF45  F005         	goto	l4960
 12088  000A7E                     u5080:
 12089  000A7E  90D8               	bcf	status,0,c
 12090  000A80  3037               	rrcf	___fladd@grs^0,w,c
 12091  000A82  0901               	iorlw	1
 12092  000A84  6E37               	movwf	___fladd@grs^0,c
 12093  000A86  EF47  F005         	goto	l4962
 12094  000A8A                     l4960:
 12095  000A8A  90D8               	bcf	status,0,c
 12096  000A8C  3237               	rrcf	___fladd@grs^0,f,c
 12097  000A8E                     l4962:
 12098  000A8E  A028               	btfss	___fladd@b^0,0,c
 12099  000A90  EF4C  F005         	goto	u5091
 12100  000A94  EF4E  F005         	goto	u5090
 12101  000A98                     u5091:
 12102  000A98  EF4F  F005         	goto	l4966
 12103  000A9C                     u5090:
 12104  000A9C  8E37               	bsf	___fladd@grs^0,7,c
 12105  000A9E                     l4966:
 12106  000A9E  342B               	rlcf	(___fladd@b+3)^0,w,c
 12107  000AA0  322B               	rrcf	(___fladd@b+3)^0,f,c
 12108  000AA2  322A               	rrcf	(___fladd@b+2)^0,f,c
 12109  000AA4  3229               	rrcf	(___fladd@b+1)^0,f,c
 12110  000AA6  3228               	rrcf	___fladd@b^0,f,c
 12111  000AA8  2A36               	incf	___fladd@bexp^0,f,c
 12112  000AAA                     l1236:
 12113  000AAA  5035               	movf	___fladd@aexp^0,w,c
 12114  000AAC  5C36               	subwf	___fladd@bexp^0,w,c
 12115  000AAE  A0D8               	btfss	status,0,c
 12116  000AB0  EF5C  F005         	goto	u5101
 12117  000AB4  EF5E  F005         	goto	u5100
 12118  000AB8                     u5101:
 12119  000AB8  EF38  F005         	goto	l1237
 12120  000ABC                     u5100:
 12121  000ABC                     l1235:
 12122  000ABC  BC34               	btfsc	___fladd@signs^0,6,c
 12123  000ABE  EF63  F005         	goto	u5111
 12124  000AC2  EF65  F005         	goto	u5110
 12125  000AC6                     u5111:
 12126  000AC6  EFA5  F005         	goto	l4994
 12127  000ACA                     u5110:
 12128  000ACA  5036               	movf	___fladd@bexp^0,w,c
 12129  000ACC  A4D8               	btfss	status,2,c
 12130  000ACE  EF6B  F005         	goto	u5121
 12131  000AD2  EF6D  F005         	goto	u5120
 12132  000AD6                     u5121:
 12133  000AD6  EF77  F005         	goto	l4976
 12134  000ADA                     u5120:
 12135  000ADA  0E00               	movlw	0
 12136  000ADC  6E28               	movwf	?___fladd^0,c
 12137  000ADE  0E00               	movlw	0
 12138  000AE0  6E29               	movwf	(?___fladd+1)^0,c
 12139  000AE2  0E00               	movlw	0
 12140  000AE4  6E2A               	movwf	(?___fladd+2)^0,c
 12141  000AE6  0E00               	movlw	0
 12142  000AE8  6E2B               	movwf	(?___fladd+3)^0,c
 12143  000AEA  EFC6  F006         	goto	l1244
 12144  000AEE                     l4976:
 12145  000AEE  502C               	movf	___fladd@a^0,w,c
 12146  000AF0  2628               	addwf	___fladd@b^0,f,c
 12147  000AF2  502D               	movf	(___fladd@a+1)^0,w,c
 12148  000AF4  2229               	addwfc	(___fladd@b+1)^0,f,c
 12149  000AF6  502E               	movf	(___fladd@a+2)^0,w,c
 12150  000AF8  222A               	addwfc	(___fladd@b+2)^0,f,c
 12151  000AFA  502F               	movf	(___fladd@a+3)^0,w,c
 12152  000AFC  222B               	addwfc	(___fladd@b+3)^0,f,c
 12153  000AFE  A02B               	btfss	(___fladd@b+3)^0,0,c
 12154  000B00  EF84  F005         	goto	u5131
 12155  000B04  EF86  F005         	goto	u5130
 12156  000B08                     u5131:
 12157  000B08  EF32  F006         	goto	l5030
 12158  000B0C                     u5130:
 12159  000B0C  A037               	btfss	___fladd@grs^0,0,c
 12160  000B0E  EF8B  F005         	goto	u5141
 12161  000B12  EF8D  F005         	goto	u5140
 12162  000B16                     u5141:
 12163  000B16  EF93  F005         	goto	l4984
 12164  000B1A                     u5140:
 12165  000B1A  90D8               	bcf	status,0,c
 12166  000B1C  3037               	rrcf	___fladd@grs^0,w,c
 12167  000B1E  0901               	iorlw	1
 12168  000B20  6E37               	movwf	___fladd@grs^0,c
 12169  000B22  EF95  F005         	goto	l4986
 12170  000B26                     l4984:
 12171  000B26  90D8               	bcf	status,0,c
 12172  000B28  3237               	rrcf	___fladd@grs^0,f,c
 12173  000B2A                     l4986:
 12174  000B2A  A028               	btfss	___fladd@b^0,0,c
 12175  000B2C  EF9A  F005         	goto	u5151
 12176  000B30  EF9C  F005         	goto	u5150
 12177  000B34                     u5151:
 12178  000B34  EF9D  F005         	goto	l4990
 12179  000B38                     u5150:
 12180  000B38  8E37               	bsf	___fladd@grs^0,7,c
 12181  000B3A                     l4990:
 12182  000B3A  342B               	rlcf	(___fladd@b+3)^0,w,c
 12183  000B3C  322B               	rrcf	(___fladd@b+3)^0,f,c
 12184  000B3E  322A               	rrcf	(___fladd@b+2)^0,f,c
 12185  000B40  3229               	rrcf	(___fladd@b+1)^0,f,c
 12186  000B42  3228               	rrcf	___fladd@b^0,f,c
 12187  000B44  2A36               	incf	___fladd@bexp^0,f,c
 12188  000B46  EF32  F006         	goto	l5030
 12189  000B4A                     l4994:
 12190  000B4A  502C               	movf	___fladd@a^0,w,c
 12191  000B4C  5C28               	subwf	___fladd@b^0,w,c
 12192  000B4E  502D               	movf	(___fladd@a+1)^0,w,c
 12193  000B50  5829               	subwfb	(___fladd@b+1)^0,w,c
 12194  000B52  502E               	movf	(___fladd@a+2)^0,w,c
 12195  000B54  582A               	subwfb	(___fladd@b+2)^0,w,c
 12196  000B56  502B               	movf	(___fladd@b+3)^0,w,c
 12197  000B58  0A80               	xorlw	128
 12198  000B5A  6E30               	movwf	??___fladd^0,c
 12199  000B5C  502F               	movf	(___fladd@a+3)^0,w,c
 12200  000B5E  0A80               	xorlw	128
 12201  000B60  5830               	subwfb	??___fladd^0,w,c
 12202  000B62  B0D8               	btfsc	status,0,c
 12203  000B64  EFB6  F005         	goto	u5161
 12204  000B68  EFB8  F005         	goto	u5160
 12205  000B6C                     u5161:
 12206  000B6C  EFE3  F005         	goto	l5004
 12207  000B70                     u5160:
 12208  000B70  5028               	movf	___fladd@b^0,w,c
 12209  000B72  5C2C               	subwf	___fladd@a^0,w,c
 12210  000B74  6E30               	movwf	??___fladd^0,c
 12211  000B76  5029               	movf	(___fladd@b+1)^0,w,c
 12212  000B78  582D               	subwfb	(___fladd@a+1)^0,w,c
 12213  000B7A  6E31               	movwf	(??___fladd+1)^0,c
 12214  000B7C  502A               	movf	(___fladd@b+2)^0,w,c
 12215  000B7E  582E               	subwfb	(___fladd@a+2)^0,w,c
 12216  000B80  6E32               	movwf	(??___fladd+2)^0,c
 12217  000B82  502B               	movf	(___fladd@b+3)^0,w,c
 12218  000B84  582F               	subwfb	(___fladd@a+3)^0,w,c
 12219  000B86  6E33               	movwf	(??___fladd+3)^0,c
 12220  000B88  0EFF               	movlw	255
 12221  000B8A  2430               	addwf	??___fladd^0,w,c
 12222  000B8C  6E28               	movwf	___fladd@b^0,c
 12223  000B8E  0EFF               	movlw	255
 12224  000B90  2031               	addwfc	(??___fladd+1)^0,w,c
 12225  000B92  6E29               	movwf	(___fladd@b+1)^0,c
 12226  000B94  0EFF               	movlw	255
 12227  000B96  2032               	addwfc	(??___fladd+2)^0,w,c
 12228  000B98  6E2A               	movwf	(___fladd@b+2)^0,c
 12229  000B9A  0EFF               	movlw	255
 12230  000B9C  2033               	addwfc	(??___fladd+3)^0,w,c
 12231  000B9E  6E2B               	movwf	(___fladd@b+3)^0,c
 12232  000BA0  0E80               	movlw	128
 12233  000BA2  1A34               	xorwf	___fladd@signs^0,f,c
 12234  000BA4  6C37               	negf	___fladd@grs^0,c
 12235  000BA6  5037               	movf	___fladd@grs^0,w,c
 12236  000BA8  A4D8               	btfss	status,2,c
 12237  000BAA  EFD9  F005         	goto	u5171
 12238  000BAE  EFDB  F005         	goto	u5170
 12239  000BB2                     u5171:
 12240  000BB2  EFEB  F005         	goto	l1252
 12241  000BB6                     u5170:
 12242  000BB6  0E01               	movlw	1
 12243  000BB8  2628               	addwf	___fladd@b^0,f,c
 12244  000BBA  0E00               	movlw	0
 12245  000BBC  2229               	addwfc	(___fladd@b+1)^0,f,c
 12246  000BBE  222A               	addwfc	(___fladd@b+2)^0,f,c
 12247  000BC0  222B               	addwfc	(___fladd@b+3)^0,f,c
 12248  000BC2  EFEB  F005         	goto	l1252
 12249  000BC6                     l5004:
 12250  000BC6  502C               	movf	___fladd@a^0,w,c
 12251  000BC8  5E28               	subwf	___fladd@b^0,f,c
 12252  000BCA  502D               	movf	(___fladd@a+1)^0,w,c
 12253  000BCC  5A29               	subwfb	(___fladd@b+1)^0,f,c
 12254  000BCE  502E               	movf	(___fladd@a+2)^0,w,c
 12255  000BD0  5A2A               	subwfb	(___fladd@b+2)^0,f,c
 12256  000BD2  502F               	movf	(___fladd@a+3)^0,w,c
 12257  000BD4  5A2B               	subwfb	(___fladd@b+3)^0,f,c
 12258  000BD6                     l1252:
 12259  000BD6  5028               	movf	___fladd@b^0,w,c
 12260  000BD8  1029               	iorwf	(___fladd@b+1)^0,w,c
 12261  000BDA  102A               	iorwf	(___fladd@b+2)^0,w,c
 12262  000BDC  102B               	iorwf	(___fladd@b+3)^0,w,c
 12263  000BDE  A4D8               	btfss	status,2,c
 12264  000BE0  EFF4  F005         	goto	u5181
 12265  000BE4  EFF6  F005         	goto	u5180
 12266  000BE8                     u5181:
 12267  000BE8  EF2B  F006         	goto	l5028
 12268  000BEC                     u5180:
 12269  000BEC  5037               	movf	___fladd@grs^0,w,c
 12270  000BEE  A4D8               	btfss	status,2,c
 12271  000BF0  EFFC  F005         	goto	u5191
 12272  000BF4  EFFE  F005         	goto	u5190
 12273  000BF8                     u5191:
 12274  000BF8  EF2B  F006         	goto	l5028
 12275  000BFC                     u5190:
 12276  000BFC  0E00               	movlw	0
 12277  000BFE  6E28               	movwf	?___fladd^0,c
 12278  000C00  0E00               	movlw	0
 12279  000C02  6E29               	movwf	(?___fladd+1)^0,c
 12280  000C04  0E00               	movlw	0
 12281  000C06  6E2A               	movwf	(?___fladd+2)^0,c
 12282  000C08  0E00               	movlw	0
 12283  000C0A  6E2B               	movwf	(?___fladd+3)^0,c
 12284  000C0C  EFC6  F006         	goto	l1244
 12285  000C10                     l5012:
 12286  000C10  90D8               	bcf	status,0,c
 12287  000C12  3628               	rlcf	___fladd@b^0,f,c
 12288  000C14  3629               	rlcf	(___fladd@b+1)^0,f,c
 12289  000C16  362A               	rlcf	(___fladd@b+2)^0,f,c
 12290  000C18  362B               	rlcf	(___fladd@b+3)^0,f,c
 12291  000C1A  AE37               	btfss	___fladd@grs^0,7,c
 12292  000C1C  EF12  F006         	goto	u5201
 12293  000C20  EF14  F006         	goto	u5200
 12294  000C24                     u5201:
 12295  000C24  EF15  F006         	goto	l5018
 12296  000C28                     u5200:
 12297  000C28  8028               	bsf	___fladd@b^0,0,c
 12298  000C2A                     l5018:
 12299  000C2A  A037               	btfss	___fladd@grs^0,0,c
 12300  000C2C  EF1A  F006         	goto	u5211
 12301  000C30  EF1C  F006         	goto	u5210
 12302  000C34                     u5211:
 12303  000C34  EF20  F006         	goto	l5022
 12304  000C38                     u5210:
 12305  000C38  80D8               	bsf	status,0,c
 12306  000C3A  3637               	rlcf	___fladd@grs^0,f,c
 12307  000C3C  EF22  F006         	goto	l5024
 12308  000C40                     l5022:
 12309  000C40  90D8               	bcf	status,0,c
 12310  000C42  3637               	rlcf	___fladd@grs^0,f,c
 12311  000C44                     l5024:
 12312  000C44  5036               	movf	___fladd@bexp^0,w,c
 12313  000C46  B4D8               	btfsc	status,2,c
 12314  000C48  EF28  F006         	goto	u5221
 12315  000C4C  EF2A  F006         	goto	u5220
 12316  000C50                     u5221:
 12317  000C50  EF2B  F006         	goto	l5028
 12318  000C54                     u5220:
 12319  000C54  0636               	decf	___fladd@bexp^0,f,c
 12320  000C56                     l5028:
 12321  000C56  AE2A               	btfss	(___fladd@b+2)^0,7,c
 12322  000C58  EF30  F006         	goto	u5231
 12323  000C5C  EF32  F006         	goto	u5230
 12324  000C60                     u5231:
 12325  000C60  EF08  F006         	goto	l5012
 12326  000C64                     u5230:
 12327  000C64                     l5030:
 12328  000C64  0E00               	movlw	0
 12329  000C66  6E35               	movwf	___fladd@aexp^0,c
 12330  000C68  AE37               	btfss	___fladd@grs^0,7,c
 12331  000C6A  EF39  F006         	goto	u5241
 12332  000C6E  EF3B  F006         	goto	u5240
 12333  000C72                     u5241:
 12334  000C72  EF53  F006         	goto	l1261
 12335  000C76                     u5240:
 12336  000C76  C037  F030         	movff	___fladd@grs,??___fladd
 12337  000C7A  0E7F               	movlw	127
 12338  000C7C  1630               	andwf	??___fladd^0,f,c
 12339  000C7E  B4D8               	btfsc	status,2,c
 12340  000C80  EF44  F006         	goto	u5251
 12341  000C84  EF46  F006         	goto	u5250
 12342  000C88                     u5251:
 12343  000C88  EF4A  F006         	goto	l1262
 12344  000C8C                     u5250:
 12345  000C8C                     l5036:
 12346  000C8C  0E01               	movlw	1
 12347  000C8E  6E35               	movwf	___fladd@aexp^0,c
 12348  000C90  EF53  F006         	goto	l1261
 12349  000C94                     l1262:
 12350  000C94  A028               	btfss	___fladd@b^0,0,c
 12351  000C96  EF4F  F006         	goto	u5261
 12352  000C9A  EF51  F006         	goto	u5260
 12353  000C9E                     u5261:
 12354  000C9E  EF53  F006         	goto	l1261
 12355  000CA2                     u5260:
 12356  000CA2  EF46  F006         	goto	l5036
 12357  000CA6                     l1261:
 12358  000CA6  5035               	movf	___fladd@aexp^0,w,c
 12359  000CA8  B4D8               	btfsc	status,2,c
 12360  000CAA  EF59  F006         	goto	u5271
 12361  000CAE  EF5B  F006         	goto	u5270
 12362  000CB2                     u5271:
 12363  000CB2  EF86  F006         	goto	l5048
 12364  000CB6                     u5270:
 12365  000CB6  0E01               	movlw	1
 12366  000CB8  2628               	addwf	___fladd@b^0,f,c
 12367  000CBA  0E00               	movlw	0
 12368  000CBC  2229               	addwfc	(___fladd@b+1)^0,f,c
 12369  000CBE  222A               	addwfc	(___fladd@b+2)^0,f,c
 12370  000CC0  222B               	addwfc	(___fladd@b+3)^0,f,c
 12371  000CC2  A02B               	btfss	(___fladd@b+3)^0,0,c
 12372  000CC4  EF66  F006         	goto	u5281
 12373  000CC8  EF68  F006         	goto	u5280
 12374  000CCC                     u5281:
 12375  000CCC  EF86  F006         	goto	l5048
 12376  000CD0                     u5280:
 12377  000CD0  C028  F030         	movff	___fladd@b,??___fladd
 12378  000CD4  C029  F031         	movff	___fladd@b+1,??___fladd+1
 12379  000CD8  C02A  F032         	movff	___fladd@b+2,??___fladd+2
 12380  000CDC  C02B  F033         	movff	___fladd@b+3,??___fladd+3
 12381  000CE0  3433               	rlcf	(??___fladd+3)^0,w,c
 12382  000CE2  3233               	rrcf	(??___fladd+3)^0,f,c
 12383  000CE4  3232               	rrcf	(??___fladd+2)^0,f,c
 12384  000CE6  3231               	rrcf	(??___fladd+1)^0,f,c
 12385  000CE8  3230               	rrcf	??___fladd^0,f,c
 12386  000CEA  C030  F028         	movff	??___fladd,___fladd@b
 12387  000CEE  C031  F029         	movff	??___fladd+1,___fladd@b+1
 12388  000CF2  C032  F02A         	movff	??___fladd+2,___fladd@b+2
 12389  000CF6  C033  F02B         	movff	??___fladd+3,___fladd@b+3
 12390  000CFA  2836               	incf	___fladd@bexp^0,w,c
 12391  000CFC  B4D8               	btfsc	status,2,c
 12392  000CFE  EF83  F006         	goto	u5291
 12393  000D02  EF85  F006         	goto	u5290
 12394  000D06                     u5291:
 12395  000D06  EF86  F006         	goto	l5048
 12396  000D0A                     u5290:
 12397  000D0A  2A36               	incf	___fladd@bexp^0,f,c
 12398  000D0C                     l5048:
 12399  000D0C  2836               	incf	___fladd@bexp^0,w,c
 12400  000D0E  B4D8               	btfsc	status,2,c
 12401  000D10  EF8C  F006         	goto	u5301
 12402  000D14  EF8E  F006         	goto	u5300
 12403  000D18                     u5301:
 12404  000D18  EF96  F006         	goto	l5052
 12405  000D1C                     u5300:
 12406  000D1C  5036               	movf	___fladd@bexp^0,w,c
 12407  000D1E  A4D8               	btfss	status,2,c
 12408  000D20  EF94  F006         	goto	u5311
 12409  000D24  EF96  F006         	goto	u5310
 12410  000D28                     u5311:
 12411  000D28  EFA8  F006         	goto	l5056
 12412  000D2C                     u5310:
 12413  000D2C                     l5052:
 12414  000D2C  0E00               	movlw	0
 12415  000D2E  6E28               	movwf	___fladd@b^0,c
 12416  000D30  0E00               	movlw	0
 12417  000D32  6E29               	movwf	(___fladd@b+1)^0,c
 12418  000D34  0E00               	movlw	0
 12419  000D36  6E2A               	movwf	(___fladd@b+2)^0,c
 12420  000D38  0E00               	movlw	0
 12421  000D3A  6E2B               	movwf	(___fladd@b+3)^0,c
 12422  000D3C  5036               	movf	___fladd@bexp^0,w,c
 12423  000D3E  A4D8               	btfss	status,2,c
 12424  000D40  EFA4  F006         	goto	u5321
 12425  000D44  EFA6  F006         	goto	u5320
 12426  000D48                     u5321:
 12427  000D48  EFA8  F006         	goto	l5056
 12428  000D4C                     u5320:
 12429  000D4C  0E00               	movlw	0
 12430  000D4E  6E34               	movwf	___fladd@signs^0,c
 12431  000D50                     l5056:
 12432  000D50  A036               	btfss	___fladd@bexp^0,0,c
 12433  000D52  EFAD  F006         	goto	u5331
 12434  000D56  EFAF  F006         	goto	u5330
 12435  000D5A                     u5331:
 12436  000D5A  EFB2  F006         	goto	l5060
 12437  000D5E                     u5330:
 12438  000D5E  8E2A               	bsf	(___fladd@b+2)^0,7,c
 12439  000D60  EFB3  F006         	goto	l5062
 12440  000D64                     l5060:
 12441  000D64  9E2A               	bcf	(___fladd@b+2)^0,7,c
 12442  000D66                     l5062:
 12443  000D66  90D8               	bcf	status,0,c
 12444  000D68  3036               	rrcf	___fladd@bexp^0,w,c
 12445  000D6A  6E2B               	movwf	(___fladd@b+3)^0,c
 12446  000D6C  AE34               	btfss	___fladd@signs^0,7,c
 12447  000D6E  EFBB  F006         	goto	u5341
 12448  000D72  EFBD  F006         	goto	u5340
 12449  000D76                     u5341:
 12450  000D76  EFBE  F006         	goto	l5068
 12451  000D7A                     u5340:
 12452  000D7A  8E2B               	bsf	(___fladd@b+3)^0,7,c
 12453  000D7C                     l5068:
 12454  000D7C  C028  F028         	movff	___fladd@b,?___fladd
 12455  000D80  C029  F029         	movff	___fladd@b+1,?___fladd+1
 12456  000D84  C02A  F02A         	movff	___fladd@b+2,?___fladd+2
 12457  000D88  C02B  F02B         	movff	___fladd@b+3,?___fladd+3
 12458  000D8C                     l1244:
 12459  000D8C  0012               	return		;funcret
 12460  000D8E                     __end_of___fladd:
 12461                           	callstack 0
 12462                           
 12463                           	psect	rparam
 12464  0000                     
 12465                           	psect	idloc
 12466                           
 12467                           ;Config register IDLOC0 @ 0x200000
 12468                           ;	unspecified, using default values
 12469  200000                     	org	2097152
 12470  200000  FF                 	db	255
 12471                           
 12472                           ;Config register IDLOC1 @ 0x200001
 12473                           ;	unspecified, using default values
 12474  200001                     	org	2097153
 12475  200001  FF                 	db	255
 12476                           
 12477                           ;Config register IDLOC2 @ 0x200002
 12478                           ;	unspecified, using default values
 12479  200002                     	org	2097154
 12480  200002  FF                 	db	255
 12481                           
 12482                           ;Config register IDLOC3 @ 0x200003
 12483                           ;	unspecified, using default values
 12484  200003                     	org	2097155
 12485  200003  FF                 	db	255
 12486                           
 12487                           ;Config register IDLOC4 @ 0x200004
 12488                           ;	unspecified, using default values
 12489  200004                     	org	2097156
 12490  200004  FF                 	db	255
 12491                           
 12492                           ;Config register IDLOC5 @ 0x200005
 12493                           ;	unspecified, using default values
 12494  200005                     	org	2097157
 12495  200005  FF                 	db	255
 12496                           
 12497                           ;Config register IDLOC6 @ 0x200006
 12498                           ;	unspecified, using default values
 12499  200006                     	org	2097158
 12500  200006  FF                 	db	255
 12501                           
 12502                           ;Config register IDLOC7 @ 0x200007
 12503                           ;	unspecified, using default values
 12504  200007                     	org	2097159
 12505  200007  FF                 	db	255
 12506                           
 12507                           	psect	config
 12508                           
 12509                           ;Config register CONFIG1L @ 0x300000
 12510                           ;	PLL Prescaler Selection bits
 12511                           ;	PLLDIV = 1, No prescale (4 MHz oscillator input drives PLL directly)
 12512                           ;	System Clock Postscaler Selection bits
 12513                           ;	CPUDIV = OSC1_PLL2, [Primary Oscillator Src: /1][96 MHz PLL Src: /2]
 12514                           ;	USB Clock Selection bit (used in Full-Speed USB mode only; UCFG:FSEN = 1)
 12515                           ;	USBDIV = 1, USB clock source comes directly from the primary oscillator block with no 
      +                          postscale
 12516  300000                     	org	3145728
 12517  300000  00                 	db	0
 12518                           
 12519                           ;Config register CONFIG1H @ 0x300001
 12520                           ;	Oscillator Selection bits
 12521                           ;	FOSC = INTOSCIO_EC, Internal oscillator, port function on RA6, EC used by USB (INTIO)
 12522                           ;	Fail-Safe Clock Monitor Enable bit
 12523                           ;	FCMEN = OFF, Fail-Safe Clock Monitor disabled
 12524                           ;	Internal/External Oscillator Switchover bit
 12525                           ;	IESO = OFF, Oscillator Switchover mode disabled
 12526  300001                     	org	3145729
 12527  300001  08                 	db	8
 12528                           
 12529                           ;Config register CONFIG2L @ 0x300002
 12530                           ;	Power-up Timer Enable bit
 12531                           ;	PWRT = OFF, PWRT disabled
 12532                           ;	Brown-out Reset Enable bits
 12533                           ;	BOR = ON, Brown-out Reset enabled in hardware only (SBOREN is disabled)
 12534                           ;	Brown-out Reset Voltage bits
 12535                           ;	BORV = 3, Minimum setting 2.05V
 12536                           ;	USB Voltage Regulator Enable bit
 12537                           ;	VREGEN = OFF, USB voltage regulator disabled
 12538  300002                     	org	3145730
 12539  300002  1F                 	db	31
 12540                           
 12541                           ;Config register CONFIG2H @ 0x300003
 12542                           ;	Watchdog Timer Enable bit
 12543                           ;	WDT = OFF, WDT disabled (control is placed on the SWDTEN bit)
 12544                           ;	Watchdog Timer Postscale Select bits
 12545                           ;	WDTPS = 32768, 1:32768
 12546  300003                     	org	3145731
 12547  300003  1E                 	db	30
 12548                           
 12549                           ; Padding undefined space
 12550  300004                     	org	3145732
 12551  300004  FF                 	db	255
 12552                           
 12553                           ;Config register CONFIG3H @ 0x300005
 12554                           ;	CCP2 MUX bit
 12555                           ;	CCP2MX = ON, CCP2 input/output is multiplexed with RC1
 12556                           ;	PORTB A/D Enable bit
 12557                           ;	PBADEN = OFF, PORTB<4:0> pins are configured as digital I/O on Reset
 12558                           ;	Low-Power Timer 1 Oscillator Enable bit
 12559                           ;	LPT1OSC = OFF, Timer1 configured for higher power operation
 12560                           ;	MCLR Pin Enable bit
 12561                           ;	MCLRE = ON, MCLR pin enabled; RE3 input pin disabled
 12562  300005                     	org	3145733
 12563  300005  81                 	db	129
 12564                           
 12565                           ;Config register CONFIG4L @ 0x300006
 12566                           ;	Stack Full/Underflow Reset Enable bit
 12567                           ;	STVREN = ON, Stack full/underflow will cause Reset
 12568                           ;	Single-Supply ICSP Enable bit
 12569                           ;	LVP = OFF, Single-Supply ICSP disabled
 12570                           ;	Dedicated In-Circuit Debug/Programming Port (ICPORT) Enable bit
 12571                           ;	ICPRT = OFF, ICPORT disabled
 12572                           ;	Extended Instruction Set Enable bit
 12573                           ;	XINST = OFF, Instruction set extension and Indexed Addressing mode disabled (Legacy mo
      +                          de)
 12574                           ;	Background Debugger Enable bit
 12575                           ;	DEBUG = 0x1, unprogrammed default
 12576  300006                     	org	3145734
 12577  300006  81                 	db	129
 12578                           
 12579                           ; Padding undefined space
 12580  300007                     	org	3145735
 12581  300007  FF                 	db	255
 12582                           
 12583                           ;Config register CONFIG5L @ 0x300008
 12584                           ;	Code Protection bit
 12585                           ;	CP0 = OFF, Block 0 (000800-001FFFh) is not code-protected
 12586                           ;	Code Protection bit
 12587                           ;	CP1 = OFF, Block 1 (002000-003FFFh) is not code-protected
 12588                           ;	Code Protection bit
 12589                           ;	CP2 = OFF, Block 2 (004000-005FFFh) is not code-protected
 12590                           ;	Code Protection bit
 12591                           ;	CP3 = OFF, Block 3 (006000-007FFFh) is not code-protected
 12592  300008                     	org	3145736
 12593  300008  0F                 	db	15
 12594                           
 12595                           ;Config register CONFIG5H @ 0x300009
 12596                           ;	Boot Block Code Protection bit
 12597                           ;	CPB = OFF, Boot block (000000-0007FFh) is not code-protected
 12598                           ;	Data EEPROM Code Protection bit
 12599                           ;	CPD = OFF, Data EEPROM is not code-protected
 12600  300009                     	org	3145737
 12601  300009  C0                 	db	192
 12602                           
 12603                           ;Config register CONFIG6L @ 0x30000A
 12604                           ;	Write Protection bit
 12605                           ;	WRT0 = OFF, Block 0 (000800-001FFFh) is not write-protected
 12606                           ;	Write Protection bit
 12607                           ;	WRT1 = OFF, Block 1 (002000-003FFFh) is not write-protected
 12608                           ;	Write Protection bit
 12609                           ;	WRT2 = OFF, Block 2 (004000-005FFFh) is not write-protected
 12610                           ;	Write Protection bit
 12611                           ;	WRT3 = OFF, Block 3 (006000-007FFFh) is not write-protected
 12612  30000A                     	org	3145738
 12613  30000A  0F                 	db	15
 12614                           
 12615                           ;Config register CONFIG6H @ 0x30000B
 12616                           ;	Configuration Register Write Protection bit
 12617                           ;	WRTC = OFF, Configuration registers (300000-3000FFh) are not write-protected
 12618                           ;	Boot Block Write Protection bit
 12619                           ;	WRTB = OFF, Boot block (000000-0007FFh) is not write-protected
 12620                           ;	Data EEPROM Write Protection bit
 12621                           ;	WRTD = OFF, Data EEPROM is not write-protected
 12622  30000B                     	org	3145739
 12623  30000B  E0                 	db	224
 12624                           
 12625                           ;Config register CONFIG7L @ 0x30000C
 12626                           ;	Table Read Protection bit
 12627                           ;	EBTR0 = OFF, Block 0 (000800-001FFFh) is not protected from table reads executed in ot
      +                          her blocks
 12628                           ;	Table Read Protection bit
 12629                           ;	EBTR1 = OFF, Block 1 (002000-003FFFh) is not protected from table reads executed in ot
      +                          her blocks
 12630                           ;	Table Read Protection bit
 12631                           ;	EBTR2 = OFF, Block 2 (004000-005FFFh) is not protected from table reads executed in ot
      +                          her blocks
 12632                           ;	Table Read Protection bit
 12633                           ;	EBTR3 = OFF, Block 3 (006000-007FFFh) is not protected from table reads executed in ot
      +                          her blocks
 12634  30000C                     	org	3145740
 12635  30000C  0F                 	db	15
 12636                           
 12637                           ;Config register CONFIG7H @ 0x30000D
 12638                           ;	Boot Block Table Read Protection bit
 12639                           ;	EBTRB = OFF, Boot block (000000-0007FFh) is not protected from table reads executed in
      +                           other blocks
 12640  30000D                     	org	3145741
 12641  30000D  40                 	db	64
 12642                           tosu	equ	0xFFF
 12643                           tosh	equ	0xFFE
 12644                           tosl	equ	0xFFD
 12645                           stkptr	equ	0xFFC
 12646                           pclatu	equ	0xFFB
 12647                           pclath	equ	0xFFA
 12648                           pcl	equ	0xFF9
 12649                           tblptru	equ	0xFF8
 12650                           tblptrh	equ	0xFF7
 12651                           tblptrl	equ	0xFF6
 12652                           tablat	equ	0xFF5
 12653                           prodh	equ	0xFF4
 12654                           prodl	equ	0xFF3
 12655                           indf0	equ	0xFEF
 12656                           postinc0	equ	0xFEE
 12657                           postdec0	equ	0xFED
 12658                           preinc0	equ	0xFEC
 12659                           plusw0	equ	0xFEB
 12660                           fsr0h	equ	0xFEA
 12661                           fsr0l	equ	0xFE9
 12662                           wreg	equ	0xFE8
 12663                           indf1	equ	0xFE7
 12664                           postinc1	equ	0xFE6
 12665                           postdec1	equ	0xFE5
 12666                           preinc1	equ	0xFE4
 12667                           plusw1	equ	0xFE3
 12668                           fsr1h	equ	0xFE2
 12669                           fsr1l	equ	0xFE1
 12670                           bsr	equ	0xFE0
 12671                           indf2	equ	0xFDF
 12672                           postinc2	equ	0xFDE
 12673                           postdec2	equ	0xFDD
 12674                           preinc2	equ	0xFDC
 12675                           plusw2	equ	0xFDB
 12676                           fsr2h	equ	0xFDA
 12677                           fsr2l	equ	0xFD9
 12678                           status	equ	0xFD8

Data Sizes:
    Strings     203
    Constant    0
    Data        71
    BSS         373
    Persistent  0
    Stack       0

Auto Spaces:
    Space          Size  Autos    Used
    COMRAM           95     95      95
    BANK0           160    145     160
    BANK1           256    200     254
    BANK2           256     92     227
    BANK3           256      0     240
    BANK4           256      0       0
    BANK5           256      0       0
    BANK6           256      0       0
    BANK7           256      0       0

Pointer List with Targets:

    mostrar_estadistica$2248	PTR unsigned char  size(2) Largest target is 60
		 -> date(BANK3[60]), 

    strlen@s	PTR const unsigned char  size(2) Largest target is 60
		 -> stoa@nuls(COMRAM[7]), dbuf(BANK2[32]), ?_sprintf(BANK0[2]), date(BANK3[60]), 
		 -> validar@valor_usart_844(BANK2[30]), validar@valor_usart_842(BANK2[30]), validar@valor_usart(BANK2[30]), 

    strlen@a	PTR const unsigned char  size(2) Largest target is 60
		 -> stoa@nuls(COMRAM[7]), dbuf(BANK2[32]), ?_sprintf(BANK0[2]), date(BANK3[60]), 
		 -> validar@valor_usart_844(BANK2[30]), validar@valor_usart_842(BANK2[30]), validar@valor_usart(BANK2[30]), 

    strcpy@dest	PTR unsigned char  size(2) Largest target is 60
		 -> date(BANK3[60]), 

    strcpy@d	PTR unsigned char  size(2) Largest target is 60
		 -> date(BANK3[60]), 

    strcpy@src	PTR const unsigned char  size(2) Largest target is 60
		 -> time(BANK3[60]), 

    strcpy@s	PTR const unsigned char  size(2) Largest target is 60
		 -> time(BANK3[60]), 

    sp__strcpy	PTR unsigned char  size(2) Largest target is 60
		 -> date(BANK3[60]), 

    strcat@src	PTR const unsigned char  size(2) Largest target is 60
		 -> time(BANK3[60]), 

    strcat@dest	PTR unsigned char  size(2) Largest target is 60
		 -> date(BANK3[60]), 

    fputs@s	PTR const unsigned char  size(2) Largest target is 32
		 -> dbuf(BANK2[32]), 

    fputs@fp	PTR struct _IO_FILE size(2) Largest target is 7
		 -> sprintf@f(BANK0[6]), 

    fputc@fp.buffer	PTR unsigned char  size(2) Largest target is 100
		 -> date(BANK3[60]), time(BANK3[60]), mostrar_estadistica@mensaje_usart_853(BANK1[100]), mostrar_estadistica@mensaje_usart_851(BANK1[100]), 
		 -> mostrar_estadistica@mensaje_usart(BANK0[100]), validar@valor_usart_844(BANK2[30]), validar@valor_usart_842(BANK2[30]), validar@valor_usart(BANK2[30]), 
		 -> imprimir@aux_luz(BANK0[16]), imprimir@aux_temp(BANK0[16]), imprimir@aux_dist(BANK0[16]), 

    fputc@fp	PTR struct _IO_FILE size(2) Largest target is 7
		 -> sprintf@f(BANK0[6]), 

    vfprintf@ap	PTR PTR void  size(2) Largest target is 2
		 -> sprintf@ap(BANK0[2]), 

    vfprintf@fp	PTR struct _IO_FILE size(2) Largest target is 7
		 -> sprintf@f(BANK0[6]), 

    vfprintf@fmt	PTR const unsigned char  size(2) Largest target is 42
		 -> STR_14(CODE[16]), STR_13(CODE[16]), STR_12(CODE[18]), STR_11(CODE[18]), 
		 -> STR_10(CODE[42]), STR_9(CODE[33]), STR_8(CODE[34]), STR_7(CODE[3]), 
		 -> STR_6(CODE[3]), STR_5(CODE[3]), STR_4(CODE[4]), STR_3(CODE[4]), 
		 -> STR_2(CODE[5]), 

    vfprintf@cfmt	PTR unsigned char  size(2) Largest target is 42
		 -> STR_14(CODE[16]), STR_13(CODE[16]), STR_12(CODE[18]), STR_11(CODE[18]), 
		 -> STR_10(CODE[42]), STR_9(CODE[33]), STR_8(CODE[34]), STR_7(CODE[3]), 
		 -> STR_6(CODE[3]), STR_5(CODE[3]), STR_4(CODE[4]), STR_3(CODE[4]), 
		 -> STR_2(CODE[5]), 

    vfpfcnvrt@cp	PTR unsigned char  size(2) Largest target is 2
		 -> ?_sprintf(BANK0[2]), date(BANK3[60]), validar@valor_usart_844(BANK2[30]), validar@valor_usart_842(BANK2[30]), 
		 -> validar@valor_usart(BANK2[30]), 

    vfpfcnvrt@fp	PTR struct _IO_FILE size(2) Largest target is 7
		 -> sprintf@f(BANK0[6]), 

    vfpfcnvrt@ap	PTR PTR void  size(2) Largest target is 2
		 -> sprintf@ap(BANK0[2]), 

    vfpfcnvrt@fmt	PTR PTR unsigned char  size(2) Largest target is 2
		 -> vfprintf@cfmt(BANK0[2]), 

    xtoa@fp	PTR struct _IO_FILE size(2) Largest target is 7
		 -> sprintf@f(BANK0[6]), 

    stoa@fp	PTR struct _IO_FILE size(2) Largest target is 7
		 -> sprintf@f(BANK0[6]), 

    stoa@s	PTR unsigned char  size(2) Largest target is 2
		 -> ?_sprintf(BANK0[2]), date(BANK3[60]), validar@valor_usart_844(BANK2[30]), validar@valor_usart_842(BANK2[30]), 
		 -> validar@valor_usart(BANK2[30]), 

    stoa@cp	PTR unsigned char  size(2) Largest target is 7
		 -> stoa@nuls(COMRAM[7]), ?_sprintf(BANK0[2]), date(BANK3[60]), validar@valor_usart_844(BANK2[30]), 
		 -> validar@valor_usart_842(BANK2[30]), validar@valor_usart(BANK2[30]), 

    dtoa@fp	PTR struct _IO_FILE size(2) Largest target is 7
		 -> sprintf@f(BANK0[6]), 

    pad@fp	PTR struct _IO_FILE size(2) Largest target is 7
		 -> sprintf@f(BANK0[6]), 

    pad@buf	PTR unsigned char  size(2) Largest target is 32
		 -> dbuf(BANK2[32]), 

    sprintf@fmt	PTR const unsigned char  size(2) Largest target is 42
		 -> STR_14(CODE[16]), STR_13(CODE[16]), STR_12(CODE[18]), STR_11(CODE[18]), 
		 -> STR_10(CODE[42]), STR_9(CODE[33]), STR_8(CODE[34]), STR_7(CODE[3]), 
		 -> STR_6(CODE[3]), STR_5(CODE[3]), STR_4(CODE[4]), STR_3(CODE[4]), 
		 -> STR_2(CODE[5]), 

    sprintf@s	PTR unsigned char  size(2) Largest target is 100
		 -> date(BANK3[60]), time(BANK3[60]), mostrar_estadistica@mensaje_usart_853(BANK1[100]), mostrar_estadistica@mensaje_usart_851(BANK1[100]), 
		 -> mostrar_estadistica@mensaje_usart(BANK0[100]), validar@valor_usart_844(BANK2[30]), validar@valor_usart_842(BANK2[30]), validar@valor_usart(BANK2[30]), 
		 -> imprimir@aux_luz(BANK0[16]), imprimir@aux_temp(BANK0[16]), imprimir@aux_dist(BANK0[16]), 

    sprintf@ap	PTR void [1] size(2) Largest target is 2
		 -> ?_sprintf(BANK0[2]), 

    S1778_IO_FILE$buffer	PTR unsigned char  size(2) Largest target is 100
		 -> date(BANK3[60]), time(BANK3[60]), mostrar_estadistica@mensaje_usart_853(BANK1[100]), mostrar_estadistica@mensaje_usart_851(BANK1[100]), 
		 -> mostrar_estadistica@mensaje_usart(BANK0[100]), validar@valor_usart_844(BANK2[30]), validar@valor_usart_842(BANK2[30]), validar@valor_usart(BANK2[30]), 
		 -> imprimir@aux_luz(BANK0[16]), imprimir@aux_temp(BANK0[16]), imprimir@aux_dist(BANK0[16]), 

    f.buffer	PTR unsigned char  size(2) Largest target is 100
		 -> date(BANK3[60]), time(BANK3[60]), mostrar_estadistica@mensaje_usart_853(BANK1[100]), mostrar_estadistica@mensaje_usart_851(BANK1[100]), 
		 -> mostrar_estadistica@mensaje_usart(BANK0[100]), validar@valor_usart_844(BANK2[30]), validar@valor_usart_842(BANK2[30]), validar@valor_usart(BANK2[30]), 
		 -> imprimir@aux_luz(BANK0[16]), imprimir@aux_temp(BANK0[16]), imprimir@aux_dist(BANK0[16]), 

    sp__strcat	PTR unsigned char  size(2) Largest target is 60
		 -> date(BANK3[60]), 

    USART_SendString@out	PTR const unsigned char  size(2) Largest target is 100
		 -> mostrar_estadistica@mensaje_usart_853(BANK1[100]), mostrar_estadistica@mensaje_usart_851(BANK1[100]), mostrar_estadistica@mensaje_usart(BANK0[100]), 

    sp__obtener_tiempo_fecha	PTR unsigned char  size(2) Largest target is 60
		 -> date(BANK3[60]), 

    mostrar_estadistica@valor_usart	PTR unsigned char  size(2) Largest target is 30
		 -> validar@valor_usart_844(BANK2[30]), validar@valor_usart_842(BANK2[30]), validar@valor_usart(BANK2[30]), 

    LCD_Custom_Char@msg	PTR unsigned char  size(2) Largest target is 8
		 -> iniciar_emoticones@todo_bien(COMRAM[8]), iniciar_emoticones@luz(COMRAM[8]), iniciar_emoticones@distancia(COMRAM[8]), iniciar_emoticones@temperatura(COMRAM[8]), 

    LCD_String_xy@msg	PTR const unsigned char  size(2) Largest target is 17
		 -> Reloj_Calendario@Date_var(BANK2[17]), Reloj_Calendario@Time(BANK1[15]), imprimir@aux_luz(BANK0[16]), imprimir@aux_temp(BANK0[16]), 
		 -> imprimir@aux_dist(BANK0[16]), STR_1(CODE[7]), 

    LCD_String@msg	PTR const unsigned char  size(2) Largest target is 17
		 -> Reloj_Calendario@Date_var(BANK2[17]), Reloj_Calendario@Time(BANK1[15]), imprimir@aux_luz(BANK0[16]), imprimir@aux_temp(BANK0[16]), 
		 -> imprimir@aux_dist(BANK0[16]), STR_1(CODE[7]), 


Critical Paths under _main in COMRAM

    _configurarHora->_Establecer_Hora_Fecha
    _Reloj_Calendario->_LCD_String_xy
    _RTC_Clock_Write->_I2C_Start
    _RTC_Calendar_Write->_I2C_Start
    _Establecer_Hora_Fecha->___awdiv
    _LCD_xy->_LCD_Command
    _Decimal_a_BCD->___awdiv
    _iniciar_emoticones->_LCD_Custom_Char
    _LCD_Custom_Char->_LCD_Char
    _LCD_Custom_Char->_LCD_Command
    _LCD_String_xy->_LCD_String
    _LCD_String->_LCD_Char
    _LCD_Clear->_LCD_Command
    _strcat->_strcpy
    _strcpy->_strlen
    _RTC_Read_Clock->_I2C_Read
    _RTC_Read_Clock->_I2C_Repeated_Start
    _RTC_Read_Clock->_I2C_Start
    _vfprintf->_vfpfcnvrt
    _vfpfcnvrt->_xtoa
    _xtoa->_pad
    _toupper->_islower
    _stoa->_fputc
    _dtoa->_pad
    _pad->_fputs
    _fputs->_fputc
    _abs->___aomod
    _RTC_Read_Calendar->_I2C_Read
    _RTC_Read_Calendar->_I2C_Repeated_Start
    _RTC_Read_Calendar->_I2C_Start
    _I2C_Start->_I2C_Write
    _I2C_Repeated_Start->_I2C_Write
    _USART_SendString->_USART_TxChar
    _mostrar_emoticon->_LCD_Char
    _mostrar_emoticon->_LCD_Command
    _sensor_temperatura->___fltol
    ___flmul->___xxtofl
    _sensor_luz->___lwdiv
    _adc_init10Bits->_adc_config
    ___lwdiv->___wmul
    _sensor_distancia->_obtener_distancia
    _pines_ConfigurarHora->_inicializar_lcd
    _inicializar_lcd->_LCD_Command
    _USART_Init->___fladd
    ___fltol->___flmul
    ___fldiv->___xxtofl
    ___fladd->___fldiv

Critical Paths under _main in BANK0

    _main->_mostrar_estadisticas
    _main->_mostrar_hora
    _imprimir->_sprintf
    _establecer_valores->_encender_leds
    _validar->_mostrar_estadistica
    _mostrar_estadistica->_obtener_tiempo_fecha
    _obtener_tiempo_fecha->_RTC_obtener_hora
    _RTC_obtener_hora->_sprintf
    _RTC_obtener_fecha->_sprintf
    _sprintf->_vfprintf
    _encender_leds->_validar

Critical Paths under _main in BANK1

    _validar->_mostrar_estadistica

Critical Paths under _main in BANK2

    _establecer_valores->_validar
    _encender_leds->_validar

Critical Paths under _main in BANK3

    None.

Critical Paths under _main in BANK4

    None.

Critical Paths under _main in BANK5

    None.

Critical Paths under _main in BANK6

    None.

Critical Paths under _main in BANK7

    None.

Call Graph Tables:

 ---------------------------------------------------------------------------------
 (Depth) Function   	        Calls       Base Space   Used Autos Params    Refs
 ---------------------------------------------------------------------------------
 (0) _main                                                 0     0      0  199767
                         _USART_Init
                    _inicializar_lcd
                        _iniciar_pic
                          _init_leds
               _mostrar_estadisticas
                       _mostrar_hora
 ---------------------------------------------------------------------------------
 (1) _mostrar_hora                                         2     2      0   94358
                                            143 BANK0      2     2      0
                          _LCD_Clear
                     _configurarHora
                 _establecer_valores
 ---------------------------------------------------------------------------------
 (2) _configurarHora                                       2     2      0   14312
                                             13 COMRAM     2     2      0
                        _Anti_rebote
                      _Decimal_a_BCD
              _Establecer_Hora_Fecha
                 _RTC_Calendar_Write
                    _RTC_Clock_Write
                  _RTC_Read_Calendar
                     _RTC_Read_Clock
                   _Reloj_Calendario
 ---------------------------------------------------------------------------------
 (3) _Reloj_Calendario                                     0     0      0    4632
                      _BCD_a_Decimal
                      _LCD_String_xy
                            ___awdiv
                            ___awmod
 ---------------------------------------------------------------------------------
 (4) _BCD_a_Decimal                                        2     2      0      44
                                              0 COMRAM     2     2      0
 ---------------------------------------------------------------------------------
 (3) _RTC_Clock_Write                                      4     1      3     405
                                              2 COMRAM     4     1      3
                          _I2C_Start
                           _I2C_Stop
                          _I2C_Write
 ---------------------------------------------------------------------------------
 (3) _RTC_Calendar_Write                                   4     1      3     382
                                              2 COMRAM     4     1      3
                          _I2C_Start
                           _I2C_Stop
                          _I2C_Write
 ---------------------------------------------------------------------------------
 (3) _Establecer_Hora_Fecha                                5     3      2    5093
                                              8 COMRAM     5     3      2
                        _Anti_rebote
                           _LCD_Char
                             _LCD_xy
                           _Parpadeo
                            ___awdiv
                            ___awmod
 ---------------------------------------------------------------------------------
 (4) _Parpadeo                                             2     2      0      24
                                              0 COMRAM     2     2      0
 ---------------------------------------------------------------------------------
 (4) _LCD_xy                                               3     2      1     461
                                              2 COMRAM     3     2      1
                        _LCD_Command
 ---------------------------------------------------------------------------------
 (4) _Anti_rebote                                          3     3      0      70
                                              0 COMRAM     3     3      0
 ---------------------------------------------------------------------------------
 (3) _Decimal_a_BCD                                        3     3      0    3376
                                              8 COMRAM     3     3      0
                            ___awdiv
                            ___awmod
 ---------------------------------------------------------------------------------
 (4) ___awmod                                              6     2      4    1664
                                              0 COMRAM     6     2      4
 ---------------------------------------------------------------------------------
 (4) ___awdiv                                              8     4      4    1668
                                              0 COMRAM     8     4      4
 ---------------------------------------------------------------------------------
 (1) _mostrar_estadisticas                                 2     2      0  100558
                                            143 BANK0      2     2      0
                          _LCD_Clear
                 _establecer_valores
                           _imprimir
                 _iniciar_emoticones
 ---------------------------------------------------------------------------------
 (2) _iniciar_emoticones                                  32    32      0     622
                                              6 COMRAM    32    32      0
                    _LCD_Custom_Char
 ---------------------------------------------------------------------------------
 (3) _LCD_Custom_Char                                      4     2      2     526
                                              2 COMRAM     4     2      2
                           _LCD_Char
                        _LCD_Command
 ---------------------------------------------------------------------------------
 (2) _imprimir                                            56    50      6   19890
                                             26 BANK0     56    50      6
                          _LCD_Clear
                        _LCD_Command
                      _LCD_String_xy
                            _sprintf
 ---------------------------------------------------------------------------------
 (4) _LCD_String_xy                                        5     2      3    1256
                                              4 COMRAM     5     2      3
                        _LCD_Command
                         _LCD_String
 ---------------------------------------------------------------------------------
 (5) _LCD_String                                           2     0      2     165
                                              2 COMRAM     2     0      2
                           _LCD_Char
 ---------------------------------------------------------------------------------
 (2) _LCD_Clear                                            0     0      0      44
                        _LCD_Command
 ---------------------------------------------------------------------------------
 (2) _establecer_valores                                   0     0      0   80002
                      _encender_leds
                   _sensor_distancia
                         _sensor_luz
                 _sensor_temperatura
                            _validar
 ---------------------------------------------------------------------------------
 (3) _validar                                             98    92      6   75570
                                            135 BANK0      6     0      6
                                              0 BANK2     92    92      0
                   _mostrar_emoticon
                _mostrar_estadistica
                            _sprintf
 ---------------------------------------------------------------------------------
 (4) _mostrar_estadistica                                306   302      4   56605
                                             29 BANK0    106   102      4
                                              0 BANK1    200   200      0
                   _USART_SendString
               _obtener_tiempo_fecha
                            _sprintf
 ---------------------------------------------------------------------------------
 (5) _obtener_tiempo_fecha                                 2     0      2   37404
                                             27 BANK0      2     0      2
                           _I2C_Init
                  _RTC_obtener_fecha
                   _RTC_obtener_hora
                             _strcat
 ---------------------------------------------------------------------------------
 (6) _strcat                                               4     0      4     806
                                             12 COMRAM     4     0      4
                             _strcpy
                             _strlen
 ---------------------------------------------------------------------------------
 (7) _strcpy                                               8     4      4     248
                                              4 COMRAM     8     4      4
                             _strlen (ARG)
 ---------------------------------------------------------------------------------
 (6) _RTC_obtener_hora                                     2     2      0   18322
                                             26 BANK0      1     1      0
                           _I2C_Stop
                     _RTC_Read_Clock
                            _sprintf
 ---------------------------------------------------------------------------------
 (7) _RTC_Read_Clock                                       2     2      0     177
                                              2 COMRAM     2     2      0
                           _I2C_Read
                 _I2C_Repeated_Start
                          _I2C_Start
                           _I2C_Stop
                          _I2C_Write
 ---------------------------------------------------------------------------------
 (6) _RTC_obtener_fecha                                    0     0      0   18276
                  _RTC_Read_Calendar
                            _sprintf
 ---------------------------------------------------------------------------------
 (4) _sprintf                                             20    10     10   18099
                                              8 BANK0     18     8     10
                           _vfprintf
 ---------------------------------------------------------------------------------
 (5) _vfprintf                                             8     2      6   15920
                                              0 BANK0      8     2      6
                          _vfpfcnvrt
 ---------------------------------------------------------------------------------
 (6) _vfpfcnvrt                                           43    37      6   15558
                                             66 COMRAM    29    23      6
                               _dtoa
                              _fputc
                               _stoa
                               _xtoa
 ---------------------------------------------------------------------------------
 (7) _xtoa                                                39    28     11    5555
                                             27 COMRAM    39    28     11
                            _isalpha
                            _isupper
                                _pad
                            _toupper
 ---------------------------------------------------------------------------------
 (8) _toupper                                              8     6      2     412
                                              6 COMRAM     8     6      2
                            _islower
 ---------------------------------------------------------------------------------
 (9) _islower                                              6     4      2     161
                                              0 COMRAM     6     4      2
 ---------------------------------------------------------------------------------
 (8) _isupper                                              6     4      2     161
                                              0 COMRAM     6     4      2
 ---------------------------------------------------------------------------------
 (8) _isalpha                                              6     4      2     161
                                              0 COMRAM     6     4      2
 ---------------------------------------------------------------------------------
 (7) _stoa                                                22    18      4    2215
                                              9 COMRAM    22    18      4
                              _fputc
                             _strlen
 ---------------------------------------------------------------------------------
 (7) _dtoa                                                36    26     10    5650
                                             27 COMRAM    36    26     10
                            ___aodiv
                            ___aomod
                                _abs
                                _pad
 ---------------------------------------------------------------------------------
 (8) _pad                                                 11     5      6    4001
                                             16 COMRAM    11     5      6
                              _fputc
                              _fputs
                             _strlen
 ---------------------------------------------------------------------------------
 (9) _strlen                                               4     2      2     318
                                              0 COMRAM     4     2      2
 ---------------------------------------------------------------------------------
 (9) _fputs                                                7     3      4    1691
                                              9 COMRAM     7     3      4
                              _fputc
 ---------------------------------------------------------------------------------
 (10) _fputc                                               9     5      4    1290
                                              0 COMRAM     9     5      4
                              _putch
 ---------------------------------------------------------------------------------
 (11) _putch                                               1     1      0       0
 ---------------------------------------------------------------------------------
 (8) _abs                                                  4     2      2     142
                                             18 COMRAM     4     2      2
                            ___aomod (ARG)
 ---------------------------------------------------------------------------------
 (8) ___aomod                                             18     2     16     448
                                              0 COMRAM    18     2     16
 ---------------------------------------------------------------------------------
 (8) ___aodiv                                             26    10     16     452
                                              0 COMRAM    26    10     16
 ---------------------------------------------------------------------------------
 (7) _RTC_Read_Calendar                                    2     2      0     177
                                              2 COMRAM     2     2      0
                           _I2C_Read
                 _I2C_Repeated_Start
                          _I2C_Start
                           _I2C_Stop
                          _I2C_Write
 ---------------------------------------------------------------------------------
 (8) _I2C_Stop                                             0     0      0       0
 ---------------------------------------------------------------------------------
 (8) _I2C_Start                                            1     1      0      44
                                              1 COMRAM     1     1      0
                          _I2C_Write
 ---------------------------------------------------------------------------------
 (8) _I2C_Repeated_Start                                   1     1      0      44
                                              1 COMRAM     1     1      0
                          _I2C_Write
 ---------------------------------------------------------------------------------
 (8) _I2C_Write                                            1     1      0      22
                                              0 COMRAM     1     1      0
                          _I2C_Ready
 ---------------------------------------------------------------------------------
 (8) _I2C_Read                                             2     2      0      45
                                              0 COMRAM     2     2      0
                            _I2C_Ack
                           _I2C_Nack
                          _I2C_Ready
 ---------------------------------------------------------------------------------
 (9) _I2C_Ready                                            0     0      0       0
 ---------------------------------------------------------------------------------
 (9) _I2C_Nack                                             0     0      0       0
 ---------------------------------------------------------------------------------
 (9) _I2C_Ack                                              0     0      0       0
 ---------------------------------------------------------------------------------
 (5) _USART_SendString                                     2     0      2     295
                                              1 COMRAM     2     0      2
                       _USART_TxChar
 ---------------------------------------------------------------------------------
 (6) _USART_TxChar                                         1     1      0      22
                                              0 COMRAM     1     1      0
 ---------------------------------------------------------------------------------
 (4) _mostrar_emoticon                                     1     1      0     132
                                              2 COMRAM     1     1      0
                           _LCD_Char
                        _LCD_Command
 ---------------------------------------------------------------------------------
 (5) _LCD_Char                                             2     2      0      44
                                              0 COMRAM     2     2      0
 ---------------------------------------------------------------------------------
 (3) _sensor_temperatura                                   2     0      2    2918
                                             49 COMRAM     2     0      2
                            ___flmul
                            ___fltol
                           ___xxtofl
                     _adc_init10Bits
                     _adc_read10Bits
 ---------------------------------------------------------------------------------
 (4) ___flmul                                             25    17      8    1744
                                             14 COMRAM    25    17      8
                           ___xxtofl (ARG)
 ---------------------------------------------------------------------------------
 (3) _sensor_luz                                           3     1      2    1326
                                             13 COMRAM     3     1      2
                            ___lwdiv
                             ___wmul
                     _adc_init10Bits
                     _adc_read10Bits
 ---------------------------------------------------------------------------------
 (4) _adc_read10Bits                                       6     4      2      47
                                              0 COMRAM     6     4      2
 ---------------------------------------------------------------------------------
 (4) _adc_init10Bits                                       2     0      2     272
                                              2 COMRAM     2     0      2
                         _adc_config
 ---------------------------------------------------------------------------------
 (5) _adc_config                                           2     0      2      98
                                              0 COMRAM     2     0      2
 ---------------------------------------------------------------------------------
 (4) ___wmul                                               6     2      4     693
                                              0 COMRAM     6     2      4
 ---------------------------------------------------------------------------------
 (4) ___lwdiv                                              7     3      4     314
                                              6 COMRAM     7     3      4
                             ___wmul (ARG)
 ---------------------------------------------------------------------------------
 (3) _sensor_distancia                                     2     0      2      24
                                              4 COMRAM     2     0      2
                         _init_ports
                  _obtener_distancia
 ---------------------------------------------------------------------------------
 (4) _obtener_distancia                                    4     2      2      24
                                              0 COMRAM     4     2      2
 ---------------------------------------------------------------------------------
 (4) _init_ports                                           0     0      0       0
 ---------------------------------------------------------------------------------
 (3) _encender_leds                                        2     0      2     164
                                            141 BANK0      2     0      2
                            _validar (ARG)
 ---------------------------------------------------------------------------------
 (1) _init_leds                                            0     0      0       0
 ---------------------------------------------------------------------------------
 (1) _iniciar_pic                                          0     0      0      44
                           _init_rtc
               _pines_ConfigurarHora
 ---------------------------------------------------------------------------------
 (2) _pines_ConfigurarHora                                 0     0      0      44
                    _inicializar_lcd
 ---------------------------------------------------------------------------------
 (3) _inicializar_lcd                                      1     1      0      44
                                              2 COMRAM     1     1      0
                        _LCD_Command
 ---------------------------------------------------------------------------------
 (5) _LCD_Command                                          2     2      0      44
                                              0 COMRAM     2     2      0
 ---------------------------------------------------------------------------------
 (2) _init_rtc                                             0     0      0       0
                           _I2C_Init
 ---------------------------------------------------------------------------------
 (6) _I2C_Init                                             0     0      0       0
 ---------------------------------------------------------------------------------
 (1) _USART_Init                                           8     4      4    4763
                                             55 COMRAM     8     4      4
                            ___fladd
                            ___fldiv
                            ___fltol
                           ___xxtofl
 ---------------------------------------------------------------------------------
 (4) ___xxtofl                                            14    10      4     474
                                              0 COMRAM    14    10      4
 ---------------------------------------------------------------------------------
 (4) ___fltol                                             10     6      4     381
                                             39 COMRAM    10     6      4
                            ___flmul (ARG)
                           ___xxtofl (ARG)
 ---------------------------------------------------------------------------------
 (2) ___fldiv                                             25    17      8    1399
                                             14 COMRAM    25    17      8
                           ___xxtofl (ARG)
 ---------------------------------------------------------------------------------
 (2) ___fladd                                             16     8      8    2388
                                             39 COMRAM    16     8      8
                            ___fldiv (ARG)
                           ___xxtofl (ARG)
 ---------------------------------------------------------------------------------
 Estimated maximum stack depth 11
 ---------------------------------------------------------------------------------

 Call Graph Graphs:

 _main (ROOT)
   _USART_Init
     ___fladd
       ___fldiv (ARG)
         ___xxtofl (ARG)
       ___xxtofl (ARG)
     ___fldiv
     ___fltol
       ___flmul (ARG)
         ___xxtofl (ARG)
       ___xxtofl (ARG)
     ___xxtofl
   _inicializar_lcd
     _LCD_Command
   _iniciar_pic
     _init_rtc
       _I2C_Init
     _pines_ConfigurarHora
       _inicializar_lcd
   _init_leds
   _mostrar_estadisticas
     _LCD_Clear
       _LCD_Command
     _establecer_valores
       _encender_leds
         _validar (ARG)
           _mostrar_emoticon
             _LCD_Char
             _LCD_Command
           _mostrar_estadistica
             _USART_SendString
               _USART_TxChar
             _obtener_tiempo_fecha
               _I2C_Init
               _RTC_obtener_fecha
                 _RTC_Read_Calendar
                   _I2C_Read
                     _I2C_Ack
                     _I2C_Nack
                     _I2C_Ready
                   _I2C_Repeated_Start
                     _I2C_Write
                       _I2C_Ready
                   _I2C_Start
                     _I2C_Write
                   _I2C_Stop
                   _I2C_Write
                 _sprintf
                   _vfprintf
                     _vfpfcnvrt
                       _dtoa
                         ___aodiv
                         ___aomod
                         _abs
                           ___aomod (ARG)
                         _pad
                           _fputc
                             _putch
                           _fputs
                             _fputc
                           _strlen
                       _fputc
                       _stoa
                         _fputc
                         _strlen
                       _xtoa
                         _isalpha
                         _isupper
                         _pad
                         _toupper
                           _islower
               _RTC_obtener_hora
                 _I2C_Stop
                 _RTC_Read_Clock
                   _I2C_Read
                   _I2C_Repeated_Start
                   _I2C_Start
                   _I2C_Stop
                   _I2C_Write
                 _sprintf
               _strcat
                 _strcpy
                   _strlen (ARG)
                 _strlen
             _sprintf
           _sprintf
       _sensor_distancia
         _init_ports
         _obtener_distancia
       _sensor_luz
         ___lwdiv
           ___wmul (ARG)
         ___wmul
         _adc_init10Bits
           _adc_config
         _adc_read10Bits
       _sensor_temperatura
         ___flmul
         ___fltol
         ___xxtofl
         _adc_init10Bits
         _adc_read10Bits
       _validar
     _imprimir
       _LCD_Clear
       _LCD_Command
       _LCD_String_xy
         _LCD_Command
         _LCD_String
           _LCD_Char
       _sprintf
     _iniciar_emoticones
       _LCD_Custom_Char
         _LCD_Char
         _LCD_Command
   _mostrar_hora
     _LCD_Clear
     _configurarHora
       _Anti_rebote
       _Decimal_a_BCD
         ___awdiv
         ___awmod
       _Establecer_Hora_Fecha
         _Anti_rebote
         _LCD_Char
         _LCD_xy
           _LCD_Command
         _Parpadeo
         ___awdiv
         ___awmod
       _RTC_Calendar_Write
         _I2C_Start
         _I2C_Stop
         _I2C_Write
       _RTC_Clock_Write
         _I2C_Start
         _I2C_Stop
         _I2C_Write
       _RTC_Read_Calendar
       _RTC_Read_Clock
       _Reloj_Calendario
         _BCD_a_Decimal
         _LCD_String_xy
         ___awdiv
         ___awmod
     _establecer_valores

 Address spaces:
Name               Size   Autos  Total    Cost      Usage
BIGRAM             7FF      0       0      21        0.0%
EEDATA             100      0       0       0        0.0%
BITBANK7           100      0       0      18        0.0%
BANK7              100      0       0      19        0.0%
BITBANK6           100      0       0      16        0.0%
BANK6              100      0       0      17        0.0%
BITBANK5           100      0       0      14        0.0%
BANK5              100      0       0      15        0.0%
BITBANK4           100      0       0      12        0.0%
BANK4              100      0       0      13        0.0%
BITBANK3           100      0       0      10        0.0%
BANK3              100      0      F0      11       93.8%
BITBANK2           100      0       0       8        0.0%
BANK2              100     5C      E3       9       88.7%
BITBANK1           100      0       0       6        0.0%
BANK1              100     C8      FE       7       99.2%
BITBANK0            A0      0       0       4        0.0%
BANK0               A0     91      A0       5      100.0%
BITCOMRAM           5F      0       0       0        0.0%
COMRAM              5F     5F      5F       1      100.0%
BITSFR               0      0       0     200        0.0%
SFR                  0      0       0     200        0.0%
STACK                0      0       0       2        0.0%
NULL                 0      0       0       0        0.0%
ABS                  0      0     3D0      20        0.0%
DATA                 0      0     3D0       3        0.0%
CODE                 0      0       0       0        0.0%


Microchip Technology PIC18 Macro Assembler V2.32 build 20210201212658 
Symbol Table                                                                                   Thu Oct 07 15:16:43 2021

              __end_of_mostrar_emoticon 40A6           __size_of_obtener_tiempo_fecha 002A  
                          ___fldiv@aexp 0027                            ___fldiv@bexp 0026  
                                     _i 00F9                      __size_of_I2C_Ready 0012  
                          ___fldiv@sign 001F                      __size_of_I2C_Start 002E  
                          ?_LCD_Command 0001                             _SSPSTATbits 000FC7  
                    __size_of_I2C_Write 0022                            ___awdiv@sign 0006  
                   ___wmul@multiplicand 0003                             ?_LCD_String 0003  
                       _LCD_Custom_Char 3A70  RTC_Read_Calendar@read_calendar_address 0004  
                                   l211 393C                                     l205 3E32  
                                   l141 39DA                                     l230 4134  
                                   l222 3BC2                                     l208 398C  
                                   l144 4048                                     l136 38EC  
                                   l233 40A4                                     l217 373E  
                                   l129 367E                                     l155 3328  
                                   l227 3DFE                                     l164 2DB0  
                                   l421 407C                                     l182 4114  
                                   l239 3AB6                                     l280 4122  
                                   l424 408E                                     l512 3E96  
                                   l185 3F48                                     l521 3ED2  
                                   l418 3214                                     l362 412C  
                                   l178 3B70                                     l514 3EA4  
                                   l530 40B6                                     l371 33AA  
                                   l283 3A3A                                     l179 3B82  
                                   l187 3F56                                     l523 3EEC  
                                   l188 3F70                                     l292 3524  
                                   l540 40D2                                     l516 3EBE  
                                   l532 40B8                                     l620 3F18  
                                   l277 32A6                                     l437 3E62  
                                   l295 342A                                     l543 40E0  
                                   l519 3EC4                                     l391 2CC6  
                                   l623 3F44                                     l288 3A66  
                                   l536 400C                                     l528 40A8  
                                   l704 2530                                     l369 33A4  
                                   l289 3A6E                                     l385 2012  
                                   l546 40BE                                     l626 3A24  
                                   l642 3F9A                                     l707 3FEA  
                                   l651 3800                                     l492 4062  
                                   l484 3C82                                     l636 2E7C  
                                   l549 40CC                                     l629 37F6  
                                   l821 26B8                                     l645 4078  
                      ?_inicializar_lcd 0001                                     l486 3C90  
                                   l495 40E2                                     l639 3D94  
                                   l655 384A                                     l488 3CB0  
                                   l648 3CEE                                     l664 3AFC  
                                   l497 40F0                                     l489 3CB6  
                                   l681 21D8                                     l498 40F2  
                                   l834 29A2                                     l659 3AD0  
                                   l686 413A                                     l951 3180  
                                   l689 4104                                     l697 2AC4  
                                   l938 30D0                                     _PEN 007E2A  
                                   _Day 01F0                                     _abs 3BC4  
                                   _day 00FA                         __end_of_I2C_Ack 40E2  
                                   _pad 2F48                                     _min 01F2  
                                   _sec 01F4                                     _var 0300  
                       ?_configurarHora 0001                            ___awmod@sign 0006  
                                   wreg 000FE8                            ___flmul@aexp 0020  
                          ___flmul@bexp 0021                            ___flmul@sign 001B  
                          ___flmul@temp 0026                            ___flmul@prod 0022  
                           LCD_Char@dat 0002                            ___fltol@exp1 0031  
                                  l1004 2BCA                                    ?_abs 0013  
                                  l1300 13F6                                    l1205 3612  
                                  l1302 146E                                    l1303 145C  
                                  l1321 0E52                                    l1330 10C0  
                                  l1235 0ABC                                    l1331 10AE  
                                  l1252 0BD6                                    l1244 0D8C  
                                  l1236 0AAA                                    l1500 1DBE  
                                  l1261 0CA6                                    l1237 0A70  
                                  l1325 11B6                                    l1421 2FD0  
                                  l1262 0C94                                    l1502 1E22  
                                  l1423 300C                                    l1431 190E  
                                  l1328 1048                                    l1520 36E0  
                                  l4000 3D66                                    l1362 2230  
                                  l4010 3950                                    l1338 1178  
                                  l1418 2F8E                                    l1530 3C7C  
                                  l4002 3E64                                    l1291 13B0  
                                  l4020 3966                                    l4012 3952  
                                  l1524 3BFA                                    l4004 3E88  
                                  l4100 3DF0                                    l1365 238C  
                                  l1429 1906                                    l1509 1864  
                                  l1294 1374                                    l4022 3978  
                                  l4014 3954                                    l4110 411A  
                                  l1198 360A                                    l4030 3B4E  
                                  l4102 3DF8                                    l1527 3C02  
                                  l1551 2F46                                    l1519 36D8  
                                  l5000 0BA6                                    l1376 2324  
                                  l4024 397A                                    l4016 3956  
                                  l4008 3940                                    l4112 411C  
                                  l4120 3A2E                                    l4032 3B60  
                                  l4200 0DA8                                    l4104 4092  
                                  l1472 283E                                    l1456 273A  
                                  l1536 3D5E                                    l4040 36E6  
                                  l1289 1550                                    l1369 22C8  
                                  l1449 1B48                                    l1385 389C  
                                  l5002 0BB6                                    l4026 397C  
                                  l4018 3958                                    l4114 411E  
                                  l4130 3A58                                    l4122 3A30  
                                  l4034 3B68                                    l4210 0DE0  
                                  l4202 0DAA                                    l4106 409E  
                                  l1562 413C                                    l1458 2742  
                                  l4050 3F7A                                    l4042 370A  
                                  l1467 27EC                                    l5020 0C38  
                                  l5012 0C10                                    l5004 0BC6  
                                  l5100 124A                                    l4116 4120  
                                  l4108 4116                                    l4124 3A38  
                                  l4036 3B80                                    l4028 3B42  
                                  l4300 10EA                                    l4220 0E0C  
                                  l4212 0DF0                                    l4204 0DBA  
                                  l4060 3E46                                    l3500 259A  
                                  l1468 2836                                    l4052 3F7E  
                                  l4140 2C34                                    l4132 2BCC  
                                  l4044 370E                                    l1581 3DCA  
                                  l1477 1B82                                    l5022 0C40  
                                  l5014 0C1A                                    l5006 0BEC  
                                  l5030 0C64                                    l5110 1284  
                                  l5102 125A                                    l4126 3A4C  
                                  l4118 3A26                                    l4310 1160  
                                  l4302 1114                                    l4230 0E62  
                                  l4222 0E1C                                    l4214 0DF6  
                                  l4206 0DCA                                    l4062 3E4A  
                                  l3510 25EE                                    l3502 25A6  
                                  l1486 1C20                                    l4046 3F72  
                                  l4142 2C66                                    l4134 2BE0  
                                  l4038 36E2                                    l4070 3B9E  
                                  l4150 4066                                    l1559 3B40  
                                  l1591 379C                                    l1479 1B8A  
                                  l1575 3C40                                    l5040 0CB6  
                                  l5032 0C68                                    l5024 0C44  
                                  l5016 0C28                                    l5008 0BFC  
                                  l5200 1544                                    l5112 129A  
                                  l5104 126A                                    l4128 3A50  
                                  l4080 4112                                    l4312 117C  
                                  l4320 11A2                                    l4304 1118  
                                  l4240 0E9C                                    l4232 0E72  
                                  l4224 0E2C                                    l4216 0DFC  
                                  l4208 0DDA                                    l4056 3E34  
                                  l3520 2662                                    l3512 2600  
                                  l3504 25C4                                    l3600 3740  
                                  l4048 3F76                                    l4144 2C72  
                                  l4136 2C12                                    l4072 3BA8  
                                  l4064 3B86                                    l4400 3170  
                                  l4160 380E                                    l1569 3E90  
                                  l5050 0D1C                                    l5042 0CC2  
                                  l5034 0C76                                    l5026 0C54  
                                  l5018 0C2A                                    l5202 1546  
                                  l5130 12EE                                    l5114 12AA  
                                  l5122 12CA                                    l5106 126C  
                                  l5210 3182                                    l4082 3F46  
                                  l4322 11A6                                    l4314 118C  
                                  l4306 1132                                    l4250 0EEE  
                                  l4242 0EB2                                    l4226 0E3C  
                                  l4218 0E0A                                    l4058 3E38  
                                  l3610 40E2                                    l3514 262E  
                                  l3506 25CC                                    l3522 2668  
                                  l3530 2840                                    l3450 2E7E  
                                  l1586 3794                                    l4146 2C88  
                                  l4138 2C1E                                    l4074 3BB0  
                                  l4066 3B86                                    l4330 3020  
                                  l4402 3178                                    l4170 3842  
                                  l4162 3810                                    l4154 37F8  
                                  l5060 0D64                                    l5052 0D2C  
                                  l5044 0CD0                                    l5036 0C8C  
                                  l5028 0C56                                    l5140 1340  
                                  l5132 1308                                    l5124 12DA  
                                  l5116 12B2                                    l5108 1274  
                                  l4420 2B30                                    l4412 2AF0  
                                  l4500 2314                                    l5212 3186  
                                  l5220 403C                                    l4084 3F46  
                                  l4316 119A                                    l4308 1146  
                                  l4260 0F34                                    l4252 0EFC  
                                  l4244 0EBE                                    l4236 0E86  
                                  l4228 0E42                                    l3524 2678  
                                  l3516 264E                                    l3508 25E0  
                                  l3540 2884                                    l3532 2844  
                                  l3460 2F00                                    l3452 2E90  
                                  l3620 18DE                                    l3612 1866  
                                  l3700 27A8                                    l3604 3776  
                                  l4148 2CBA                                    l4076 3BB6  
                                  l4068 3B96                                    l4340 3046  
                                  l4332 3028                                    l4164 3820  
                                  l4092 3DCE                                    l4180 3AB8  
                                  l1597 3D26                                    l5062 0D66  
                                  l5054 0D4C                                    l5046 0D0A  
                                  l5150 139C                                    l5142 1350  
                                  l5134 1318                                    l5126 12DA  
                                  l5118 12B6                                    l4430 2B60  
                                  l4422 2B3E                                    l4414 2B1A  
                                  l4406 2AC6                                    l4510 236C  
                                  l4502 2332                                    l5214 320C  
                                  l5222 403E                                    l4190 3FC6  
                                  l4078 4106                                    l4086 3F5C  
                                  l4318 119C                                    l4270 0FA2  
                                  l4262 0F4E                                    l4254 0F08  
                                  l4246 0ED6                                    l4238 0E92  
                                  l3526 2698                                    l3518 2650  
                                  l3550 28EC                                    l3542 28A4  
                                  l3534 2852                                    l3454 2EA2  
                                  l3470 3B20                                    l3630 1936  
                                  l3622 18E0                                    l3614 1886  
                                  l3710 2800                                    l3702 27C6  
                                  l3606 3788                                    l5230 3614  
                                  l4350 307E                                    l4342 304E  
                                  l4334 302C                                    l4326 300E  
                                  l4166 3822                                    l4094 3DCE  
                                  l4182 3AC0                                    l5064 0D6C  
                                  l5056 0D50                                    l5048 0D0C  
                                  l5160 13DC                                    l5152 139E  
                                  l5144 1364                                    l5136 1328  
                                  l5080 11E4                                    l5072 11B8  
                                  l4440 2B8A                                    l4432 2B6A  
                                  l4416 2B1C                                    l4408 2ADC  
                                  l4512 237A                                    l4504 2334  
                                  l5216 3210                                    l4520 3E04  
                                  l5224 4042                                    l4192 3FE2  
                                  l4088 3F68                                    l4280 1038  
                                  l4272 0FCC                                    l4264 0F5E  
                                  l4256 0F18                                    l4248 0EE2  
                                  l3560 2962                                    l3552 291A  
                                  l3544 28C2                                    l3536 2872  
                                  l3456 2EAC                                    l3464 3AFE  
                                  l3472 3D96                                    l3640 19D6  
                                  l3632 193C                                    l3624 18FA  
                                  l3616 18AE                                    l3712 2814  
                                  l3704 27CA                                    l3720 1B5C  
                                  l4600 1EEC                                    l5240 364A  
                                  l5232 3618                                    l4360 30AA  
                                  l4352 3084                                    l4344 3060  
                                  l4336 303A                                    l4328 3012  
                                  l4176 3848                                    l4168 3832  
                                  l4096 3DDE                                    l4184 3AC2  
                                  l5066 0D7A                                    l5058 0D5E  
                                  l5170 1418                                    l5162 13E6  
                                  l5154 13AE                                    l5146 1372  
                                  l5138 1338                                    l5090 121E  
                                  l5082 11F4                                    l5074 11C4  
                                  l4442 2B9A                                    l4418 2B2C  
                                  l4514 237C                                    l4506 2338  
                                  l4530 3E2C                                    l4522 3E14  
                                  l5226 4046                                    l5218 402C  
                                  l4450 35A0                                    l4290 1078  
                                  l4282 1046                                    l4274 1002  
                                  l4266 0F7A                                    l4258 0F24  
                                  l3490 2544                                    l3562 2982  
                                  l3554 293A                                    l3546 28CA  
                                  l3538 2876                                    l3458 2ECA  
                                  l3466 3B0A                                    l3474 3DA2  
                                  l3570 2F6C                                    l3650 1A7E  
                                  l3642 19DC                                    l3634 1944  
                                  l3626 1916                                    l3618 18CE  
                                  l3714 2818                                    l3706 27CE  
                                  l3482 3CF0                                    l3730 1BD0  
                                  l3722 1B76                                    l3810 159C  
                                  l3802 1552                                    l4602 1F0C  
                                  l4610 1F52                                    l5242 3662  
                                  l5234 361C                                    l4354 309A  
                                  l4346 3068                                    l4362 30B0  
                                  l4338 3042                                    l4370 30D2  
                                  l4098 3DE6                                    l4186 3AE0  
                                  l5250 38A2                                    l5068 0D7C  
                                  l5180 148A                                    l5172 1426  
                                  l5164 13F4                                    l5156 13C0  
                                  l5148 137E                                    l5092 1224  
                                  l5084 1204                                    l5076 11D2  
                                  l4444 2BAA                                    l4428 2B56  
                                  l4508 235C                                    l4524 3E1A  
                                  l5228 4124                                    l4540 323E  
                                  l4460 35D8                                    l4452 35A8  
                                  l4292 10A6                                    l4284 1058  
                                  l4276 1010                                    l4268 0F86  
                                  l4196 0D8E                                    l3492 2564  
                                  l3556 294C                                    l3548 28DE  
                                  l3468 3B1C                                    l3476 3DA6  
                                  l3580 2FB2                                    l3572 2F7A  
                                  l3660 1AE4                                    l3652 1A98  
                                  l3644 19E2                                    l3636 194E  
                                  l3628 1928                                    l3740 1C14  
                                  l3732 1BDA                                    l3724 1BA0  
                                  l3716 1B4A                                    l3820 1664  
                                  l3812 15C0                                    l3804 1576  
                                  l3900 3680                                    l4620 1FB6  
                                  l4612 1F70                                    l4604 1F3E  
                                  l4532 412E                                    l5244 366C  
                                  l5236 3620                                    l4364 30C0  
                                  l4356 30A2                                    l4348 3070  
                                  l4380 30FE                                    l4372 30D6  
                                  l4188 3AEE                                    l4700 202E  
                                  l5260 38DA                                    l5252 38A6  
                                  l5190 14F6                                    l5182 1498  
                                  l5174 1454                                    l5158 13D6  
                                  l5166 1406                                    l5094 122A  
                                  l5086 1206                                    l5078 11D4  
                                  l4446 2BBA                                    l4438 2B7E  
                                  l4526 3E20                                    l4518 3E00  
                                  l4550 3298                                    l4542 3254  
                                  l4534 3216                                    l4470 3604  
                                  l4462 35DE                                    l4454 35BA  
                                  l4286 1066                                    l4278 102E  
                                  l4198 0D9A                                    l3494 2568  
                                  l3486 2532                                    l3558 2952  
                                  l3590 3BDE                                    l3478 3DBE  
                                  l3582 2FE0                                    l3574 2F86  
                                  l3566 2F48                                    l3662 1AEA  
                                  l3670 1B20                                    l3654 1AB2  
                                  l3638 1954                                    l3646 1A46  
                                  l3750 1CA0                                    l3734 1BE0  
                                  l3726 1BA8                                    l3718 1B5A  
                                  l3830 1702                                    l3822 1688  
                                  l3814 15E4                                    l3806 1584  
                                  l3902 3688                                    l3910 385E  
                                  l4622 1FE8                                    l4614 1F8C  
                                  l4606 1F46                                    l5238 363C  
                                  l4366 30C8                                    l4358 30A4  
                                  l4390 3136                                    l4382 3106  
                                  l4374 30E4                                    l4710 2074  
                                  l4702 2040                                    l5254 38AA  
                                  l5270 3456                                    ?_pad 0011  
                                  l5192 1510                                    l5184 14C2  
                                  l5168 1414                                    l5096 1238  
                                  l5088 120E                                    l4480 2256  
                                  l4472 21DC                                    l4528 3E26  
                                  l4640 3364                                    l4632 332A  
                                  l4552 329E                                    l4544 3260  
                                  l4536 321A                                    l4464 35F4  
                                  l4456 35C2                                    l4296 10D0  
                                  l4288 106A                                    l4560 34B8  
                                  l3496 2576                                    l3488 2536  
                                  l3584 2FF4                                    l3576 2F9A  
                                  l3568 2F58                                    l3664 1AFC  
                                  l3648 1A60                                    l3656 1AC2  
                                  l3680 26E6                                    l3592 3D28  
                                  l3760 1CE2                                    l3752 1CB2  
                                  l3744 1C54                                    l3736 1BE8  
                                  l3728 1BC8                                    l3832 1726  
                                  l3824 16BE                                    l3816 162C  
                                  l3808 1596                                    l3904 3696  
                                  l3912 3866                                    l3920 39DE  
                                  l4616 1F92                                    l4624 1FF0  
                                  l4608 1F4C                                    l4800 2CC8  
                                  l4392 314C                                    l4384 3118  
                                  l4376 30EC                                    l4720 20B0  
                                  l4712 2078                                    l4704 2050  
                                  l5256 38B8                                    l5248 389E  
                                  l5280 349E                                    l5272 3464  
                                  l5264 342C                                    l5194 152C  
                                  l5178 147E                                    l5186 14C6  
                                  l5098 123A                                    l4490 22B0  
                                  l4474 21EC                                    l4642 337E  
                                  l4634 333E                                    l4546 3276  
                                  l4538 3226                                    l4466 35FC  
                                  l4458 35CA                                    l4570 33AE  
                                  l4298 10DC                                    l4562 34C4  
                                  l3930 37A0                                    l3498 2596  
                                  l3578 2FAE                                    l3666 1B08  
                                  l3658 1AD4                                    l3682 26EE  
                                  l3674 26BA                                    l3770 1DAE  
                                  l3746 1C66                                    l3754 1CC6  
                                  l3738 1C04                                    l3762 1D40  
                                  l3834 173C                                    l3842 17C2  
                                  l3906 36BC                                    l3914 386E  
                                  l3922 39F0                                    l4626 2004  
                                  l4618 1F98                                    l4810 2D2E  
                                  l4802 2CDA                                    l4650 3A8E  
                                  l4394 3154                                    l4386 3120  
                                  l4378 30F0                                    l4730 20EA  
                                  l4722 20C0                                    l4714 208A  
                                  l4706 2054                                    l5258 38D0  
                                  l5274 3478                                    l5266 3448  
                                  l4900 0964                                    l5196 1530  
                                  l5188 14E0                                    l4492 22B2  
                                  l4484 226A                                    l4476 21FA  
                                  l4644 339A                                    l4636 3348  
                                  l4548 3282                                    l4468 35FE  
                                  l4572 33BA                                    l4564 351C  
                                  l4556 34AA                                    l3940 37F2  
                                  l3932 37B2                                    l3588 3BC4  
                                  l3668 1B10                                    l3692 2766  
                                  l3684 2702                                    l3676 26CC  
                                  l3596 3C42                                    l3772 1DCE  
                                  l3764 1D5C                                    l3756 1CD6  
                                  l3860 1852                                    l3844 17E6  
                                  l3852 1814                                    l3836 174A  
                                  l3828 16DE                                    l3916 388A  
                                  l3908 384C                                    l3924 3A00  
                                  l4628 200A                                    l4820 2D82  
                                  l4812 2D3A                                    l4804 2CE6  
                                  l4660 3AA6                                    l4396 315A  
                                  l4388 3128                                    l4740 214C  
                                  l4732 20F4                                    l4724 20C4  
                                  l4716 209A                                    l4708 2064  
                                  l5276 347C                                    l5268 344C  
                                  l4902 0974                                    l4910 099E  
                                  l5198 153E                                    l4494 22BE  
                                  l4486 2272                                    l4478 2240  
                                  l4638 335A                                    l4574 33C6  
                                  l4558 34AC                                    l3950 3902  
                                  l3782 40CE                                    l3870 3CA4  
                                  l3790 3FF6                                    l3934 37C2  
                                  l3694 277A                                    l3686 270A  
                                  l3678 26D4                                    l3774 1DD4  
                                  l3766 1D7A                                    l3758 1CDC  
                                  l3854 1822                                    l3846 17F4  
                                  l3838 1786                                    l3926 3A10  
                                  l3942 3C04                                    l4590 1E88  
                                  l4582 1E24                                    l4822 2D94  
                                  l4814 2D58                                    l4806 2D04  
                                  l4646 3A72                                    l4398 3160  
                                  l4742 21B2                                    l4734 210E  
                                  l4726 20D6                                    l4718 209E  
                                  l4670 3F08                                    l4662 3EF0  
                                  l4830 29C4                                    l5278 348A  
                                  l4920 09D6                                    l4912 09AE  
                                  l4904 0984                                    l4496 22FA  
                                  l4488 227E                                    l4576 33F2  
                                  l4568 33AC                                    l3960 3928  
                                  l3952 3904                                    l3784 40BA  
                                  l3872 3CAC                                    l3792 4004  
                                  l3880 3E94                                    l3936 37D2  
                                  l3696 277E                                    l3688 2718  
                                  l3776 1DE4                                    l3768 1D94  
                                  l3848 1808                                    l3928 3A20  
                                  l3944 3C14                                    l4592 1EBA  
                                  l4584 1E2E                                    l4824 2DAC  
                                  l4816 2D5E                                    l4808 2D10  
                                  l4656 3A92                                    l4648 3A82  
                                  l4744 21C0                                    l4736 2128  
                                  l4728 20E6                                    l4680 3F28  
                                  l4672 3F0E                                    l4664 3EF6  
                                  l4760 2422                                    l4752 238E  
                                  l4840 2A12                                    l4832 29CA  
                                  l4930 09EA                                    l4922 09DA  
                                  l4914 09C0                                    l4906 0994  
                                  l4498 2306                                    l3970 404A  
                                  l4578 3422                                    l3962 392A  
                                  l3954 3906                                    l3946 38F0  
                                  l3874 3CB4                                    l3866 3C80  
                                  l3786 3FEE                                    l3938 37E2  
                                  l3698 279C                                    l3778 1DFA  
                                  l3858 182E                                    l4594 1EC2  
                                  l4586 1E4C                                    l4818 2D70  
                                  l4658 3AA4                                    l4690 3CBA  
                                  l4746 21D2                                    l4738 213E  
                                  l4682 3F2E                                    l4674 3F14  
                                  l4666 3EFC                                    l4770 24A4  
                                  l4762 243C                                    l4754 23D4  
                                  l4850 2A8E                                    l4842 2A24  
                                  l4834 29DC                                    l4826 29A4  
                                  l4940 09FE                                    l4932 09EE  
                                  l4924 09DE                                    l4916 09CE  
                                  l4908 0996                                    l3972 404E  
                                  l4860 4136                                    l3964 392C  
                                  l3956 3908                                    l3948 3900  
                                  l3868 3C94                                    l3788 3FF2  
                                  l3892 3EE6                                    l3884 3EB8  
                                  l3980 2DB8                                    l4596 1EC8  
                                  l4588 1E68                                    l4748 21D6  
                                  l4684 3F34                                    l4676 3F1C  
                                  l4668 3F02                                    l4780 251E  
                                  l4772 24BE                                    l4764 2456  
                                  l4756 23EE                                    l4844 2A36  
                                  l4836 29EE                                    l4828 29B2  
                                  l4852 2AA6                                    l4950 0A12  
                                  l4942 0A02                                    l4934 09F2  
                                  l4926 09E2                                    l4918 09D2  
                                  l4870 08CE                                    l3974 405E  
                                  l4862 40F4                                    l3958 3916  
                                  l3966 407C                                    l3798 400A  
                                  l3894 3EEC                                    l3878 40A6  
                                  l3990 2DE8                                    l3982 2DBE  
                                  l4598 1ECE                                    l4790 331A  
                                  l4782 32A8                                    l4694 2016  
                                  l4686 3F3A                                    l4678 3F22  
                                  l4774 24D8                                    l4766 2470  
                                  l4758 2408                                    l4854 2AAC  
                                  l4846 2A6A                                    l4838 2A00  
                                  l4960 0A8A                                    l4952 0A3C  
                                  l4944 0A06                                    l4936 09F6  
                                  l4928 09E6                                    l4880 090A  
                                  l4872 08DA                                    l3976 4060  
                                  l4864 40FC                                    l3968 408A  
                                  l3888 3EC2                                    l3992 2E18  
                                  l3984 2DC2                                    l4792 398E  
                                  l4784 32F0                                    l4696 2016  
                                  l4688 3F40                                    l4776 24F2  
                                  l4768 248A                                    l4856 2AB2  
                                  l4848 2A7C                                    l4970 0ACA  
                                  l4962 0A8E                                    l4954 0A58  
                                  l4946 0A0A                                    l4938 09FA  
                                  l4890 093A                                    l4882 091A  
                                  l4874 08E8                                    l4866 40FE  
                                  l3986 2DD2                                    l3994 2E48  
                                  l3978 2DB2                                    l4794 399A  
                                  l4786 32FE                                    l4698 202C  
                                  l4778 250C                                    l4858 2AB6  
                                  l4980 0B0C                                    l4972 0ADA  
                                  l4964 0A9C                                    l4956 0A68  
                                  l4948 0A0E                                    l4892 094C  
                                  l4884 091C                                    l4876 08EA  
                                  l4868 4100                                    l3996 2E50  
                                  l3988 2DE0                                    l4796 39A6  
                                  l4788 330C                                    l4990 0B3A  
                                  l4982 0B1A                                    l4966 0A9E  
                                  l4958 0A7E                                    l4894 094E  
                                  l4878 08FA                                    l4886 0924  
                                  l3998 3D60                                    l4798 39B2  
                                  l4992 0B44                                    l4984 0B26  
                                  l4976 0AEE                                    l4968 0AA8  
                                  l4896 0954                                    l4888 0934  
                                  l4986 0B2A                                    l4978 0AFE  
                                  l4994 0B4A                                    l4898 0962  
                                  l4996 0B70                                    l4988 0B38  
                                  l4998 0BA4                                    STR_1 08B2  
                                  STR_2 08B9                                    STR_3 08BE  
                                  STR_4 08C2                                    STR_5 08C9  
                                  STR_6 08C9                                    STR_7 08C9  
                                  STR_8 082B                                    STR_9 084D  
                  _pines_ConfigurarHora 40F4                                    _CREN 007D5C  
                       ??_encender_leds 0060                                    u3000 2852  
                                  u3001 284E                                    u3010 2884  
                                  u3011 2880                                    u3020 28C2  
                                  u3100 3BDE                                    u3021 28BE  
                                  u3101 3BDA                                    u3030 28EC  
                                  u3110 3D58                                    u3031 28E8  
                                  u3111 3D52                                    u3040 291A  
                                  u3200 1898                                    u3120 3D5A  
                                  u4000 3AFC                                    _LATD 000F8C  
                                  u3041 2916                                    u4001 3AF8  
                                  u4010 0DA8                                    u3050 2962  
                                  u3210 18AE                                    u3130 3C76  
                                  u4011 0DA4                                    u3051 295E  
                                  u3211 18AA                                    u3131 3C70  
                                  u4100 1046                                    u4020 0DBA  
                                  u3060 2F58                                    u3300 1AC2  
                                  u3220 18DE                                    u3140 3C78  
                                  u4101 1042                                    u4021 0DB6  
                                  u3061 2F54                                    u3301 1ABE  
                                  u3221 18DA                                    u4110 1066  
                                  u4030 0DCA                                    u3070 2F7A  
                                  u3310 1AD4                                    u3230 18FA  
                                  u3150 3770                                    u4111 1062  
                                  u4031 0DC6                                    u3071 2F76  
                                  u3311 1AD0                                    u3231 18F6  
                                  u3151 376A                                    u5000 0962  
                                  u4120 1078                                    u4040 0E0A  
                                  u3080 2FD0                                    u3320 1AE4  
                                  u3240 1928                                    u3400 27EC  
                                  u3160 3772                                    u4200 3020  
                                  u5001 095E                                    u4121 1074  
                                  u4041 0E06                                    u3081 2FCC  
                                  u3321 1AE0                                    u3241 1924  
                                  u3401 27E8                                    u4201 301C  
                                  u5010 0974                                    u4130 10A6  
                                  u4050 0E1C                                    u3090 2FE0  
                                  u3330 1AFC                                    u3250 1936  
                                  u3410 27FC                                    u3170 3788  
                                  u4210 303A                                    u5011 0970  
                                  u4131 10A2                                    u4051 0E18  
                                  u3091 2FDC                                    u3331 1AF8  
                                  u3251 1932                                    u3411 27F8  
                                  u3171 3784                                    u4211 3036  
                                  u5100 0ABC                                    u5020 0984  
                                  u4140 10BC                                    u4060 0E2C  
                                  u3180 40F0                                    u3260 1A60  
                                  u3420 2836                                    u3500 1C9A  
                                  u4220 3060                                    u4300 314C  
                                  u5101 0AB8                                    u5021 0980  
                                  u4141 10B8                                    u4061 0E28  
                                  u3181 40EC                                    u3261 1A5C  
                                  u3421 2832                                    u3341 26C4  
                                  u3501 1C94                                    u4221 305C  
                                  u4301 3148                                    u5110 0ACA  
                                  u5030 09C0                                    u4150 10D0  
                                  u4070 0E62                                    u3270 1A7E  
                                  u3190 1896                                    u3350 26E6  
                                  u3510 1C9C                                    u3430 1B5A  
                                  u4230 307E                                    u4310 3170  
                                  u5111 0AC6                                    u5031 09BC  
                                  u4151 10CC                                    u4071 0E5E  
                                  u3271 1A7A                                    u3191 1890  
                                  u3351 26E2                                    u3431 1B56  
                                  u4231 307A                                    u4311 316C  
                                  u5200 0C28                                    u5120 0ADA  
                                  u5040 09CE                                    u4320 2ADC  
                                  u4400 35D8                                    u4160 10EA  
                                  u4080 0E72                                    u3600 40E0  
                                  u3280 1A98                                    u3360 2718  
                                  u3520 1CB2                                    u3440 1B76  
                                  u4240 309A                                    u5201 0C24  
                                  u5121 0AD6                                    u5041 09CA  
                                  u4321 2AD8                                    u4401 35D4  
                                  u4161 10E6                                    u4081 0E6E  
                                  u3601 40DC                                    u3281 1A94  
                                  u3361 2714                                    u3521 1CAE  
                                  u3441 1B72                                    u4241 3096  
                                  u5210 0C38                                    u5130 0B0C  
                                  u5050 0A3C                                    u4330 2B10  
                                  u4410 35F4                                    u4170 1132  
                                  u4090 0FEC                                    u3610 40CC  
                                  u3290 1AB2                                    u3370 2736  
                                  u3530 1D1A                                    u3450 1BA0  
                                  u4250 30C0                                    u5211 0C34  
                                  u5131 0B08                                    u5051 0A38  
                                  u4411 35F0                                    u4171 112E  
                                  u3611 40C8                                    u3291 1AAE  
                                  u3371 2732                                    u3451 1B9C  
                                  u4251 30BC                                    u5300 0D1C  
                                  u5220 0C54                                    u5140 0B1A  
                                  u5060 0A54                                    u4340 2B3E  
                                  u4500 236C                                    u4420 21EC  
                                  u4180 1160                                    u3700 3C90  
                                  u3620 4004                                    u2900 3DBE  
                                  u3380 2762                                    u3540 1D5C  
                                  u3460 1C04                                    u4260 30E4  
                                  u5301 0D18                                    u5221 0C50  
                                  u5141 0B16                                    u5061 0A4E  
                                  u4341 2B3A                                    u4501 2368  
                                  u4421 21E8                                    u4181 115C  
                                  u3701 3C8C                                    u3621 4000  
                                  u2901 3DBA                                    u3381 275E  
                                  u3541 1D58                                    u3461 1C00  
                                  u4261 30E0                                    u5310 0D2C  
                                  u5230 0C64                                    u5150 0B38  
                                  u5070 0A56                                    u4350 2B52  
                                  u4510 237A                                    u4430 21FA  
                                  u4190 119A                                    u3710 3CA4  
                                  u3390 279C                                    u2910 3D20  
                                  u3550 1D7A                                    u3470 1C4E  
                                  u3630 1576                                    u4270 30FE  
                                  u5311 0D28                                    u5231 0C60  
                                  u5151 0B34                                    u4351 2B4E  
                                  u4335 2B06                                    u4511 2376  
                                  u4431 21F6                                    u4191 1196  
                                  u4095 0FE2                                    u3711 3CA0  
                                  u3391 2798                                    u2911 3D1A  
                                  u3551 1D76                                    u3535 1D08  
                                  u3471 1C48                                    u3631 1572  
                                  u4271 30FA                                    u5320 0D4C  
                                  u5240 0C76                                    u5160 0B70  
                                  u5080 0A7E                                    u5400 125A  
                                  u4360 2B7A                                    u4440 2256  
                                  u4520 323E                                    u3720 40B6  
                                  u2920 3D22                                    u3560 1D94  
                                  u3480 1C50                                    u3640 15C0  
                                  u3800 2DD2                                    u4600 1EEC  
                                  u4280 3118                                    u5321 0D48  
                                  u5241 0C72                                    u5161 0B6C  
                                  u5081 0A7A                                    u5401 1256  
                                  u4361 2B76                                    u4441 2252  
                                  u4521 323A                                    u3721 40B2  
                                  u3561 1D90                                    u3641 15BC  
                                  u3801 2DCE                                    u4601 1EE8  
                                  u4281 3114                                    u5330 0D5E  
                                  u5250 0C8C                                    u5170 0BB6  
                                  u5090 0A9C                                    u5410 129A  
                                  u4370 2B9A                                    u4450 22AC  
                                  u4530 3254                                    u3730 3EA4  
                                  u2930 2544                                    u2850 2E90  
                                  u3570 1DAE                                    u3490 1C66  
                                  u3650 15E4                                    u3810 2DE0  
                                  u4610 1F0C                                    u4290 3136  
                                  u5331 0D5A                                    u5251 0C88  
                                  u5171 0BB2                                    u5091 0A98  
                                  u5411 1296                                    u4371 2B96  
                                  u4451 22A8                                    u4531 3250  
                                  u3731 3EA0                                    u2931 2540  
                                  u2851 2E8C                                    u3571 1DAA  
                                  u3491 1C62                                    u3651 15E0  
                                  u3811 2DDC                                    u4611 1F08  
                                  u4291 3132                                    u5340 0D7A  
                                  u5260 0CA2                                    u5180 0BEC  
                                  u5500 1426                                    u5420 12DA  
                                  u4380 2BAA                                    u4460 22F6  
                                  u3900 3A48                                    u4540 3276  
                                  u3820 3B60                                    u3740 3EB4  
                                  u2940 2576                                    u2860 2EA2  
                                  u3580 1DBE                                    u3660 1688  
                                  u4620 1F70                                    u4700 3A82  
                                  u5341 0D76                                    u5261 0C9E  
                                  u5181 0BE8                                    u5501 1422  
                                  u5421 12D6                                    u4381 2BA6  
                                  u4461 22F2                                    u3901 3A44  
                                  u4541 3272                                    u3821 3B5C  
                                  u3741 3EB0                                    u2941 2572  
                                  u2861 2E9E                                    u3581 1DBA  
                                  u3661 1684                                    u4621 1F6C  
                                  u4701 3A7E                                    u5270 0CB6  
                                  u5190 0BFC                                    u5510 1454  
                                  u5430 1350                                    u5350 11D2  
                                  u4470 2314                                    u3910 3A66  
                                  u4550 3298                                    u4390 35BA  
                                  u3750 3ED2                                    u2870 2ECA  
                                  u3590 1DCE                                    u3670 1702  
                                  u4630 1F8C                                    u3830 3706  
                                  u4710 3AB6                                    u5271 0CB2  
                                  u5191 0BF8                                    u5511 1450  
                                  u5431 134C                                    u5351 11CE  
                                  u4471 2310                                    u3911 3A62  
                                  u4551 3294                                    u4391 35B6  
                                  u3751 3ECE                                    u2951 25A0  
                                  u2871 2EC6                                    u3591 1DCA  
                                  u3671 16FE                                    u4631 1F88  
                                  u4711 3AB2                                    u5280 0CD0  
                                  u5520 146A                                    u5440 1372  
                                  u5360 11E4                                    u4480 2324  
                                  u3760 3EE2                                    u2960 25C4  
                                  u2880 2F00                                    u3680 1726  
                                  u3920 2BE0                                    u4640 1FB6  
                                  u3840 372E                                    u4800 20C0  
                                  u4720 2028                                    u5600 3464  
                                  u5281 0CCC                                    u5521 1466  
                                  u5441 136E                                    u5361 11E0  
                                  u4481 2320                                    u3761 3EDE  
                                  u2961 25C0                                    u2881 2EFC  
                                  u3681 1722                                    u3921 2BDC  
                                  u4641 1FB2                                    u4801 20BC  
                                  u4721 2024                                    u5601 3460  
                                  u5290 0D0A                                    u5530 147E  
                                  u5450 139C                                    u5370 11F4  
                                  u4490 2332                                    u2970 25EE  
                                  u2890 3B40                                    u3690 17E6  
                                  u3770 36D8                                    u3930 2C34  
                                  u4650 2004                                    u4570 1E4C  
                                  u3850 373E                                    u4810 20D6  
                                  u4730 2040                                    u5610 3478  
                                  u5291 0D06                                    u5531 147A  
                                  u5451 1398                                    u5371 11F0  
                                  u4491 232E                                    u2971 25EA  
                                  u2891 3B3C                                    u3691 17E2  
                                  u3771 36D4                                    u3931 2C30  
                                  u4651 2000                                    u4571 1E48  
                                  u3851 373A                                    u4811 20D2  
                                  u4731 203C                                    u5611 3474  
                                  u5540 1498                                    u5460 13C0  
                                  u5380 1238                                    u4660 333E  
                                  u3860 3E62                                    u2980 262E  
                                  u3780 3C40                                    u3940 2C88  
                                  u4580 1E68                                    u4820 20E6  
                                  u4740 2050                                    u5620 348A  
                                  _RCIF 007CF5                                    _RCEN 007E2B  
                                  u5541 1494                                    u5461 13BC  
                                  u5381 1234                                    u4661 333A  
                                  u4565 33DE                                    u3861 3E5E  
                                  u2981 262A                                    u3781 3C3C  
                                  u3941 2C84                                    u4581 1E64  
                                  u3837 36FC                                    u4901 2CE0  
                                  u4821 20E2                                    u4741 204C  
                                  u5621 3486                                    u5550 14E0  
                                  u5470 13D6                                    u5390 124A  
                                  u4670 335A                                    u3790 408A  
                                  u2990 2678                                    u4590 1E88  
                                  u3870 3B96                                    u3950 380E  
                                  u4830 214C                                    u4750 2064  
                                  u5630 349E                                    u5551 14DC  
                                  u5471 13D2                                    u5391 1246  
                                  u4671 3356                                    u3791 4086  
                                  u2991 2674                                    u4591 1E84  
                                  u3847 3724                                    u3871 3B92  
                                  u4911 2D0A                                    u3951 380A  
                                  u4831 2148                                    u4751 2060  
                                  u5631 349A                                    u5560 1510  
                                  u5480 13F4                                    u4680 337E  
                                  u3880 3F56                                    u3960 3832  
                                  u4840 21C0                                    u4760 2074  
                                  u5561 150C                                    u5481 13F0  
                                  u4681 337A                                    u3881 3F52  
                                  u4921 2D34                                    u3961 382E  
                                  u4841 21BC                                    u4761 2070  
                                  u5570 153E                                    u5490 1414  
                                  u4690 339A                                    u3970 3842  
                                  u3890 3DDE                                    u4850 21D2  
                                  u4770 208A                                    u4930 29B2  
                                  u5571 153A                                    u5491 1410  
                                  u4691 3396                                    u3971 383E  
                                  u3891 3DDA                                    u4851 21CE  
                                  u4771 2086                                    u5707 2ABC  
                                  u4931 29AE                                    u5580 364A  
                                  u3980 3AE0                                    u4780 209A  
                                  u4940 29C4                                    u4861 32B2  
                                  u5581 3646                                    u3981 3ADC  
                                  u5717 2132                                    u4781 2096  
                                  u4941 29C0                                    u3990 3AEE  
                                  u4790 20B0                                    u4950 2A36  
                                  u5590 38B8                                    u5807 3A52  
                                  u4871 32C4                                    u3991 3AEA  
                                  u5727 3AC8                                    u4791 20AC  
                                  u4951 2A32                                    u5591 38B4  
                                  u4960 08E8                                    u4961 08E4  
                                  u5817 3E0A                                    u4881 32D6  
                                  u5737 3816                                    u4970 08FA  
                                  u4971 08F6                                    u5827 395E  
                                  u4891 32E8                                    u5747 3656  
                                  u4980 090A                                    u4981 0906  
                                  u5837 3984                                    u5757 3674  
                                  u5677 38C4                                    u4990 094C  
                                  u4991 0948                                    u5767 2DA0  
                                  u5687 38E2                                    u5777 390E  
                                  u5697 2A98                                    u5787 3934  
                                  u5797 3A32                                    _RBPU 007F8F  
                                  _RSEN 007E29             __size_of_establecer_valores 004E  
                                  _TXIF 007CF4                                    _Date 01EE  
                                  _Year 01EA                                    abs@a 0013  
                                  _date 03B4                                    _dbuf 023E  
                                  _main 342C                                    _dtoa 1866  
                       ?_RTC_Read_Clock 0001                                    _hour 00F5  
                      __end_of_I2C_Nack 40CE                      __size_of_LCD_Clear 0008  
                                  _prec 00F1                        __end_of_I2C_Init 4064  
                      __end_of_I2C_Read 3CB8                                    _time 0378  
                                  _nout 01E6                                    _year 00FC  
                                  pad@i 0018                                    pad@p 0015  
                                  fsr1h 000FE2                                    fsr2h 000FDA  
                                  indf1 000FE7                                    indf2 000FDF  
                                  fsr1l 000FE1                                    pad@w 001A  
                                  fsr2l 000FD9                                    _stoa 26BA  
              __end_of_USART_SendString 3E64                                    _xtoa 1B4A  
                      __end_of_I2C_Stop 40BA                     __end_of_Anti_rebote 384C  
                                  prodh 000FF4                                    prodl 000FF3  
                                  start 0000                         ___fldiv@new_exp 0020  
                   Anti_rebote@contador 0002                            ?_iniciar_pic 0001  
                         _LCD_String_xy 3B84                            ___param_bank 000000  
      RTC_Read_Clock@read_clock_address 0004                                   ??_abs 0015  
                                 ??_pad 0017                        __end_of_LCD_Char 393E  
                         imprimir@F3831 0210                           imprimir@F3833 0200  
                         imprimir@F3829 0220                      _iniciar_emoticones 32A8  
                         ___fltol@sign1 0030                         __end_of___aodiv 26BA  
                       __end_of___fladd 0D8E                                   ?_main 0001  
                                 ?_dtoa 001C                         __end_of___aomod 29A4  
                                 _ACKEN 007E2C                                   _ACKDT 007E2D  
                       __end_of___fldiv 1552                         __end_of___awdiv 30D2  
                                 STR_10 0801                                   STR_11 0880  
                                 STR_12 086E                                   STR_13 08A2  
                                 STR_14 0892                                   STR_15 08C6  
                                 STR_16 08C6                         __end_of___awmod 3182  
                       __end_of___flmul 11B8                         __end_of___fltol 2BCC  
                                 ?_stoa 000A                         ___awdiv@divisor 0003  
                                 ?_xtoa 001C                                   _LATB3 007C53  
                                 _LATD0 007C60                                   _LATB4 007C54  
                                 _LATD1 007C61                                   _LATB5 007C55  
                       __end_of___lwdiv 3614                         ___awdiv@counter 0005  
                                 _RCREG 000FAE                                   _RCSTA 000FAB  
                          vfpfcnvrt@fmt 0045                            vfpfcnvrt@llu 0055  
                                 _SPBRG 000FAF                                   _TRISD 000F95  
                                 _SSPIE 007CEB                                   _SSPIF 007CF3  
           __size_of_sensor_temperatura 007C                                   _TXREG 000FAD  
                                 _TXSTA 000FAC                                   _Month 01EC  
                   ?_iniciar_emoticones 0001                                   _flags 00F3  
                                 _fputc 2E7E                         __end_of_isalpha 3C7E  
                                 _fputs 3AFE                __end_of_RTC_obtener_hora 2E7E  
                                 _hours 00FF                                   _s_luz 0230  
                                 _month 00FB                   ?_pines_ConfigurarHora 0001  
                     __end_of_I2C_Ready 40F4                                   pad@fp 0011  
                                 _width 01E8                                   _putch 413C  
                                 dtoa@d 001E                                   dtoa@i 003E  
                                 dtoa@n 0036                                   dtoa@p 0030  
                                 dtoa@s 0034                                   dtoa@w 0032  
                       __end_of_islower 3D28                       __end_of_I2C_Start 3EC0  
                     __end_of_I2C_Write 400E                         __end_of_isupper 3D60  
                       __end_of_validar 2014                                   tablat 000FF5  
                                 plusw1 000FE3                                   plusw2 000FDB  
                                 stoa@i 0016                                   stoa@l 001E  
                                 stoa@p 001C                                   stoa@s 000C  
                                 stoa@w 0018                                   status 000FD8  
                       __end_of_sprintf 389E                     __size_of_LCD_String 005E  
                                 xtoa@c 0041                                   xtoa@d 001E  
                                 xtoa@i 003F                                   xtoa@n 0037  
                                 xtoa@p 0033                                   xtoa@w 0035  
                                 xtoa@x 0026                         __end_of_toupper 379E  
                        ?_LCD_String_xy 0005                       ?_sensor_distancia 0005  
                           ?_USART_Init 0038                            _toupper$1992 000D  
                  ??_iniciar_emoticones 0007                 __end_of_LCD_Custom_Char 3AB8  
                       __initialization 3526                     adc_init10Bits@canal 0003  
                    ??_sensor_distancia 0007                    Reloj_Calendario@Time 01D7  
                          __end_of_main 34AA                            __end_of_dtoa 1B4A  
                          __end_of_stoa 2840                            __end_of_xtoa 1E24  
               RTC_Calendar_Write@month 0004                               ??_I2C_Ack 0001  
                      __end_of_Parpadeo 3AFE                                  ??_main 0060  
                                ??_dtoa 0026                                  ??_stoa 000E  
                                ??_xtoa 0027                       __end_of_LCD_Clear 4136  
                         __activetblptr 000002                Reloj_Calendario@Date_var 02D2  
               __size_of_adc_init10Bits 0010                 __size_of_adc_read10Bits 002C  
                    _RTC_Calendar_Write 3F1A                                  ?_fputc 0001  
                                ?_fputs 000A                                  _ADRESH 000FC4  
                                _ADRESL 000FC3                        ___awdiv@dividend 0001  
                           _Anti_rebote 37F8                                  ?_putch 0001  
                      LCD_String_xy@msg 0006                        LCD_String_xy@pos 0005  
                      LCD_String_xy@row 0008                     _mostrar_estadistica 2BCC  
                                _LCD_xy 3DCC                     ?_RTC_Calendar_Write 0003  
                                _OSCCON 000FD3                                  _SSPADD 000FC8  
                                _TRISB0 007C98                                  _TRISB1 007C99  
                                _TRISB3 007C9B                                  _TRISB4 007C9C  
                                _TRISB5 007C9D                                  _TRISB6 007C9E  
                                _TRISC6 007CA6                                  _TRISC7 007CA7  
                                _SSPBUF 000FC9                        __end_of___xxtofl 238E  
          __end_of_mostrar_estadisticas 3680                            vfprintf@cfmt 0066  
                             ??___aodiv 0011                               ??___fladd 0030  
                             ??___aomod 0011                                  ___wmul 3FC6  
                             ??___fldiv 0017                               ??___awdiv 0005  
                             ??___awmod 0005                               ??___flmul 0017  
                             ??___fltol 002C                               ??___lwdiv 000B  
                  ?_mostrar_estadistica 007D                                  _estado 0236  
                  ??_RTC_Calendar_Write 0006                                  _s_dist 0234  
                      __end_of_init_rtc 413C                                  clear_0 356C  
                                clear_1 3578                                  clear_2 3584  
                                clear_3 3590                        ___awdiv@quotient 0007  
                                _s_temp 0232                         ___awmod@divisor 0003  
                                isa$std 000001                        __end_of_imprimir 2DB2  
                       ___awmod@counter 0005                      _I2C_Repeated_Start 3EC0  
                                pad@buf 0013                    __size_of_LCD_Command 0050  
                                _strcat 3E64                                  dtoa@fp 001C  
                                _strcpy 3C04                                  _strlen 3D96  
                                fputc@c 0001                                  fputs@c 000E  
                      LCD_Custom_Char@i 0006                                  fputs@i 000F  
                             ?_I2C_Nack 0001                                  fputs@s 000A  
                             ??_isalpha 0003                               ?_I2C_Init 0001  
                             ?_I2C_Read 0001                               ?_I2C_Stop 0001  
                             ??_islower 0003                            __mediumconst 0000  
                                tblptrh 000FF7                               ??_validar 0060  
                             ??_isupper 0003                                  tblptrl 000FF6  
                                tblptru 000FF8                  __size_of_Decimal_a_BCD 0038  
                   ?_I2C_Repeated_Start 0001                     __size_of_USART_Init 0094  
                ??_pines_ConfigurarHora 0004                                  stoa@cp 001A  
                                stoa@fp 000A                                  putch@c 0001  
                      __end_of_vfprintf 36E2                               ??_sprintf 0060  
                                xtoa@fp 001C                               ??_toupper 0009  
                          ___xxtofl@arg 000B                      validar@valor_usart 025E  
                          ___xxtofl@exp 000A                            ___xxtofl@val 0001  
                __size_of_BCD_a_Decimal 0016                               ?_LCD_Char 0001  
                            __accesstop 0060                 __end_of__initialization 3596  
                       ??_LCD_String_xy 0008               __size_of_Reloj_Calendario 01A4  
                        LCD_xy@location 0005                           ___rparam_used 000001  
                      validar@distancia 00E9                              ___fltol@f1 0028  
                  ??_I2C_Repeated_Start 0002                        ?_LCD_Custom_Char 0003  
                        __pcstackCOMRAM 0001                            __pidataBANK1 400E  
                          __pidataBANK2 3F9C                              _adc_config 3B42  
                 _Establecer_Hora_Fecha 2014                       ?_mostrar_emoticon 0001  
                  __size_of_iniciar_pic 001E                   ??_mostrar_estadistica 0060  
                           imprimir@luz 007E                           __end_of_fputc 2F48  
                         __end_of_fputs 3B42                        ??_configurarHora 000E  
                         __end_of_putch 413E                      ??_mostrar_emoticon 0003  
                          ??_LCD_String 0005                               LCD_xy@pos 0003  
                             LCD_xy@row 0004                              ??_I2C_Nack 0001  
                            ??_I2C_Init 0001                              ??_I2C_Read 0001  
         iniciar_emoticones@temperatura 0007                              ??_I2C_Stop 0001  
          __end_of_obtener_tiempo_fecha 3F9C          Establecer_Hora_Fecha@parametro 000A  
                      ??_RTC_Read_Clock 0003                                 ??_fputc 0005  
                               ??_fputs 000E                                 ??_putch 0001  
                            __pbssBANK0 00F1                              __pbssBANK1 01E6  
                            __pbssBANK2 0200                              __pbssBANK3 0300  
                               ?_LCD_xy 0003                              ??_LCD_Char 0001  
                             ?_Parpadeo 0001                      __end_of_LCD_String 3740  
                     ?_USART_SendString 0002                      __size_of_init_leds 000A  
                   obtener_distancia@cm 0003                           _Decimal_a_BCD 3CB8  
                    ??_USART_SendString 0004                            I2C_Read@flag 0001  
                        I2C_Read@buffer 0002                                 ?___wmul 0001  
      mostrar_estadistica@mensaje_usart 0081                __size_of_RTC_Clock_Write 002C  
                               _I2C_Ack 40CE                                 _ACKSTAT 007E2E  
                         _BCD_a_Decimal 4064                                 ?_strcat 000D  
                               ?_strcpy 0005                                 ?_strlen 0001  
                        _adc_init10Bits 4106                    _mostrar_estadisticas 3614  
                             ?___xxtofl 0001                          _adc_read10Bits 3F46  
                        _val_intensidad 01F8                      __size_of_vfpfcnvrt 0314  
                Establecer_Hora_Fecha@x 000D                  Establecer_Hora_Fecha@y 0009  
            __end_of_establecer_valores 39DC                                 _SSPCON1 000FC6  
                               _SSPCON2 000FC5                __size_of_inicializar_lcd 0034  
                               _SSPSTAT 000FC7                       ?_RTC_obtener_hora 0001  
                       __size_of_LCD_xy 0034                   __end_of_encender_leds 33AC  
                    ??_RTC_obtener_hora 0060                               ?_init_rtc 0001  
                             _I2C_Ready 40E2                              ??_Parpadeo 0001  
                             ?_imprimir 007A                      encender_leds@valor 00ED  
                             _I2C_Start 3E92                               _I2C_Write 3FEC  
                         LCD_String@msg 0003                       mostrar_emoticon@i 0003  
                        ?_Decimal_a_BCD 0001                            ??_USART_Init 003C  
                               __Hparam 0000                                 __Lparam 0000  
                ?_Establecer_Hora_Fecha 0009                             ?_adc_config 0001  
                               ___aodiv 2532                                 ___fladd 08CE  
                     _RTC_Read_Calendar 379E                                 ___aomod 2840  
                               ___fldiv 11B8                                 ___awdiv 300E  
                               ___awmod 30D2                                 ___flmul 0D8E  
                               ___fltol 2AC6                         __size_of___wmul 0026  
                               ___lwdiv 35A0                               ?_vfprintf 0060  
                        ?_BCD_a_Decimal 0001                            __psmallconst 0800  
                    ?_RTC_Read_Calendar 0001                         imprimir@aux_luz 00A2  
                               __pcinit 3526                  __end_of_adc_init10Bits 4116  
                           validar@temp 00E7                              _init_ports 4116  
                               __ramtop 0800              __end_of_sensor_temperatura 3526  
                               __ptext0 342C                                 __ptext1 389E  
                               __ptext2 29A4                                 __ptext3 238E  
                               __ptext4 4064                                 __ptext5 3EEE  
                               __ptext6 3F1A                                 __ptext7 2014  
                               __ptext8 3AB8                                 __ptext9 3DCC  
                   USART_SendString@out 0002                  __end_of_adc_read10Bits 3F72  
                       __size_of_strcat 002E                         __size_of_strcpy 003E  
                       __size_of_strlen 0036                          USART_Init@temp 003C  
                 ?_mostrar_estadisticas 0001               __size_of_sensor_distancia 0092  
                          __size_of_abs 0040                            __size_of_pad 00C6  
                               _isalpha 3C42                       __end_of_init_leds 412E  
                            ??___xxtofl 0005                        ___awmod@dividend 0001  
                   ??_RTC_Read_Calendar 0003                                 _islower 3CF0  
                               _minutes 00FE                                 _seconds 00FD  
                               _lum_ant 0238                                 _isupper 3D28  
                               _validar 1E24                               _LCD_Clear 412E  
                    __end_of_USART_Init 3216                                 _sprintf 384C  
                          ?_Anti_rebote 0001                                 _toupper 3740  
                  end_of_initialization 3596                                 fputc@fp 0003  
                        LCD_Command@cmd 0002                           __Lmediumconst 0000  
                               fputs@fp 000C                              ??_init_rtc 0001  
                            ?_I2C_Ready 0001                           ?_mostrar_hora 0001  
                      _Reloj_Calendario 238E                              ??_imprimir 0080  
                            ?_I2C_Start 0001                              ?_I2C_Write 0001  
             __end_of_RTC_Read_Calendar 37F8             __size_of_iniciar_emoticones 0082  
                     __end_of_vfpfcnvrt 1866                               _RCSTAbits 000FAB  
                               postdec1 000FE5                                 postdec2 000FDD  
                  _obtener_tiempo_fecha 3F72                                 postinc0 000FEE  
                               postinc1 000FE6                                 postinc2 000FDE  
                            ??_vfprintf 0060                         adc_config@canal 0001  
                            _sensor_luz 33AC                      RTC_Clock_Write@min 0003  
                    RTC_Clock_Write@sec 0006                                 strcpy@d 000B  
                               strlen@a 0003                                 strcpy@s 0009  
                               strlen@s 0001                         ?_adc_init10Bits 0003  
                             _PORTAbits 000F80                               _PORTCbits 000F82  
                       ?_adc_read10Bits 0001                   iniciar_emoticones@luz 0017  
                           ___fladd@grs 0037                       ??_RTC_Clock_Write 0006  
                         ___xxtofl@sign 0009                               _TRISAbits 000F92  
                             _TRISBbits 000F93                               _TRISCbits 000F94  
                            ?_LCD_Clear 0001                       __size_of_I2C_Nack 0014  
                     __size_of_I2C_Init 001A                       __size_of_I2C_Read 003A  
                           ___fldiv@grs 0022                             ___fldiv@rem 001B  
                     __size_of_I2C_Stop 0014                     __size_of_adc_config 0042  
                   USART_Init@baud_rate 0038                             ___flmul@grs 001C  
                        ??_mostrar_hora 00EF                           ?_USART_TxChar 0001  
                       ??_Decimal_a_BCD 0009                          __end_of_LCD_xy 3E00  
                     ??_inicializar_lcd 0003                       __size_of_LCD_Char 0050  
                 ?_obtener_tiempo_fecha 007B                         ??_BCD_a_Decimal 0001  
                         ??_LCD_Command 0001                             vfpfcnvrt@ap 0047  
                           vfpfcnvrt@cp 005D                             vfpfcnvrt@fp 0043  
                           vfpfcnvrt@ll 004D                          __end_of___wmul 3FEC  
           __size_of_RTC_Calendar_Write 002C                             ?_init_ports 0001  
                             Parpadeo@j 0002                            imprimir@dist 007A  
                ??_mostrar_estadisticas 00EF                            imprimir@temp 007C  
        mostrar_estadistica@valor_usart 007F                          __end_of_strcat 3E92  
                        __end_of_strcpy 3C42                          __end_of_strlen 3DCC  
                   start_initialization 3526                 adc_read10Bits@value_adc 0005  
                           __end_of_abs 3C04                  RTC_Calendar_Write@date 0003  
                           __end_of_pad 300E               __size_of_mostrar_emoticon 0016  
                RTC_Calendar_Write@year 0005    I2C_Repeated_Start@slave_read_address 0002  
         __size_of_pines_ConfigurarHora 0012                                ??_LCD_xy 0004  
                        ??_USART_TxChar 0001                             ??_I2C_Ready 0001  
                           ??_I2C_Start 0002                             ??_I2C_Write 0001  
                 __end_of_LCD_String_xy 3BC4             __end_of_mostrar_estadistica 2CC8  
                         ??_iniciar_pic 0004              __size_of_RTC_Read_Calendar 005A  
                     __size_of_Parpadeo 0046                             vfprintf@fmt 0062  
           __size_of_I2C_Repeated_Start 002E                                ??___wmul 0005  
                           __pdataBANK1 01C8                             __pdataBANK2 02BA  
                           ?_sensor_luz 000E                                ?_I2C_Ack 0001  
                              ??_strcat 0011                                ??_strcpy 0009  
                              ??_strlen 0003               __size_of_USART_SendString 0030  
              __size_of_LCD_Custom_Char 0048                               ___fladd@a 002C  
                             ___fladd@b 0028                        _sensor_distancia 3216  
                             ___fldiv@a 0013                               ___fldiv@b 000F  
                   __end_of_LCD_Command 398E                               ___flmul@a 0013  
                             ___flmul@b 000F                         validar@contador 02B8  
                         __pcstackBANK0 0060                           __pcstackBANK1 0100  
                         __pcstackBANK2 025E                        ___aodiv@dividend 0001  
                           ??_LCD_Clear 0003                       __size_of___xxtofl 01B4  
                  __size_of_Anti_rebote 0054                           _val_distancia 00F7  
                   __size_of_init_ports 000E                 ??_Establecer_Hora_Fecha 000B  
                     __size_of_init_rtc 0006                      _establecer_valores 398E  
                ??_obtener_tiempo_fecha 0060                        ___lwdiv@dividend 0007  
                             _dtoa$1866 002E                       __size_of_imprimir 00EA  
                          ??_adc_config 0003                                ?___aodiv 0001  
                              ?___fladd 0028                                ?___aomod 0001  
                              ?___fldiv 000F                                ?___awdiv 0001  
                      ___aodiv@quotient 0013               __size_of_RTC_obtener_hora 00CC  
                              ?___awmod 0001                                ?___flmul 000F  
                              ?___fltol 0028                                ?___lwdiv 0007  
                   ?_establecer_valores 0001                     __end_of_iniciar_pic 404A  
                     __size_of_vfprintf 0062                    __end_of_mostrar_hora 38EE  
              __end_of_Reloj_Calendario 2532                             __smallconst 0800  
                              _I2C_Nack 40BA                                ?_isalpha 0001  
                              _I2C_Init 404A                                _I2C_Read 3C7E  
                              _I2C_Stop 40A6                                ?_islower 0001  
                              ?_isupper 0001                                ?_validar 00E7  
               __size_of_configurarHora 0122                        ___lwdiv@quotient 000B  
                 LCD_String_xy@location 0009                               _init_leds 4124  
                              ?_sprintf 0068                              validar@luz 00EB  
                        __size_of_fputc 00CA                          __size_of_fputs 0044  
                              ?_toupper 0007                          __size_of_putch 0002  
                    _sensor_temperatura 34AA                    ??_establecer_valores 0060  
                    __end_of_adc_config 3B84                     __size_of_sensor_luz 0080  
                              _LCD_Char 38EE                          ___wmul@product 0005  
                              _LATCbits 000F8B             iniciar_emoticones@distancia 000F  
                   Decimal_a_BCD@numero 000B                     ?_sensor_temperatura 0032  
               __size_of_RTC_Read_Clock 004A                        ??_adc_init10Bits 0005  
                             _value_adc 01FA                        ??_adc_read10Bits 0003  
                       _RTC_Clock_Write 3EEE                _mostrar_estadistica$2248 00E5  
                     _RTC_obtener_fecha 3D60                             _LCD_Command 393E  
                             _vfpfcnvrt 1552                               _xtoa$1888 002F  
                             _xtoa$1889 0031                        __size_of_I2C_Ack 0014  
                    ?_RTC_obtener_fecha 0001                              _ADCON0bits 000FC2  
                            _ADCON1bits 000FC1                              _ADCON2bits 000FC0  
                  __end_of_USART_TxChar 4090                       ___wmul@multiplier 0001  
                     _obtener_distancia 3A26                  __size_of_encender_leds 0082  
                  ??_sensor_temperatura 0034                      ?_obtener_distancia 0001  
                   ??_RTC_obtener_fecha 0060                        _mostrar_emoticon 4090  
                       _inicializar_lcd 3E00                       ??_LCD_Custom_Char 0005  
                            vfpfcnvrt@c 005F                              ?_init_leds 0001  
                             copy_data0 353A                               copy_data1 355A  
                   ??_obtener_distancia 0003            I2C_Start@slave_write_address 0002  
                 RTC_Calendar_Write@day 0006             iniciar_emoticones@todo_bien 001F  
  mostrar_estadistica@mensaje_usart_851 0100    mostrar_estadistica@mensaje_usart_853 0164  
                              _Parpadeo 3AB8              __end_of_iniciar_emoticones 332A  
                              __Hrparam 0000                             _iniciar_pic 402C  
                            vfprintf@ap 0064                                __Lrparam 0000  
                            vfprintf@fp 0060               __end_of_RTC_obtener_fecha 3D96  
                         I2C_Write@data 0001                        __size_of___aodiv 0188  
                      __size_of___fladd 04C0                        __size_of___aomod 0164  
                      __size_of___fldiv 039A                        __size_of___awdiv 00C4  
                      __size_of___awmod 00B0                     BCD_a_Decimal@numero 0002  
                      __size_of___flmul 042A                        __size_of___fltol 0106  
                            ?_vfpfcnvrt 0043                        __size_of___lwdiv 0074  
             __end_of_obtener_distancia 3A70                            ??_init_ports 0001  
                       ___aodiv@divisor 0009                         _val_luminosidad 01F6  
                       ___aodiv@counter 0011                        _USART_SendString 3E34  
                            sprintf@fmt 006A                        imprimir@aux_dist 0082  
                              ___xxtofl 21DA                        imprimir@aux_temp 0092  
                            strcat@dest 000D                        __size_of_isalpha 003C  
                       ___lwdiv@divisor 0009                        __size_of_islower 0038  
                       ___lwdiv@counter 000D                            Anti_rebote@i 0003  
                              __ptext10 37F8                                __ptext11 3CB8  
                              __ptext20 412E                                __ptext12 30D2  
                              __ptext21 398E                                __ptext13 300E  
                              __ptext30 384C                                __ptext22 1E24  
                              __ptext14 3614                                __ptext31 3680  
                              __ptext23 2BCC                                __ptext15 32A8  
                              __ptext40 2F48                                __ptext32 1552  
                              __ptext24 3F72                                __ptext16 3A70  
                              __ptext41 3D96                                __ptext33 1B4A  
                              __ptext25 3E64                                __ptext17 2CC8  
                              __ptext50 3E92                                __ptext42 3AFE  
                              __ptext34 3740                                __ptext26 3C04  
                              __ptext18 3B84                                __ptext51 3EC0  
                              __ptext43 2E7E                                __ptext35 3CF0  
                              __ptext27 2DB2                                __ptext19 36E2  
                              __ptext60 38EE                                __ptext52 3FEC  
                              __ptext44 413C                                __ptext36 3D28  
                              __ptext28 39DC                                __ptext61 34AA  
                              __ptext53 3C7E                                __ptext45 3BC4  
                              __ptext37 3C42                                __ptext29 3D60  
                              __ptext70 3A26                                __ptext62 0D8E  
                              __ptext54 40E2                                __ptext46 2840  
                              __ptext38 26BA                                __ptext71 4116  
                              __ptext63 33AC                                __ptext55 40BA  
                              __ptext47 2532                                __ptext39 1866  
                              __ptext80 3182                                __ptext72 332A  
                              __ptext64 3F46                                __ptext56 40CE  
                              __ptext48 379E                                __ptext81 21DA  
                              __ptext73 4124                                __ptext65 4106  
                              __ptext57 3E34                                __ptext49 40A6  
                              __ptext82 2AC6                                __ptext74 402C  
                              __ptext66 3B42                                __ptext58 407A  
                              __ptext83 11B8                                __ptext75 40F4  
                              __ptext67 3FC6                                __ptext59 4090  
                              __ptext84 08CE                                __ptext76 3E00  
                              __ptext68 35A0                                __ptext77 393E  
                              __ptext69 3216                                __ptext78 4136  
                              __ptext79 404A                        __size_of_isupper 0038  
                      __size_of_validar 01F0                                _dist_ant 023A  
                      __size_of_sprintf 0052                              strcpy@dest 0005  
                      __size_of_toupper 005E                           __size_of_main 007E  
                         __size_of_dtoa 02E4                                _init_rtc 4136  
                         __size_of_stoa 0186                           _encender_leds 332A  
                         __size_of_xtoa 02DA                                _imprimir 2CC8  
               __end_of_RTC_Clock_Write 3F1A                      __end_of_init_ports 4124  
              __end_of_sensor_distancia 32A8                   __end_of_Decimal_a_BCD 3CF0  
                              _val_temp 01FC                                _temp_ant 023C  
                             stoa@F1141 01D0                                isa$xinst 000000  
            __end_of_RTC_Calendar_Write 3F46                        _RTC_obtener_hora 2DB2  
          __end_of_pines_ConfigurarHora 4106                   __size_of_mostrar_hora 0050  
                 __end_of_BCD_a_Decimal 407A                                _vfprintf 3680  
                          ??_sensor_luz 0010                              _LCD_String 36E2  
               __end_of_inicializar_lcd 3E34                        ___aomod@dividend 0001  
         __size_of_mostrar_estadisticas 006C                          _configurarHora 29A4  
                              isalpha@c 0001                    RTC_Clock_Write@AM_PM 0005  
                       USART_TxChar@out 0001               mostrar_estadistica@sensor 007D  
                           ??_init_leds 0001                      LCD_Custom_Char@loc 0005  
                    LCD_Custom_Char@msg 0003                               sprintf@ap 0072  
                             strcat@src 000F                                islower@c 0001  
                        ?_encender_leds 00ED                      __end_of_sensor_luz 342C  
                          _mostrar_hora 389E                               strcpy@src 0007  
            __end_of_I2C_Repeated_Start 3EEE                                isupper@c 0001  
               iniciar_emoticones@F3821 02C2                 iniciar_emoticones@F3823 02BA  
               iniciar_emoticones@F3817 01C8                 iniciar_emoticones@F3819 02CA  
                        _RTC_Read_Clock 39DC          __size_of_Establecer_Hora_Fecha 01C6  
         __end_of_Establecer_Hora_Fecha 21DA                              _OSCCONbits 000FD3  
            __size_of_RTC_obtener_fecha 0036                   __size_of_USART_TxChar 0016  
                       ___aomod@divisor 0009                             ??_vfpfcnvrt 0049  
          __size_of_mostrar_estadistica 00FC                                stoa@nuls 000F  
                       ___aomod@counter 0011              __size_of_obtener_distancia 004A  
                              sprintf@f 0074                                sprintf@s 0068  
                     ?_Reloj_Calendario 0001                  __end_of_configurarHora 2AC6  
                   RTC_Clock_Write@hour 0004                  validar@valor_usart_842 027C  
                validar@valor_usart_844 029A                                toupper@c 0007  
                __size_of_LCD_String_xy 0040                      ??_Reloj_Calendario 000A  
                           _SSPCON2bits 000FC5                           ??_Anti_rebote 0001  
                         ___fladd@signs 0034                            ___aodiv@sign 0012  
                          ___fladd@aexp 0035                            ___fladd@bexp 0036  
                __end_of_RTC_Read_Clock 3A26                            _USART_TxChar 407A  
                 RTC_obtener_hora@AM_PM 007A                        ?_RTC_Clock_Write 0003  
                          ___aomod@sign 0012                              _USART_Init 3182  
